	.section .text
.LNDBG_TX:
# mark_description "Intel(R) C Intel(R) 64 Compiler for applications running on Intel(R) 64, Version 16.0.3.210 Build 20160415";
# mark_description "-I/home/CMIP/prajeesh/IITM-ESMv2/src/mom4p1/src/shared/mosaic -I/opt/cray/pe/libsci/17.09.1/INTEL/16.0/x86_6";
# mark_description "4/include -I/opt/cray/pe/netcdf/4.4.1.1.3/INTEL/16.0/include -I/opt/cray/pe/mpt/7.6.3/gni/mpich-intel/16.0/i";
# mark_description "nclude -I/opt/cray/pe/hdf5/1.10.0.3/INTEL/16.0/include -I/opt/cray/rca/2.2.11-6.0.4.0_13.2__g84de67a.ari/inc";
# mark_description "lude -I/opt/cray/alps/6.4.3-6.0.4.1_2.1__g92a2fc0.ari/include -I/opt/cray/xpmem/2.2.2-6.0.4.1_18.1__g43b0535";
# mark_description ".ari/include -I/opt/cray/gni-headers/5.0.11-6.0.4.0_7.2__g7136988.ari/include -I/opt/cray/pe/pmi/5.0.12/incl";
# mark_description "ude -I/opt/cray/ugni/6.0.14-6.0.4.0_14.1__ge7db4a2.ari/include -I/opt/cray/udreg/2.3.2-6.0.4.0_12.2__g2f9c3e";
# mark_description "e.ari/include -I/opt/cray/wlm_detect/1.2.1-6.0.4.0_22.1__gd26a3dc.ari/include -I/opt/cray/krca/2.2.2-6.0.4.1";
# mark_description "_18.3__g4614cf3.ari/include -I/opt/cray-hss-devel/8.0.0/include -xCORE-AVX2 -D__CRAYXC -D__CRAY_BROADWELL -D";
# mark_description "__CRAYXT_COMPUTE_LINUX_TARGET -Duse_netCDF4 -Duse_libMPI -DENABLE_ODA -DUSE_OCEAN_BGC -g -O3 -save-temps -c";
	.file "create_xgrid.c"
	.text
..TXTST0:
.L_2__routine_start_get_maxxgrid__0:
# -- Begin  get_maxxgrid_
	.text
# mark_begin;
       .align    16,0x90
	.globl get_maxxgrid_
# --- get_maxxgrid_(void)
get_maxxgrid_:
..B1.1:                         # Preds ..B1.0
	.cfi_startproc
..___tag_value_get_maxxgrid_.2:
..L3:
                                                          #53.1
..LN0:
	.file   1 "/home/CMIP/prajeesh/IITM-ESMv2/src/mom4p1/src/shared/mosaic/create_xgrid.c"
	.loc    1  53  prologue_end  is_stmt 1
..LN1:
	.loc    1  54  is_stmt 1
        movl      $10000000, %eax                               #54.10
..LN2:
	.loc    1  54  epilogue_begin  is_stmt 1
        ret                                                     #54.10
..LN3:
        .align    16,0x90
	.cfi_endproc
..LN4:
                                # LOE
..LN5:
# mark_end;
	.type	get_maxxgrid_,@function
	.size	get_maxxgrid_,.-get_maxxgrid_
..LNget_maxxgrid_.6:
.LNget_maxxgrid_:
	.data
# -- End  get_maxxgrid_
	.text
.L_2__routine_start_get_maxxgrid_1:
# -- Begin  get_maxxgrid
	.text
# mark_begin;
       .align    16,0x90
	.globl get_maxxgrid
# --- get_maxxgrid(void)
get_maxxgrid:
..B2.1:                         # Preds ..B2.0
	.cfi_startproc
..___tag_value_get_maxxgrid.9:
..L10:
                                                         #48.1
..LN7:
	.loc    1  48  prologue_end  is_stmt 1
..LN8:
	.loc    1  49  is_stmt 1
        movl      $10000000, %eax                               #49.10
..LN9:
	.loc    1  49  epilogue_begin  is_stmt 1
        ret                                                     #49.10
..LN10:
        .align    16,0x90
	.cfi_endproc
..LN11:
                                # LOE
..LN12:
# mark_end;
	.type	get_maxxgrid,@function
	.size	get_maxxgrid,.-get_maxxgrid
..LNget_maxxgrid.13:
.LNget_maxxgrid:
	.data
# -- End  get_maxxgrid
	.text
.L_2__routine_start_get_grid_area__2:
# -- Begin  get_grid_area_
	.text
# mark_begin;
       .align    16,0x90
	.globl get_grid_area_
# --- get_grid_area_(const int *, const int *, const double *, const double *, double *)
get_grid_area_:
# parameter 1(nlon): %rdi
# parameter 2(nlat): %rsi
# parameter 3(lon): %rdx
# parameter 4(lat): %rcx
# parameter 5(area): %r8
..B3.1:                         # Preds ..B3.0
	.cfi_startproc
..___tag_value_get_grid_area_.16:
..L17:
                                                         #62.1
..LN14:
	.loc    1  62  is_stmt 1
        subq      $440, %rsp                                    #62.1
	.cfi_def_cfa_offset 448
..LN15:
        movq      %rsi, %rax                                    #62.1
..LN16:
	.loc    1  71  prologue_end  is_stmt 1
        movl      (%rdi), %esi                                  #71.9
..LN17:
	.loc    1  75  is_stmt 1
        xorl      %r10d, %r10d                                  #75.7
..LN18:
        movslq    %esi, %rdi                                    #75.18
..LN19:
	.loc    1  72  is_stmt 1
        movl      (%rax), %r9d                                  #72.9
..LN20:
	.loc    1  75  is_stmt 1
        xorl      %eax, %eax                                    #75.9
..LN21:
        testl     %r9d, %r9d                                    #75.14
..LN22:
        jle       ..B3.10       # Prob 10%                      #75.14
..LN23:
                                # LOE rax rdx rcx rbx rbp rdi r8 r12 r13 r14 r15 esi r9d r10d
..B3.2:                         # Preds ..B3.1
..LN24:
        movq      %r12, (%rsp)                                  #75.9
..LN25:
        xorl      %r11d, %r11d                                  #75.9
..LN26:
        movq      %r13, 8(%rsp)                                 #75.9
..LN27:
        movq      %r14, 16(%rsp)                                #75.9
..LN28:
        movq      %r15, 24(%rsp)                                #75.9
..LN29:
        movq      %rbx, 32(%rsp)                                #75.9
..LN30:
        movq      %rbp, 40(%rsp)                                #75.9
	.cfi_offset 3, -416
	.cfi_offset 6, -408
	.cfi_offset 12, -448
	.cfi_offset 13, -440
	.cfi_offset 14, -432
	.cfi_offset 15, -424
..LN31:
                                # LOE rax rdx rcx rdi r8 esi r9d r10d r11d
..B3.3:                         # Preds ..B3.8 ..B3.11 ..B3.2
..L26:          # optimization report
                # %s was not vectorized: vector dependence prevents vectorization%s
                # VECTOR TRIP COUNT IS ESTIMATED CONSTANT
..LN32:
        xorl      %r14d, %r14d                                  #75.27
..LN33:
        testl     %esi, %esi                                    #75.36
..LN34:
        jle       ..B3.11       # Prob 10%                      #75.36
..LN35:
                                # LOE rax rdx rcx rdi r8 r14 esi r9d r10d r11d
..B3.4:                         # Preds ..B3.3
..LN36:
	.loc    1  85  is_stmt 1
        movq      %rax, 416(%rsp)                               #85.5
..LN37:
	.loc    1  78  is_stmt 1
        lea       (%rsi,%r11), %ebp                             #78.25
..LN38:
        movslq    %ebp, %rbp                                    #78.15
..LN39:
	.loc    1  85  is_stmt 1
        lea       (%r8,%rax,8), %rbx                            #85.5
..LN40:
	.loc    1  76  is_stmt 1
        movslq    %r11d, %r11                                   #76.15
..LN41:
	.loc    1  85  is_stmt 1
        movl      %r11d, 424(%rsp)                              #85.5
..LN42:
        movl      %r10d, 408(%rsp)                              #85.5
..LN43:
        movl      %r9d, 400(%rsp)                               #85.5
..LN44:
	.loc    1  78  is_stmt 1
        lea       (%rdx,%rbp,8), %r13                           #78.15
..LN45:
	.loc    1  85  is_stmt 1
        movq      %rdi, 432(%rsp)                               #85.5
..LN46:
	.loc    1  82  is_stmt 1
        lea       (%rcx,%rbp,8), %r15                           #82.15
..LN47:
	.loc    1  85  is_stmt 1
        movl      %esi, 392(%rsp)                               #85.5
..LN48:
	.loc    1  80  is_stmt 1
        lea       (%rcx,%r11,8), %rbp                           #80.15
..LN49:
	.loc    1  85  is_stmt 1
        movq      %rdx, 384(%rsp)                               #85.5
..LN50:
	.loc    1  76  is_stmt 1
        lea       (%rdx,%r11,8), %r12                           #76.15
..LN51:
	.loc    1  85  is_stmt 1
        movq      %rcx, 376(%rsp)                               #85.5
..LN52:
        movq      %r8, 368(%rsp)                                #85.5
..LN53:
                                # LOE rbx rbp r12 r13 r14 r15
..B3.5:                         # Preds ..B3.7 ..B3.4
..L27:          # optimization report
                # %s was not vectorized: vector dependence prevents vectorization%s
                # VECTOR TRIP COUNT IS ESTIMATED CONSTANT
..LN54:
	.loc    1  84  is_stmt 1
        lea       48(%rsp), %rdi                                #84.12
..LN55:
	.loc    1  76  is_stmt 1
        movq      (%r12,%r14,8), %rax                           #76.15
..LN56:
	.loc    1  84  is_stmt 1
        lea       208(%rsp), %rsi                               #84.12
..LN57:
	.loc    1  83  is_stmt 1
        movq      8(%r15,%r14,8), %rdx                          #83.15
..LN58:
	.loc    1  76  is_stmt 1
        movq      %rax, (%rdi)                                  #76.5
..LN59:
	.loc    1  77  is_stmt 1
        movq      8(%r12,%r14,8), %rcx                          #77.15
..LN60:
	.loc    1  78  is_stmt 1
        movq      16(%r13,%r14,8), %r8                          #78.15
..LN61:
	.loc    1  79  is_stmt 1
        movq      8(%r13,%r14,8), %r9                           #79.15
..LN62:
	.loc    1  80  is_stmt 1
        movq      (%rbp,%r14,8), %r10                           #80.15
..LN63:
	.loc    1  81  is_stmt 1
        movq      8(%rbp,%r14,8), %r11                          #81.15
..LN64:
	.loc    1  82  is_stmt 1
        movq      16(%r15,%r14,8), %rax                         #82.15
..LN65:
	.loc    1  83  is_stmt 1
        movq      %rdx, 24(%rsi)                                #83.5
..LN66:
	.loc    1  84  is_stmt 1
        movl      $4, %edx                                      #84.12
..LN67:
        vmovsd    .L_2il0floatpacket.0(%rip), %xmm0             #84.12
..LN68:
	.loc    1  77  is_stmt 1
        movq      %rcx, 8(%rdi)                                 #77.5
..LN69:
	.loc    1  78  is_stmt 1
        movq      %r8, 16(%rdi)                                 #78.5
..LN70:
	.loc    1  79  is_stmt 1
        movq      %r9, 24(%rdi)                                 #79.5
..LN71:
	.loc    1  80  is_stmt 1
        movq      %r10, (%rsi)                                  #80.5
..LN72:
	.loc    1  81  is_stmt 1
        movq      %r11, 8(%rsi)                                 #81.5
..LN73:
	.loc    1  82  is_stmt 1
        movq      %rax, 16(%rsi)                                #82.5
..___tag_value_get_grid_area_.28:
..LN74:
	.loc    1  84  is_stmt 1
#       fix_lon(double *, double *, int, double)
        call      fix_lon                                       #84.12
..___tag_value_get_grid_area_.29:
..LN75:
                                # LOE rbx rbp r12 r13 r14 r15 eax
..B3.6:                         # Preds ..B3.5
..LN76:
	.loc    1  85  is_stmt 1
        movl      %eax, %edx                                    #85.20
..LN77:
        lea       48(%rsp), %rdi                                #85.20
..LN78:
        lea       208(%rsp), %rsi                               #85.20
..___tag_value_get_grid_area_.30:
..LN79:
#       poly_area(const double *, const double *, int)
        call      poly_area                                     #85.20
..___tag_value_get_grid_area_.31:
..LN80:
                                # LOE rbx rbp r12 r13 r14 r15 xmm0
..B3.7:                         # Preds ..B3.6
..LN81:
        vmovsd    %xmm0, (%rbx,%r14,8)                          #85.5
..LN82:
	.loc    1  75  is_stmt 1
        incq      %r14                                          #75.40
..LN83:
        cmpq      432(%rsp), %r14                               #75.36
..LN84:
        jl        ..B3.5        # Prob 82%                      #75.36
..LN85:
                                # LOE rbx rbp r12 r13 r14 r15
..B3.8:                         # Preds ..B3.7
..LN86:
        movl      408(%rsp), %r10d                              #
..LN87:
        incl      %r10d                                         #75.18
..LN88:
        movq      416(%rsp), %rax                               #
..LN89:
        movq      432(%rsp), %rdi                               #
..LN90:
        addq      %rdi, %rax                                    #75.18
..LN91:
        movl      400(%rsp), %r9d                               #
..LN92:
        movl      424(%rsp), %r11d                              #
..LN93:
        movl      392(%rsp), %esi                               #
..LN94:
        lea       1(%r11,%rsi), %r11d                           #75.18
..LN95:
        movq      384(%rsp), %rdx                               #
..LN96:
        movq      376(%rsp), %rcx                               #
..LN97:
        movq      368(%rsp), %r8                                #
..LN98:
        cmpl      %r9d, %r10d                                   #75.14
..LN99:
        jl        ..B3.3        # Prob 82%                      #75.14
..LN100:
                                # LOE rax rdx rcx rdi r8 esi r9d r10d r11d
..B3.9:                         # Preds ..B3.11 ..B3.8          # Infreq
..LN101:
        movq      (%rsp), %r12                                  #
	.cfi_restore 12
..LN102:
        movq      8(%rsp), %r13                                 #
	.cfi_restore 13
..LN103:
        movq      16(%rsp), %r14                                #
	.cfi_restore 14
..LN104:
        movq      24(%rsp), %r15                                #
	.cfi_restore 15
..LN105:
        movq      32(%rsp), %rbx                                #
	.cfi_restore 3
..LN106:
        movq      40(%rsp), %rbp                                #
	.cfi_restore 6
..LN107:
                                # LOE rbx rbp r12 r13 r14 r15
..B3.10:                        # Preds ..B3.9 ..B3.1           # Infreq
..LN108:
	.loc    1  64  epilogue_begin  is_stmt 1
        addq      $440, %rsp                                    #64.1
	.cfi_def_cfa_offset 8
..LN109:
        ret                                                     #64.1
	.cfi_def_cfa_offset 448
	.cfi_offset 3, -416
	.cfi_offset 6, -408
	.cfi_offset 12, -448
	.cfi_offset 13, -440
	.cfi_offset 14, -432
	.cfi_offset 15, -424
..LN110:
                                # LOE
..B3.11:                        # Preds ..B3.3                  # Infreq
..LN111:
	.loc    1  75  is_stmt 1
        incl      %r10d                                         #75.18
..LN112:
        addq      %rdi, %rax                                    #75.18
..LN113:
        lea       1(%r11,%rsi), %r11d                           #75.18
..LN114:
        cmpl      %r9d, %r10d                                   #75.14
..LN115:
        jl        ..B3.3        # Prob 82%                      #75.14
..LN116:
        jmp       ..B3.9        # Prob 100%                     #75.14
..LN117:
        .align    16,0x90
	.cfi_endproc
..LN118:
                                # LOE rax rdx rcx rdi r8 esi r9d r10d r11d
..LN119:
# mark_end;
	.type	get_grid_area_,@function
	.size	get_grid_area_,.-get_grid_area_
..LNget_grid_area_.120:
.LNget_grid_area_:
	.data
# -- End  get_grid_area_
	.text
.L_2__routine_start_get_grid_area_3:
# -- Begin  get_grid_area
	.text
# mark_begin;
       .align    16,0x90
	.globl get_grid_area
# --- get_grid_area(const int *, const int *, const double *, const double *, double *)
get_grid_area:
# parameter 1(nlon): %rdi
# parameter 2(nlat): %rsi
# parameter 3(lon): %rdx
# parameter 4(lat): %rcx
# parameter 5(area): %r8
..B4.1:                         # Preds ..B4.0
	.cfi_startproc
..___tag_value_get_grid_area.51:
..L52:
                                                         #67.1
..LN121:
	.loc    1  67  is_stmt 1
        subq      $440, %rsp                                    #67.1
	.cfi_def_cfa_offset 448
..LN122:
        movq      %rsi, %rax                                    #67.1
..LN123:
	.loc    1  71  prologue_end  is_stmt 1
        movl      (%rdi), %esi                                  #71.9
..LN124:
	.loc    1  75  is_stmt 1
        xorl      %r10d, %r10d                                  #75.7
..LN125:
        movslq    %esi, %rdi                                    #75.18
..LN126:
	.loc    1  72  is_stmt 1
        movl      (%rax), %r9d                                  #72.9
..LN127:
	.loc    1  75  is_stmt 1
        xorl      %eax, %eax                                    #75.9
..LN128:
        testl     %r9d, %r9d                                    #75.14
..LN129:
        jle       ..B4.10       # Prob 10%                      #75.14
..LN130:
                                # LOE rax rdx rcx rbx rbp rdi r8 r12 r13 r14 r15 esi r9d r10d
..B4.2:                         # Preds ..B4.1
..LN131:
        movq      %r12, (%rsp)                                  #75.9
..LN132:
        xorl      %r11d, %r11d                                  #75.9
..LN133:
        movq      %r13, 8(%rsp)                                 #75.9
..LN134:
        movq      %r14, 16(%rsp)                                #75.9
..LN135:
        movq      %r15, 24(%rsp)                                #75.9
..LN136:
        movq      %rbx, 32(%rsp)                                #75.9
..LN137:
        movq      %rbp, 40(%rsp)                                #75.9
	.cfi_offset 3, -416
	.cfi_offset 6, -408
	.cfi_offset 12, -448
	.cfi_offset 13, -440
	.cfi_offset 14, -432
	.cfi_offset 15, -424
..LN138:
                                # LOE rax rdx rcx rdi r8 esi r9d r10d r11d
..B4.3:                         # Preds ..B4.8 ..B4.11 ..B4.2
..L61:          # optimization report
                # %s was not vectorized: vector dependence prevents vectorization%s
                # VECTOR TRIP COUNT IS ESTIMATED CONSTANT
..LN139:
        xorl      %r14d, %r14d                                  #75.27
..LN140:
        testl     %esi, %esi                                    #75.36
..LN141:
        jle       ..B4.11       # Prob 10%                      #75.36
..LN142:
                                # LOE rax rdx rcx rdi r8 r14 esi r9d r10d r11d
..B4.4:                         # Preds ..B4.3
..LN143:
	.loc    1  85  is_stmt 1
        movq      %rax, 416(%rsp)                               #85.5
..LN144:
	.loc    1  78  is_stmt 1
        lea       (%rsi,%r11), %ebp                             #78.25
..LN145:
        movslq    %ebp, %rbp                                    #78.15
..LN146:
	.loc    1  85  is_stmt 1
        lea       (%r8,%rax,8), %rbx                            #85.5
..LN147:
	.loc    1  76  is_stmt 1
        movslq    %r11d, %r11                                   #76.15
..LN148:
	.loc    1  85  is_stmt 1
        movl      %r11d, 424(%rsp)                              #85.5
..LN149:
        movl      %r10d, 408(%rsp)                              #85.5
..LN150:
        movl      %r9d, 400(%rsp)                               #85.5
..LN151:
	.loc    1  78  is_stmt 1
        lea       (%rdx,%rbp,8), %r13                           #78.15
..LN152:
	.loc    1  85  is_stmt 1
        movq      %rdi, 432(%rsp)                               #85.5
..LN153:
	.loc    1  82  is_stmt 1
        lea       (%rcx,%rbp,8), %r15                           #82.15
..LN154:
	.loc    1  85  is_stmt 1
        movl      %esi, 392(%rsp)                               #85.5
..LN155:
	.loc    1  80  is_stmt 1
        lea       (%rcx,%r11,8), %rbp                           #80.15
..LN156:
	.loc    1  85  is_stmt 1
        movq      %rdx, 384(%rsp)                               #85.5
..LN157:
	.loc    1  76  is_stmt 1
        lea       (%rdx,%r11,8), %r12                           #76.15
..LN158:
	.loc    1  85  is_stmt 1
        movq      %rcx, 376(%rsp)                               #85.5
..LN159:
        movq      %r8, 368(%rsp)                                #85.5
..LN160:
                                # LOE rbx rbp r12 r13 r14 r15
..B4.5:                         # Preds ..B4.7 ..B4.4
..L62:          # optimization report
                # %s was not vectorized: vector dependence prevents vectorization%s
                # VECTOR TRIP COUNT IS ESTIMATED CONSTANT
..LN161:
	.loc    1  84  is_stmt 1
        lea       48(%rsp), %rdi                                #84.12
..LN162:
	.loc    1  76  is_stmt 1
        movq      (%r12,%r14,8), %rax                           #76.15
..LN163:
	.loc    1  84  is_stmt 1
        lea       208(%rsp), %rsi                               #84.12
..LN164:
	.loc    1  83  is_stmt 1
        movq      8(%r15,%r14,8), %rdx                          #83.15
..LN165:
	.loc    1  76  is_stmt 1
        movq      %rax, (%rdi)                                  #76.5
..LN166:
	.loc    1  77  is_stmt 1
        movq      8(%r12,%r14,8), %rcx                          #77.15
..LN167:
	.loc    1  78  is_stmt 1
        movq      16(%r13,%r14,8), %r8                          #78.15
..LN168:
	.loc    1  79  is_stmt 1
        movq      8(%r13,%r14,8), %r9                           #79.15
..LN169:
	.loc    1  80  is_stmt 1
        movq      (%rbp,%r14,8), %r10                           #80.15
..LN170:
	.loc    1  81  is_stmt 1
        movq      8(%rbp,%r14,8), %r11                          #81.15
..LN171:
	.loc    1  82  is_stmt 1
        movq      16(%r15,%r14,8), %rax                         #82.15
..LN172:
	.loc    1  83  is_stmt 1
        movq      %rdx, 24(%rsi)                                #83.5
..LN173:
	.loc    1  84  is_stmt 1
        movl      $4, %edx                                      #84.12
..LN174:
        vmovsd    .L_2il0floatpacket.0(%rip), %xmm0             #84.12
..LN175:
	.loc    1  77  is_stmt 1
        movq      %rcx, 8(%rdi)                                 #77.5
..LN176:
	.loc    1  78  is_stmt 1
        movq      %r8, 16(%rdi)                                 #78.5
..LN177:
	.loc    1  79  is_stmt 1
        movq      %r9, 24(%rdi)                                 #79.5
..LN178:
	.loc    1  80  is_stmt 1
        movq      %r10, (%rsi)                                  #80.5
..LN179:
	.loc    1  81  is_stmt 1
        movq      %r11, 8(%rsi)                                 #81.5
..LN180:
	.loc    1  82  is_stmt 1
        movq      %rax, 16(%rsi)                                #82.5
..___tag_value_get_grid_area.63:
..LN181:
	.loc    1  84  is_stmt 1
#       fix_lon(double *, double *, int, double)
        call      fix_lon                                       #84.12
..___tag_value_get_grid_area.64:
..LN182:
                                # LOE rbx rbp r12 r13 r14 r15 eax
..B4.6:                         # Preds ..B4.5
..LN183:
	.loc    1  85  is_stmt 1
        movl      %eax, %edx                                    #85.20
..LN184:
        lea       48(%rsp), %rdi                                #85.20
..LN185:
        lea       208(%rsp), %rsi                               #85.20
..___tag_value_get_grid_area.65:
..LN186:
#       poly_area(const double *, const double *, int)
        call      poly_area                                     #85.20
..___tag_value_get_grid_area.66:
..LN187:
                                # LOE rbx rbp r12 r13 r14 r15 xmm0
..B4.7:                         # Preds ..B4.6
..LN188:
        vmovsd    %xmm0, (%rbx,%r14,8)                          #85.5
..LN189:
	.loc    1  75  is_stmt 1
        incq      %r14                                          #75.40
..LN190:
        cmpq      432(%rsp), %r14                               #75.36
..LN191:
        jl        ..B4.5        # Prob 82%                      #75.36
..LN192:
                                # LOE rbx rbp r12 r13 r14 r15
..B4.8:                         # Preds ..B4.7
..LN193:
        movl      408(%rsp), %r10d                              #
..LN194:
        incl      %r10d                                         #75.18
..LN195:
        movq      416(%rsp), %rax                               #
..LN196:
        movq      432(%rsp), %rdi                               #
..LN197:
        addq      %rdi, %rax                                    #75.18
..LN198:
        movl      400(%rsp), %r9d                               #
..LN199:
        movl      424(%rsp), %r11d                              #
..LN200:
        movl      392(%rsp), %esi                               #
..LN201:
        lea       1(%r11,%rsi), %r11d                           #75.18
..LN202:
        movq      384(%rsp), %rdx                               #
..LN203:
        movq      376(%rsp), %rcx                               #
..LN204:
        movq      368(%rsp), %r8                                #
..LN205:
        cmpl      %r9d, %r10d                                   #75.14
..LN206:
        jl        ..B4.3        # Prob 82%                      #75.14
..LN207:
                                # LOE rax rdx rcx rdi r8 esi r9d r10d r11d
..B4.9:                         # Preds ..B4.11 ..B4.8          # Infreq
..LN208:
        movq      (%rsp), %r12                                  #
	.cfi_restore 12
..LN209:
        movq      8(%rsp), %r13                                 #
	.cfi_restore 13
..LN210:
        movq      16(%rsp), %r14                                #
	.cfi_restore 14
..LN211:
        movq      24(%rsp), %r15                                #
	.cfi_restore 15
..LN212:
        movq      32(%rsp), %rbx                                #
	.cfi_restore 3
..LN213:
        movq      40(%rsp), %rbp                                #
	.cfi_restore 6
..LN214:
                                # LOE rbx rbp r12 r13 r14 r15
..B4.10:                        # Preds ..B4.9 ..B4.1           # Infreq
..LN215:
	.loc    1  88  epilogue_begin  is_stmt 1
        addq      $440, %rsp                                    #88.1
	.cfi_def_cfa_offset 8
..LN216:
        ret                                                     #88.1
	.cfi_def_cfa_offset 448
	.cfi_offset 3, -416
	.cfi_offset 6, -408
	.cfi_offset 12, -448
	.cfi_offset 13, -440
	.cfi_offset 14, -432
	.cfi_offset 15, -424
..LN217:
                                # LOE
..B4.11:                        # Preds ..B4.3                  # Infreq
..LN218:
	.loc    1  75  is_stmt 1
        incl      %r10d                                         #75.18
..LN219:
        addq      %rdi, %rax                                    #75.18
..LN220:
        lea       1(%r11,%rsi), %r11d                           #75.18
..LN221:
        cmpl      %r9d, %r10d                                   #75.14
..LN222:
        jl        ..B4.3        # Prob 82%                      #75.14
..LN223:
        jmp       ..B4.9        # Prob 100%                     #75.14
..LN224:
        .align    16,0x90
	.cfi_endproc
..LN225:
                                # LOE rax rdx rcx rdi r8 esi r9d r10d r11d
..LN226:
# mark_end;
	.type	get_grid_area,@function
	.size	get_grid_area,.-get_grid_area
..LNget_grid_area.227:
.LNget_grid_area:
	.data
# -- End  get_grid_area
	.text
.L_2__routine_start_get_grid_area_no_adjust_4:
# -- Begin  get_grid_area_no_adjust
	.text
# mark_begin;
       .align    16,0x90
	.globl get_grid_area_no_adjust
# --- get_grid_area_no_adjust(const int *, const int *, const double *, const double *, double *)
get_grid_area_no_adjust:
# parameter 1(nlon): %rdi
# parameter 2(nlat): %rsi
# parameter 3(lon): %rdx
# parameter 4(lat): %rcx
# parameter 5(area): %r8
..B5.1:                         # Preds ..B5.0
	.cfi_startproc
..___tag_value_get_grid_area_no_adjust.86:
..L87:
                                                         #92.1
..LN228:
	.loc    1  92  is_stmt 1
        subq      $440, %rsp                                    #92.1
	.cfi_def_cfa_offset 448
..LN229:
        movq      %rsi, %rax                                    #92.1
..LN230:
	.loc    1  96  prologue_end  is_stmt 1
        movl      (%rdi), %esi                                  #96.9
..LN231:
	.loc    1  100  is_stmt 1
        xorl      %r10d, %r10d                                  #100.7
..LN232:
        movslq    %esi, %rdi                                    #100.18
..LN233:
	.loc    1  97  is_stmt 1
        movl      (%rax), %r9d                                  #97.9
..LN234:
	.loc    1  100  is_stmt 1
        xorl      %eax, %eax                                    #100.9
..LN235:
        testl     %r9d, %r9d                                    #100.14
..LN236:
        jle       ..B5.9        # Prob 10%                      #100.14
..LN237:
                                # LOE rax rdx rcx rbx rbp rdi r8 r12 r13 r14 r15 esi r9d r10d
..B5.2:                         # Preds ..B5.1
..LN238:
        movq      %r12, (%rsp)                                  #100.9
..LN239:
        xorl      %r11d, %r11d                                  #100.9
..LN240:
        movq      %r13, 8(%rsp)                                 #100.9
..LN241:
        movq      %r14, 16(%rsp)                                #100.9
..LN242:
        movq      %r15, 24(%rsp)                                #100.9
..LN243:
        movq      %rbx, 32(%rsp)                                #100.9
..LN244:
        movq      %rbp, 40(%rsp)                                #100.9
	.cfi_offset 3, -416
	.cfi_offset 6, -408
	.cfi_offset 12, -448
	.cfi_offset 13, -440
	.cfi_offset 14, -432
	.cfi_offset 15, -424
..LN245:
                                # LOE rax rdx rcx rdi r8 esi r9d r10d r11d
..B5.3:                         # Preds ..B5.7 ..B5.10 ..B5.2
..L96:          # optimization report
                # %s was not vectorized: vector dependence prevents vectorization%s
                # VECTOR TRIP COUNT IS ESTIMATED CONSTANT
..LN246:
        xorl      %r14d, %r14d                                  #100.27
..LN247:
        testl     %esi, %esi                                    #100.36
..LN248:
        jle       ..B5.10       # Prob 10%                      #100.36
..LN249:
                                # LOE rax rdx rcx rdi r8 r14 esi r9d r10d r11d
..B5.4:                         # Preds ..B5.3
..LN250:
	.loc    1  110  is_stmt 1
        movq      %rax, 416(%rsp)                               #110.5
..LN251:
	.loc    1  103  is_stmt 1
        lea       (%rsi,%r11), %ebp                             #103.25
..LN252:
        movslq    %ebp, %rbp                                    #103.15
..LN253:
	.loc    1  110  is_stmt 1
        lea       (%r8,%rax,8), %rbx                            #110.5
..LN254:
	.loc    1  101  is_stmt 1
        movslq    %r11d, %r11                                   #101.15
..LN255:
	.loc    1  110  is_stmt 1
        movl      %r11d, 424(%rsp)                              #110.5
..LN256:
        movl      %r10d, 408(%rsp)                              #110.5
..LN257:
        movl      %r9d, 400(%rsp)                               #110.5
..LN258:
	.loc    1  103  is_stmt 1
        lea       (%rdx,%rbp,8), %r13                           #103.15
..LN259:
	.loc    1  110  is_stmt 1
        movq      %rdi, 432(%rsp)                               #110.5
..LN260:
	.loc    1  107  is_stmt 1
        lea       (%rcx,%rbp,8), %r15                           #107.15
..LN261:
	.loc    1  110  is_stmt 1
        movl      %esi, 392(%rsp)                               #110.5
..LN262:
	.loc    1  105  is_stmt 1
        lea       (%rcx,%r11,8), %rbp                           #105.15
..LN263:
	.loc    1  110  is_stmt 1
        movq      %rdx, 384(%rsp)                               #110.5
..LN264:
	.loc    1  101  is_stmt 1
        lea       (%rdx,%r11,8), %r12                           #101.15
..LN265:
	.loc    1  110  is_stmt 1
        movq      %rcx, 376(%rsp)                               #110.5
..LN266:
        movq      %r8, 368(%rsp)                                #110.5
..LN267:
                                # LOE rbx rbp r12 r13 r14 r15
..B5.5:                         # Preds ..B5.6 ..B5.4
..L97:          # optimization report
                # %s was not vectorized: vector dependence prevents vectorization%s
                # VECTOR TRIP COUNT IS ESTIMATED CONSTANT
..LN268:
        lea       48(%rsp), %rdi                                #110.20
..LN269:
	.loc    1  101  is_stmt 1
        movq      (%r12,%r14,8), %rax                           #101.15
..LN270:
	.loc    1  110  is_stmt 1
        lea       208(%rsp), %rsi                               #110.20
..LN271:
	.loc    1  108  is_stmt 1
        movq      8(%r15,%r14,8), %rdx                          #108.15
..LN272:
	.loc    1  101  is_stmt 1
        movq      %rax, (%rdi)                                  #101.5
..LN273:
	.loc    1  102  is_stmt 1
        movq      8(%r12,%r14,8), %rcx                          #102.15
..LN274:
	.loc    1  103  is_stmt 1
        movq      16(%r13,%r14,8), %r8                          #103.15
..LN275:
	.loc    1  104  is_stmt 1
        movq      8(%r13,%r14,8), %r9                           #104.15
..LN276:
	.loc    1  105  is_stmt 1
        movq      (%rbp,%r14,8), %r10                           #105.15
..LN277:
	.loc    1  106  is_stmt 1
        movq      8(%rbp,%r14,8), %r11                          #106.15
..LN278:
	.loc    1  107  is_stmt 1
        movq      16(%r15,%r14,8), %rax                         #107.15
..LN279:
	.loc    1  108  is_stmt 1
        movq      %rdx, 24(%rsi)                                #108.5
..LN280:
	.loc    1  110  is_stmt 1
        movl      $4, %edx                                      #110.20
..LN281:
	.loc    1  102  is_stmt 1
        movq      %rcx, 8(%rdi)                                 #102.5
..LN282:
	.loc    1  103  is_stmt 1
        movq      %r8, 16(%rdi)                                 #103.5
..LN283:
	.loc    1  104  is_stmt 1
        movq      %r9, 24(%rdi)                                 #104.5
..LN284:
	.loc    1  105  is_stmt 1
        movq      %r10, (%rsi)                                  #105.5
..LN285:
	.loc    1  106  is_stmt 1
        movq      %r11, 8(%rsi)                                 #106.5
..LN286:
	.loc    1  107  is_stmt 1
        movq      %rax, 16(%rsi)                                #107.5
..___tag_value_get_grid_area_no_adjust.98:
..LN287:
	.loc    1  110  is_stmt 1
#       poly_area_no_adjust(const double *, const double *, int)
        call      poly_area_no_adjust                           #110.20
..___tag_value_get_grid_area_no_adjust.99:
..LN288:
                                # LOE rbx rbp r12 r13 r14 r15 xmm0
..B5.6:                         # Preds ..B5.5
..LN289:
        vmovsd    %xmm0, (%rbx,%r14,8)                          #110.5
..LN290:
	.loc    1  100  is_stmt 1
        incq      %r14                                          #100.40
..LN291:
        cmpq      432(%rsp), %r14                               #100.36
..LN292:
        jl        ..B5.5        # Prob 82%                      #100.36
..LN293:
                                # LOE rbx rbp r12 r13 r14 r15
..B5.7:                         # Preds ..B5.6
..LN294:
        movl      408(%rsp), %r10d                              #
..LN295:
        incl      %r10d                                         #100.18
..LN296:
        movq      416(%rsp), %rax                               #
..LN297:
        movq      432(%rsp), %rdi                               #
..LN298:
        addq      %rdi, %rax                                    #100.18
..LN299:
        movl      400(%rsp), %r9d                               #
..LN300:
        movl      424(%rsp), %r11d                              #
..LN301:
        movl      392(%rsp), %esi                               #
..LN302:
        lea       1(%r11,%rsi), %r11d                           #100.18
..LN303:
        movq      384(%rsp), %rdx                               #
..LN304:
        movq      376(%rsp), %rcx                               #
..LN305:
        movq      368(%rsp), %r8                                #
..LN306:
        cmpl      %r9d, %r10d                                   #100.14
..LN307:
        jl        ..B5.3        # Prob 82%                      #100.14
..LN308:
                                # LOE rax rdx rcx rdi r8 esi r9d r10d r11d
..B5.8:                         # Preds ..B5.10 ..B5.7          # Infreq
..LN309:
        movq      (%rsp), %r12                                  #
	.cfi_restore 12
..LN310:
        movq      8(%rsp), %r13                                 #
	.cfi_restore 13
..LN311:
        movq      16(%rsp), %r14                                #
	.cfi_restore 14
..LN312:
        movq      24(%rsp), %r15                                #
	.cfi_restore 15
..LN313:
        movq      32(%rsp), %rbx                                #
	.cfi_restore 3
..LN314:
        movq      40(%rsp), %rbp                                #
	.cfi_restore 6
..LN315:
                                # LOE rbx rbp r12 r13 r14 r15
..B5.9:                         # Preds ..B5.8 ..B5.1           # Infreq
..LN316:
	.loc    1  113  epilogue_begin  is_stmt 1
        addq      $440, %rsp                                    #113.1
	.cfi_def_cfa_offset 8
..LN317:
        ret                                                     #113.1
	.cfi_def_cfa_offset 448
	.cfi_offset 3, -416
	.cfi_offset 6, -408
	.cfi_offset 12, -448
	.cfi_offset 13, -440
	.cfi_offset 14, -432
	.cfi_offset 15, -424
..LN318:
                                # LOE
..B5.10:                        # Preds ..B5.3                  # Infreq
..LN319:
	.loc    1  100  is_stmt 1
        incl      %r10d                                         #100.18
..LN320:
        addq      %rdi, %rax                                    #100.18
..LN321:
        lea       1(%r11,%rsi), %r11d                           #100.18
..LN322:
        cmpl      %r9d, %r10d                                   #100.14
..LN323:
        jl        ..B5.3        # Prob 82%                      #100.14
..LN324:
        jmp       ..B5.8        # Prob 100%                     #100.14
..LN325:
        .align    16,0x90
	.cfi_endproc
..LN326:
                                # LOE rax rdx rcx rdi r8 esi r9d r10d r11d
..LN327:
# mark_end;
	.type	get_grid_area_no_adjust,@function
	.size	get_grid_area_no_adjust,.-get_grid_area_no_adjust
..LNget_grid_area_no_adjust.328:
.LNget_grid_area_no_adjust:
	.data
# -- End  get_grid_area_no_adjust
	.text
.L_2__routine_start_create_xgrid_1dx2d_order1__5:
# -- Begin  create_xgrid_1dx2d_order1_
	.text
# mark_begin;
       .align    16,0x90
	.globl create_xgrid_1dx2d_order1_
# --- create_xgrid_1dx2d_order1_(const int *, const int *, const int *, const int *, const double *, const double *, const double *, const double *, const double *, int *, int *, int *, int *, double *)
create_xgrid_1dx2d_order1_:
# parameter 1(nlon_in): %rdi
# parameter 2(nlat_in): %rsi
# parameter 3(nlon_out): %rdx
# parameter 4(nlat_out): %rcx
# parameter 5(lon_in): %r8
# parameter 6(lat_in): %r9
# parameter 7(lon_out): 16 + %rbp
# parameter 8(lat_out): 24 + %rbp
# parameter 9(mask_in): 32 + %rbp
# parameter 10(i_in): 40 + %rbp
# parameter 11(j_in): 48 + %rbp
# parameter 12(i_out): 56 + %rbp
# parameter 13(j_out): 64 + %rbp
# parameter 14(xgrid_area): 72 + %rbp
..B6.1:                         # Preds ..B6.0
	.cfi_startproc
..___tag_value_create_xgrid_1dx2d_order1_.119:
..L120:
                                                        #124.1
..LN329:
	.loc    1  124  is_stmt 1
        pushq     %rbp                                          #124.1
	.cfi_def_cfa_offset 16
..LN330:
        movq      %rsp, %rbp                                    #124.1
	.cfi_def_cfa 6, 16
	.cfi_offset 6, -16
..LN331:
        andq      $-32, %rsp                                    #124.1
..LN332:
        pushq     %r12                                          #124.1
..LN333:
        pushq     %r13                                          #124.1
..LN334:
        pushq     %r14                                          #124.1
..LN335:
        pushq     %r15                                          #124.1
..LN336:
        pushq     %rbx                                          #124.1
..LN337:
        subq      $2776, %rsp                                   #124.1
	.cfi_escape 0x10, 0x03, 0x0e, 0x38, 0x1c, 0x0d, 0xe0, 0xff, 0xff, 0xff, 0x1a, 0x0d, 0xd8, 0xff, 0xff, 0xff, 0x22
	.cfi_escape 0x10, 0x0c, 0x0e, 0x38, 0x1c, 0x0d, 0xe0, 0xff, 0xff, 0xff, 0x1a, 0x0d, 0xf8, 0xff, 0xff, 0xff, 0x22
	.cfi_escape 0x10, 0x0d, 0x0e, 0x38, 0x1c, 0x0d, 0xe0, 0xff, 0xff, 0xff, 0x1a, 0x0d, 0xf0, 0xff, 0xff, 0xff, 0x22
	.cfi_escape 0x10, 0x0e, 0x0e, 0x38, 0x1c, 0x0d, 0xe0, 0xff, 0xff, 0xff, 0x1a, 0x0d, 0xe8, 0xff, 0xff, 0xff, 0x22
	.cfi_escape 0x10, 0x0f, 0x0e, 0x38, 0x1c, 0x0d, 0xe0, 0xff, 0xff, 0xff, 0x1a, 0x0d, 0xe0, 0xff, 0xff, 0xff, 0x22
..LN338:
        movq      %rdi, %rbx                                    #124.1
..LN339:
        movq      %rsi, %r12                                    #124.1
..LN340:
        movq      %rdx, %r13                                    #124.1
..LN341:
        movq      %rcx, %r15                                    #124.1
..LN342:
        movq      %r9, 2592(%rsp)                               #124.1
..LN343:
	.loc    1  145  prologue_end  is_stmt 1
        movl      (%rbx), %edi                                  #145.10
..LN344:
        movl      %edi, 2184(%rsp)                              #145.10
..LN345:
	.loc    1  172  is_stmt 1
        movslq    %edi, %rdi                                    #172.21
..LN346:
        movq      %rdi, 2608(%rsp)                              #172.21
..LN347:
	.loc    1  146  is_stmt 1
        movl      (%r12), %r11d                                 #146.10
..LN348:
	.loc    1  154  is_stmt 1
        imull     %r11d, %edi                                   #154.23
..LN349:
        movslq    %edi, %rdi                                    #154.23
..LN350:
	.loc    1  147  is_stmt 1
        movl      (%r13), %eax                                  #147.10
..LN351:
	.loc    1  148  is_stmt 1
        movl      (%r15), %r10d                                 #148.10
..LN352:
	.loc    1  154  is_stmt 1
        shlq      $3, %rdi                                      #154.23
..LN353:
	.loc    1  147  is_stmt 1
        movl      %eax, 2648(%rsp)                              #147.10
..LN354:
	.loc    1  176  is_stmt 1
        movslq    %eax, %rax                                    #176.23
..LN355:
	.loc    1  124  is_stmt 1
        movq      %r8, 2600(%rsp)                               #124.1
..LN356:
	.loc    1  146  is_stmt 1
        movl      %r11d, 2168(%rsp)                             #146.10
..LN357:
	.loc    1  176  is_stmt 1
        movq      %rax, 2752(%rsp)                              #176.23
..LN358:
	.loc    1  148  is_stmt 1
        movl      %r10d, 2640(%rsp)                             #148.10
..LN359:
	.loc    1  150  is_stmt 1
        movq      $0, 2624(%rsp)                                #150.3
..LN360:
	.loc    1  154  is_stmt 1
#       malloc(size_t)
        call      malloc                                        #154.23
..LN361:
                                # LOE rax rbx r12 r13 r15
..B6.130:                       # Preds ..B6.1
..LN362:
        movq      %rax, 2160(%rsp)                              #154.23
..LN363:
                                # LOE rbx r12 r13 r15
..B6.2:                         # Preds ..B6.130
..LN364:
	.loc    1  155  is_stmt 1
        movl      2648(%rsp), %edi                              #155.24
..LN365:
        imull     2640(%rsp), %edi                              #155.24
..LN366:
        movslq    %edi, %rdi                                    #155.24
..LN367:
        shlq      $3, %rdi                                      #155.24
..LN368:
#       malloc(size_t)
        call      malloc                                        #155.24
..LN369:
                                # LOE rax rbx r12 r13 r15
..B6.131:                       # Preds ..B6.2
..LN370:
        movq      %rax, %r14                                    #155.24
..LN371:
                                # LOE rbx r12 r13 r14 r15
..B6.3:                         # Preds ..B6.131
..LN372:
	.loc    1  156  is_stmt 1
        movl      2184(%rsp), %eax                              #156.32
..LN373:
        movl      2168(%rsp), %edx                              #156.40
..LN374:
        lea       1(%rax), %edi                                 #156.32
..LN375:
        movl      %edi, 24(%rsp)                                #156.32
..LN376:
        lea       1(%rdx), %ecx                                 #156.40
..LN377:
	.loc    1  158  is_stmt 1
        movslq    %edi, %rdi                                    #158.32
..LN378:
        movq      %rdi, 32(%rsp)                                #158.32
..LN379:
	.loc    1  156  is_stmt 1
        imull     %ecx, %edi                                    #156.40
..LN380:
        movslq    %edi, %rdi                                    #156.40
..LN381:
        shlq      $3, %rdi                                      #156.43
..LN382:
        movl      %ecx, 40(%rsp)                                #156.40
..LN383:
        movq      %rdi, (%rsp)                                  #156.43
..LN384:
#       malloc(size_t)
        call      malloc                                        #156.20
..LN385:
                                # LOE rax rbx r12 r13 r14 r15
..B6.132:                       # Preds ..B6.3
..LN386:
        movq      %rax, 960(%rsp)                               #156.20
..LN387:
                                # LOE rbx r12 r13 r14 r15
..B6.4:                         # Preds ..B6.132
..LN388:
	.loc    1  157  is_stmt 1
        movq      (%rsp), %rdi                                  #157.20
..LN389:
#       malloc(size_t)
        call      malloc                                        #157.20
..LN390:
                                # LOE rax rbx r12 r13 r14 r15
..B6.133:                       # Preds ..B6.4
..LN391:
        movq      %rax, 968(%rsp)                               #157.20
..LN392:
                                # LOE rbx r12 r13 r14 r15
..B6.5:                         # Preds ..B6.133
..LN393:
	.loc    1  158  is_stmt 1
        xorl      %r9d, %r9d                                    #158.32
..LN394:
        xorl      %r8d, %r8d                                    #158.3
..LN395:
        xorl      %r10d, %r10d                                  #158.32
..LN396:
        cmpl      $0, 2168(%rsp)                                #158.17
..LN397:
        jl        ..B6.48       # Prob 9%                       #158.17
..LN398:
                                # LOE rbx r9 r10 r12 r13 r14 r15 r8d
..B6.6:                         # Preds ..B6.5
..LN399:
        movq      2608(%rsp), %rsi                              #158.28
..LN400:
        movq      %rbx, 8(%rsp)                                 #158.28
..LN401:
        movq      %r14, 2656(%rsp)                              #158.28
..LN402:
        movq      %r12, 16(%rsp)                                #158.28
..LN403:
        lea       1(%rsi), %r11                                 #158.28
..LN404:
        movl      %r11d, %esi                                   #158.28
..LN405:
        movl      %esi, %eax                                    #158.28
..LN406:
        andl      $-4, %eax                                     #158.28
..LN407:
        movslq    %eax, %rax                                    #158.28
..LN408:
        movq      %rax, (%rsp)                                  #158.28
..LN409:
        movq      %r13, 640(%rsp)                               #158.28
..LN410:
        movq      %r15, 648(%rsp)                               #158.28
..LN411:
        movq      968(%rsp), %rax                               #158.28
..LN412:
        movq      960(%rsp), %rdx                               #158.28
..LN413:
        movl      24(%rsp), %ebx                                #158.28
..LN414:
        movq      2592(%rsp), %rcx                              #158.28
..LN415:
                                # LOE rax rdx rcx r9 r10 r11 ebx esi r8d
..B6.7:                         # Preds ..B6.46 ..B6.6
..L130:         # optimization report
                # %s was not vectorized: inner loop was already vectorized
..LN416:
        cmpl      $0, 2184(%rsp)                                #158.42
..LN417:
        jl        ..B6.46       # Prob 50%                      #158.42
..LN418:
                                # LOE rax rdx rcx r9 r10 r11 ebx esi r8d
..B6.8:                         # Preds ..B6.7
..LN419:
        cmpq      $4, %r11                                      #158.28
..LN420:
        jl        ..B6.124      # Prob 10%                      #158.28
..LN421:
                                # LOE rax rdx rcx r9 r10 r11 ebx esi r8d
..B6.9:                         # Preds ..B6.8
..LN422:
	.loc    1  159  is_stmt 1
        lea       (%rdx,%r9,8), %r13                            #159.5
..LN423:
	.loc    1  158  is_stmt 1
        cmpq      $95, %r11                                     #158.28
..LN424:
        jl        ..B6.126      # Prob 10%                      #158.28
..LN425:
                                # LOE rax rdx rcx r9 r10 r11 r13 ebx esi r8d
..B6.10:                        # Preds ..B6.9
..LN426:
        movq      %r13, %r14                                    #158.28
..LN427:
        andq      $31, %r14                                     #158.28
..LN428:
        testl     %r14d, %r14d                                  #158.28
..LN429:
        je        ..B6.13       # Prob 50%                      #158.28
..LN430:
                                # LOE rax rdx rcx r9 r10 r11 r13 ebx esi r8d r14d
..B6.11:                        # Preds ..B6.10
..LN431:
        testl     $7, %r14d                                     #158.28
..LN432:
        jne       ..B6.124      # Prob 10%                      #158.28
..LN433:
                                # LOE rax rdx rcx r9 r10 r11 r13 ebx esi r8d r14d
..B6.12:                        # Preds ..B6.11
..LN434:
        negl      %r14d                                         #158.28
..LN435:
        addl      $32, %r14d                                    #158.28
..LN436:
        shrl      $3, %r14d                                     #158.28
..LN437:
                                # LOE rax rdx rcx r9 r10 r11 r13 ebx esi r8d r14d
..B6.13:                        # Preds ..B6.12 ..B6.10
..LN438:
        movl      %r14d, %r12d                                  #158.28
..LN439:
        lea       4(%r12), %rdi                                 #158.28
..LN440:
        cmpq      %rdi, %r11                                    #158.28
..LN441:
        jl        ..B6.124      # Prob 10%                      #158.28
..LN442:
                                # LOE rax rdx rcx r9 r10 r11 r12 r13 ebx esi r8d r14d
..B6.14:                        # Preds ..B6.13
..LN443:
        negl      %r14d                                         #158.28
..LN444:
        xorl      %edi, %edi                                    #158.28
..LN445:
        addl      %esi, %r14d                                   #158.28
..LN446:
        andl      $3, %r14d                                     #158.28
..LN447:
        negl      %r14d                                         #158.28
..LN448:
        addl      %esi, %r14d                                   #158.28
..LN449:
        movslq    %r14d, %r14                                   #158.28
..LN450:
        testq     %r12, %r12                                    #158.28
..LN451:
        jbe       ..B6.18       # Prob 10%                      #158.28
..LN452:
                                # LOE rax rdx rcx rdi r9 r10 r11 r12 r13 r14 ebx esi r8d
..B6.15:                        # Preds ..B6.14
..LN453:
        movq      2600(%rsp), %r15                              #
..LN454:
                                # LOE rax rdx rdi r9 r10 r11 r12 r13 r14 r15 ebx esi r8d
..B6.16:                        # Preds ..B6.16 ..B6.15
..L131:         # optimization report
                # LOOP WAS DISTRIBUTED, CHUNK 1
                # LOOP WAS UNROLLED BY 1
                # PEELED LOOP FOR VECTORIZATION
                # VECTORIZATION SPEEDUP COEFFECIENT 8.601562
                # VECTOR TRIP COUNT IS ESTIMATED CONSTANT
                # VECTOR LENGTH 4
                # NORMALIZED VECTORIZATION OVERHEAD 3.250000
..LN455:
	.loc    1  159  is_stmt 1
        movq      (%r15,%rdi,8), %rcx                           #159.24
..LN456:
        movq      %rcx, (%r13,%rdi,8)                           #159.5
..LN457:
	.loc    1  158  is_stmt 1
        incq      %rdi                                          #158.28
..LN458:
        cmpq      %r12, %rdi                                    #158.28
..LN459:
        jb        ..B6.16       # Prob 82%                      #158.28
..LN460:
                                # LOE rax rdx rdi r9 r10 r11 r12 r13 r14 r15 ebx esi r8d
..B6.17:                        # Preds ..B6.16
..LN461:
        movq      2592(%rsp), %rcx                              #
..LN462:
                                # LOE rax rdx rcx r9 r10 r11 r12 r13 r14 ebx esi r8d
..B6.18:                        # Preds ..B6.17 ..B6.14 ..B6.126
..LN463:
        movq      2600(%rsp), %rdi                              #
..LN464:
                                # LOE rax rdx rcx rdi r9 r10 r11 r12 r13 r14 ebx esi r8d
..B6.19:                        # Preds ..B6.19 ..B6.18
..L132:         # optimization report
                # LOOP WAS DISTRIBUTED, CHUNK 1
                # LOOP WAS UNROLLED BY 1
                # LOOP WAS VECTORIZED
                # VECTORIZATION HAS UNALIGNED MEMORY REFERENCES
                # VECTORIZATION SPEEDUP COEFFECIENT 8.601562
                # VECTOR TRIP COUNT IS ESTIMATED CONSTANT
                # VECTOR LENGTH 4
                # NORMALIZED VECTORIZATION OVERHEAD 3.250000
                # MAIN VECTOR TYPE: 64-bits floating point
..LN465:
	.loc    1  159  is_stmt 1
        vmovupd   (%rdi,%r12,8), %ymm0                          #159.24
..LN466:
        vmovupd   %ymm0, (%r13,%r12,8)                          #159.5
..LN467:
	.loc    1  158  is_stmt 1
        addq      $4, %r12                                      #158.28
..LN468:
        cmpq      %r14, %r12                                    #158.28
..LN469:
        jb        ..B6.19       # Prob 82%                      #158.28
..LN470:
                                # LOE rax rdx rcx rdi r9 r10 r11 r12 r13 r14 ebx esi r8d
..B6.21:                        # Preds ..B6.19 ..B6.124
..LN471:
        cmpq      %r11, %r14                                    #158.28
..LN472:
        jae       ..B6.25       # Prob 10%                      #158.28
..LN473:
                                # LOE rax rdx rcx r9 r10 r11 r14 ebx esi r8d
..B6.22:                        # Preds ..B6.21
..LN474:
	.loc    1  159  is_stmt 1
        movq      2600(%rsp), %r13                              #159.5
..LN475:
        lea       (%rdx,%r9,8), %rdi                            #159.5
..LN476:
                                # LOE rax rdx rcx rdi r9 r10 r11 r13 r14 ebx esi r8d
..B6.23:                        # Preds ..B6.23 ..B6.22
..L133:         # optimization report
                # LOOP WAS DISTRIBUTED, CHUNK 1
                # LOOP WAS UNROLLED BY 1
                # REMAINDER LOOP FOR VECTORIZATION
                # VECTORIZATION SPEEDUP COEFFECIENT 8.601562
                # VECTOR TRIP COUNT IS ESTIMATED CONSTANT
                # VECTOR LENGTH 4
                # NORMALIZED VECTORIZATION OVERHEAD 3.250000
..LN477:
        movq      (%r13,%r14,8), %r12                           #159.24
..LN478:
        movq      %r12, (%rdi,%r14,8)                           #159.5
..LN479:
	.loc    1  158  is_stmt 1
        incq      %r14                                          #158.28
..LN480:
        cmpq      %r11, %r14                                    #158.28
..LN481:
        jb        ..B6.23       # Prob 82%                      #158.28
..LN482:
                                # LOE rax rdx rcx rdi r9 r10 r11 r13 r14 ebx esi r8d
..B6.25:                        # Preds ..B6.23 ..B6.21
..LN483:
        cmpl      $16, %ebx                                     #158.28
..LN484:
        jl        ..B6.121      # Prob 10%                      #158.28
..LN485:
                                # LOE rax rdx rcx r9 r10 r11 ebx esi r8d
..B6.26:                        # Preds ..B6.25
..LN486:
	.loc    1  160  is_stmt 1
        lea       (%rax,%r9,8), %rdi                            #160.5
..LN487:
	.loc    1  158  is_stmt 1
        movq      %rdi, %r13                                    #158.28
..LN488:
        andq      $31, %r13                                     #158.28
..LN489:
        movl      %r13d, %r13d                                  #158.28
..LN490:
        testl     %r13d, %r13d                                  #158.28
..LN491:
        je        ..B6.29       # Prob 50%                      #158.28
..LN492:
                                # LOE rax rdx rcx rdi r9 r10 r11 r13 ebx esi r8d
..B6.27:                        # Preds ..B6.26
..LN493:
        testl     $7, %r13d                                     #158.28
..LN494:
        jne       ..B6.121      # Prob 10%                      #158.28
..LN495:
                                # LOE rax rdx rcx rdi r9 r10 r11 r13 ebx esi r8d
..B6.28:                        # Preds ..B6.27
..LN496:
        negl      %r13d                                         #158.28
..LN497:
        addl      $32, %r13d                                    #158.28
..LN498:
        shrl      $3, %r13d                                     #158.28
..LN499:
                                # LOE rax rdx rcx rdi r9 r10 r11 r13 ebx esi r8d
..B6.29:                        # Preds ..B6.28 ..B6.26
..LN500:
        lea       16(%r13), %r12d                               #158.28
..LN501:
        cmpl      %r12d, %ebx                                   #158.28
..LN502:
        jl        ..B6.121      # Prob 10%                      #158.28
..LN503:
                                # LOE rax rdx rcx rdi r9 r10 r11 r13 ebx esi r8d
..B6.30:                        # Preds ..B6.29
..LN504:
        movl      %ebx, %r14d                                   #158.28
..LN505:
        xorl      %r12d, %r12d                                  #158.28
..LN506:
        subl      %r13d, %r14d                                  #158.28
..LN507:
        andl      $15, %r14d                                    #158.28
..LN508:
        negl      %r14d                                         #158.28
..LN509:
        addl      %ebx, %r14d                                   #158.28
..LN510:
	.loc    1  160  is_stmt 1
        vmovsd    (%rcx,%r10,8), %xmm0                          #160.24
..LN511:
	.loc    1  158  is_stmt 1
        testq     %r13, %r13                                    #158.28
..LN512:
        jbe       ..B6.34       # Prob 10%                      #158.28
..LN513:
                                # LOE rax rdx rcx rdi r9 r10 r11 r12 r13 ebx esi r8d r14d xmm0
..B6.32:                        # Preds ..B6.30 ..B6.32
..L134:         # optimization report
                # LOOP WAS DISTRIBUTED, CHUNK 2
                # LOOP WAS UNROLLED BY 4
                # PEELED LOOP FOR VECTORIZATION
                # VECTORIZATION SPEEDUP COEFFECIENT 8.648438
                # VECTOR TRIP COUNT IS ESTIMATED CONSTANT
                # VECTOR LENGTH 4
                # NORMALIZED VECTORIZATION OVERHEAD 0.937500
..LN514:
	.loc    1  160  is_stmt 1
        vmovsd    %xmm0, (%rdi,%r12,8)                          #160.5
..LN515:
	.loc    1  158  is_stmt 1
        incq      %r12                                          #158.28
..LN516:
        cmpq      %r13, %r12                                    #158.28
..LN517:
        jb        ..B6.32       # Prob 82%                      #158.28
..LN518:
                                # LOE rax rdx rcx rdi r9 r10 r11 r12 r13 ebx esi r8d r14d xmm0
..B6.34:                        # Preds ..B6.32 ..B6.30
..LN519:
        movslq    %r14d, %r12                                   #158.28
..LN520:
	.loc    1  160  is_stmt 1
        vbroadcastsd %xmm0, %ymm0                               #160.24
..LN521:
                                # LOE rax rdx rcx rdi r9 r10 r11 r12 r13 ebx esi r8d r14d ymm0
..B6.35:                        # Preds ..B6.35 ..B6.34
..L135:         # optimization report
                # LOOP WAS DISTRIBUTED, CHUNK 2
                # LOOP WAS UNROLLED BY 4
                # LOOP WAS VECTORIZED
                # VECTORIZATION SPEEDUP COEFFECIENT 8.648438
                # VECTOR TRIP COUNT IS ESTIMATED CONSTANT
                # VECTOR LENGTH 4
                # NORMALIZED VECTORIZATION OVERHEAD 0.937500
                # MAIN VECTOR TYPE: 64-bits floating point
..LN522:
        vmovupd   %ymm0, (%rdi,%r13,8)                          #160.5
..LN523:
        vmovupd   %ymm0, 32(%rdi,%r13,8)                        #160.5
..LN524:
        vmovupd   %ymm0, 64(%rdi,%r13,8)                        #160.5
..LN525:
        vmovupd   %ymm0, 96(%rdi,%r13,8)                        #160.5
..LN526:
	.loc    1  158  is_stmt 1
        addq      $16, %r13                                     #158.28
..LN527:
        cmpq      %r12, %r13                                    #158.28
..LN528:
        jb        ..B6.35       # Prob 82%                      #158.28
..LN529:
                                # LOE rax rdx rcx rdi r9 r10 r11 r12 r13 ebx esi r8d r14d ymm0
..B6.37:                        # Preds ..B6.35 ..B6.121
..LN530:
        lea       1(%r14), %edi                                 #158.28
..LN531:
        cmpl      %edi, %ebx                                    #158.28
..LN532:
        jb        ..B6.46       # Prob 50%                      #158.28
..LN533:
                                # LOE rax rdx rcx r9 r10 r11 ebx esi r8d r14d
..B6.38:                        # Preds ..B6.37
..LN534:
        movslq    %r14d, %r13                                   #158.28
..LN535:
        negq      %r13                                          #158.28
..LN536:
        addq      32(%rsp), %r13                                #158.28
..LN537:
        cmpq      $4, %r13                                      #158.28
..LN538:
        jl        ..B6.120      # Prob 10%                      #158.28
..LN539:
                                # LOE rax rdx rcx r9 r10 r11 r13 ebx esi r8d r14d
..B6.39:                        # Preds ..B6.38
..LN540:
	.loc    1  160  is_stmt 1
        movslq    %r14d, %r15                                   #160.5
..LN541:
	.loc    1  158  is_stmt 1
        movl      %r13d, %r12d                                  #158.28
..LN542:
	.loc    1  160  is_stmt 1
        addq      %r9, %r15                                     #160.5
..LN543:
	.loc    1  158  is_stmt 1
        andl      $-4, %r12d                                    #158.28
..LN544:
	.loc    1  160  is_stmt 1
        vbroadcastsd (%rcx,%r10,8), %ymm0                       #160.24
..LN545:
	.loc    1  158  is_stmt 1
        xorl      %edi, %edi                                    #158.28
..LN546:
        movslq    %r12d, %r12                                   #158.28
..LN547:
	.loc    1  160  is_stmt 1
        lea       (%rax,%r15,8), %r15                           #160.5
..LN548:
                                # LOE rax rdx rcx rdi r9 r10 r11 r12 r13 r15 ebx esi r8d r14d ymm0
..B6.40:                        # Preds ..B6.40 ..B6.39
..L136:         # optimization report
                # LOOP WAS DISTRIBUTED, CHUNK 2
                # LOOP WAS VECTORIZED
                # REMAINDER LOOP FOR VECTORIZATION
                # VECTORIZATION HAS UNALIGNED MEMORY REFERENCES
                # VECTORIZATION SPEEDUP COEFFECIENT 2.542969
                # VECTOR TRIP COUNT IS ESTIMATED CONSTANT
                # VECTOR LENGTH 4
                # NORMALIZED VECTORIZATION OVERHEAD 2.750000
                # MAIN VECTOR TYPE: 64-bits floating point
..LN549:
        vmovupd   %ymm0, (%r15,%rdi,8)                          #160.5
..LN550:
	.loc    1  158  is_stmt 1
        addq      $4, %rdi                                      #158.28
..LN551:
        cmpq      %r12, %rdi                                    #158.28
..LN552:
        jb        ..B6.40       # Prob 82%                      #158.28
..LN553:
                                # LOE rax rdx rcx rdi r9 r10 r11 r12 r13 r15 ebx esi r8d r14d ymm0
..B6.42:                        # Preds ..B6.40 ..B6.120
..LN554:
        cmpq      %r13, %r12                                    #158.28
..LN555:
        jae       ..B6.46       # Prob 10%                      #158.28
..LN556:
                                # LOE rax rdx rcx r9 r10 r11 r12 r13 ebx esi r8d r14d
..B6.43:                        # Preds ..B6.42
..LN557:
	.loc    1  160  is_stmt 1
        movslq    %r14d, %r14                                   #160.5
..LN558:
        addq      %r9, %r14                                     #160.5
..LN559:
        lea       (%rax,%r14,8), %rdi                           #160.5
..LN560:
        movq      (%rcx,%r10,8), %r14                           #160.24
..LN561:
                                # LOE rax rdx rcx rdi r9 r10 r11 r12 r13 r14 ebx esi r8d
..B6.44:                        # Preds ..B6.44 ..B6.43
..L137:         # optimization report
                # LOOP WAS DISTRIBUTED, CHUNK 2
                # REMAINDER LOOP FOR VECTORIZATION
                # VECTORIZATION SPEEDUP COEFFECIENT 2.542969
                # VECTOR TRIP COUNT IS ESTIMATED CONSTANT
                # VECTOR LENGTH 4
                # NORMALIZED VECTORIZATION OVERHEAD 2.750000
..LN562:
        movq      %r14, (%rdi,%r12,8)                           #160.5
..LN563:
	.loc    1  158  is_stmt 1
        incq      %r12                                          #158.28
..LN564:
        cmpq      %r13, %r12                                    #158.28
..LN565:
        jb        ..B6.44       # Prob 82%                      #158.28
..LN566:
                                # LOE rax rdx rcx rdi r9 r10 r11 r12 r13 r14 ebx esi r8d
..B6.46:                        # Preds ..B6.44 ..B6.7 ..B6.37 ..B6.42
..LN567:
        incl      %r8d                                          #158.3
..LN568:
        incq      %r10                                          #158.3
..LN569:
        addq      32(%rsp), %r9                                 #158.3
..LN570:
        cmpl      40(%rsp), %r8d                                #158.3
..LN571:
        jb        ..B6.7        # Prob 82%                      #158.3
..LN572:
                                # LOE rax rdx rcx r9 r10 r11 ebx esi r8d
..B6.47:                        # Preds ..B6.46
..LN573:
        movq      2656(%rsp), %r14                              #
..LN574:
        movq      8(%rsp), %rbx                                 #
..LN575:
        movq      16(%rsp), %r12                                #
..LN576:
        movq      640(%rsp), %r13                               #
..LN577:
        movq      648(%rsp), %r15                               #
..LN578:
                                # LOE rbx r12 r13 r14 r15
..B6.48:                        # Preds ..B6.5 ..B6.47
..LN579:
	.loc    1  163  is_stmt 1
        cmpl      $1, 2184(%rsp)                                #163.12
..LN580:
        jle       ..B6.57       # Prob 50%                      #163.12
..LN581:
                                # LOE rbx r12 r13 r14 r15
..B6.49:                        # Preds ..B6.48
..LN582:
	.loc    1  71  is_stmt 1
        movl      (%rbx), %r8d                                  #71.9
..LN583:
	.loc    1  75  is_stmt 1
        xorl      %ecx, %ecx                                    #75.7
..LN584:
	.loc    1  72  is_stmt 1
        movl      (%r12), %ebx                                  #72.9
..LN585:
	.loc    1  75  is_stmt 1
        xorl      %edx, %edx                                    #75.9
..LN586:
        movslq    %r8d, %rsi                                    #75.18
..LN587:
        testl     %ebx, %ebx                                    #75.14
..LN588:
        jle       ..B6.65       # Prob 10%                      #75.14
..LN589:
                                # LOE rdx rsi r13 r14 r15 ecx ebx r8d
..B6.50:                        # Preds ..B6.49
..LN590:
        movl      %ebx, 328(%rsp)                               #75.9
..LN591:
        xorl      %eax, %eax                                    #75.9
..LN592:
        movq      %r14, 2656(%rsp)                              #75.9
..LN593:
        movq      %r13, 640(%rsp)                               #75.9
..LN594:
        movq      %r15, 648(%rsp)                               #75.9
..LN595:
        movq      968(%rsp), %r10                               #75.9
..LN596:
        movq      960(%rsp), %rdi                               #75.9
..LN597:
        movq      2160(%rsp), %r9                               #75.9
..LN598:
                                # LOE rdx rsi rdi r9 r10 eax ecx r8d
..B6.51:                        # Preds ..B6.56 ..B6.115 ..B6.50
..L138:         # optimization report
                # %s was not vectorized: vector dependence prevents vectorization%s
                # VECTOR TRIP COUNT IS ESTIMATED CONSTANT
..LN599:
        xorl      %r13d, %r13d                                  #75.27
..LN600:
        testl     %r8d, %r8d                                    #75.36
..LN601:
        jle       ..B6.115      # Prob 10%                      #75.36
..LN602:
                                # LOE rdx rsi rdi r9 r10 r13 eax ecx r8d
..B6.52:                        # Preds ..B6.51
..LN603:
	.loc    1  85  is_stmt 1
        movq      %rdx, 344(%rsp)                               #85.5
..LN604:
	.loc    1  78  is_stmt 1
        lea       (%r8,%rax), %ebx                              #78.25
..LN605:
        movslq    %ebx, %rbx                                    #78.15
..LN606:
	.loc    1  85  is_stmt 1
        lea       (%r9,%rdx,8), %r11                            #85.5
..LN607:
	.loc    1  76  is_stmt 1
        movslq    %eax, %rax                                    #76.15
..LN608:
	.loc    1  85  is_stmt 1
        movq      %r11, 368(%rsp)                               #85.5
..LN609:
        movl      %eax, 352(%rsp)                               #85.5
..LN610:
        movl      %ecx, 336(%rsp)                               #85.5
..LN611:
	.loc    1  78  is_stmt 1
        lea       (%rdi,%rbx,8), %r12                           #78.15
..LN612:
	.loc    1  85  is_stmt 1
        movq      %rsi, 360(%rsp)                               #85.5
..LN613:
	.loc    1  82  is_stmt 1
        lea       (%r10,%rbx,8), %rbx                           #82.15
..LN614:
	.loc    1  85  is_stmt 1
        movl      %r8d, 320(%rsp)                               #85.5
..LN615:
	.loc    1  80  is_stmt 1
        lea       (%r10,%rax,8), %r14                           #80.15
..LN616:
	.loc    1  76  is_stmt 1
        lea       (%rdi,%rax,8), %r15                           #76.15
..LN617:
                                # LOE rbx r12 r13 r14 r15
..B6.53:                        # Preds ..B6.55 ..B6.52
..L139:         # optimization report
                # %s was not vectorized: vector dependence prevents vectorization%s
                # VECTOR TRIP COUNT IS ESTIMATED CONSTANT
..LN618:
	.loc    1  84  is_stmt 1
        lea       (%rsp), %rdi                                  #84.12
..LN619:
	.loc    1  76  is_stmt 1
        movq      (%r15,%r13,8), %rax                           #76.15
..LN620:
	.loc    1  84  is_stmt 1
        lea       160(%rsp), %rsi                               #84.12
..LN621:
	.loc    1  83  is_stmt 1
        movq      8(%rbx,%r13,8), %rdx                          #83.15
..LN622:
	.loc    1  76  is_stmt 1
        movq      %rax, (%rdi)                                  #76.5
..LN623:
	.loc    1  77  is_stmt 1
        movq      8(%r15,%r13,8), %rcx                          #77.15
..LN624:
	.loc    1  78  is_stmt 1
        movq      16(%r12,%r13,8), %r8                          #78.15
..LN625:
	.loc    1  79  is_stmt 1
        movq      8(%r12,%r13,8), %r9                           #79.15
..LN626:
	.loc    1  80  is_stmt 1
        movq      (%r14,%r13,8), %r10                           #80.15
..LN627:
	.loc    1  81  is_stmt 1
        movq      8(%r14,%r13,8), %r11                          #81.15
..LN628:
	.loc    1  82  is_stmt 1
        movq      16(%rbx,%r13,8), %rax                         #82.15
..LN629:
	.loc    1  83  is_stmt 1
        movq      %rdx, 24(%rsi)                                #83.5
..LN630:
	.loc    1  84  is_stmt 1
        movl      $4, %edx                                      #84.12
..LN631:
	.loc    1  77  is_stmt 1
        movq      %rcx, 8(%rdi)                                 #77.5
..LN632:
	.loc    1  78  is_stmt 1
        movq      %r8, 16(%rdi)                                 #78.5
..LN633:
	.loc    1  79  is_stmt 1
        movq      %r9, 24(%rdi)                                 #79.5
..LN634:
	.loc    1  80  is_stmt 1
        movq      %r10, (%rsi)                                  #80.5
..LN635:
	.loc    1  81  is_stmt 1
        movq      %r11, 8(%rsi)                                 #81.5
..LN636:
	.loc    1  82  is_stmt 1
        movq      %rax, 16(%rsi)                                #82.5
..LN637:
	.loc    1  84  is_stmt 1
        vzeroupper                                              #84.12
..LN638:
        vmovsd    .L_2il0floatpacket.0(%rip), %xmm0             #84.12
..___tag_value_create_xgrid_1dx2d_order1_.140:
..LN639:
#       fix_lon(double *, double *, int, double)
        call      fix_lon                                       #84.12
..___tag_value_create_xgrid_1dx2d_order1_.141:
..LN640:
                                # LOE rbx r12 r13 r14 r15 eax
..B6.54:                        # Preds ..B6.53
..LN641:
	.loc    1  85  is_stmt 1
        movl      %eax, %edx                                    #85.20
..LN642:
        lea       (%rsp), %rdi                                  #85.20
..LN643:
        lea       160(%rsp), %rsi                               #85.20
..___tag_value_create_xgrid_1dx2d_order1_.142:
..LN644:
#       poly_area(const double *, const double *, int)
        call      poly_area                                     #85.20
..___tag_value_create_xgrid_1dx2d_order1_.143:
..LN645:
                                # LOE rbx r12 r13 r14 r15 xmm0
..B6.55:                        # Preds ..B6.54
..LN646:
        movq      368(%rsp), %rax                               #85.5
..LN647:
        vmovsd    %xmm0, (%rax,%r13,8)                          #85.5
..LN648:
	.loc    1  75  is_stmt 1
        incq      %r13                                          #75.40
..LN649:
        cmpq      360(%rsp), %r13                               #75.36
..LN650:
        jl        ..B6.53       # Prob 82%                      #75.36
..LN651:
                                # LOE rbx r12 r13 r14 r15
..B6.56:                        # Preds ..B6.55
..LN652:
        movl      336(%rsp), %ecx                               #
..LN653:
        incl      %ecx                                          #75.18
..LN654:
        movq      344(%rsp), %rdx                               #
..LN655:
        movq      360(%rsp), %rsi                               #
..LN656:
        addq      %rsi, %rdx                                    #75.18
..LN657:
        movl      352(%rsp), %eax                               #
..LN658:
        movl      320(%rsp), %r8d                               #
..LN659:
        lea       1(%rax,%r8), %eax                             #75.18
..LN660:
        movq      968(%rsp), %r10                               #
..LN661:
        movq      960(%rsp), %rdi                               #
..LN662:
        movq      2160(%rsp), %r9                               #
..LN663:
        cmpl      328(%rsp), %ecx                               #75.14
..LN664:
        jl        ..B6.51       # Prob 82%                      #75.14
..LN665:
        jmp       ..B6.64       # Prob 100%                     #75.14
..LN666:
                                # LOE rdx rsi rdi r9 r10 eax ecx r8d
..B6.57:                        # Preds ..B6.48
..LN667:
	.loc    1  96  is_stmt 1
        movl      (%rbx), %r8d                                  #96.9
..LN668:
	.loc    1  100  is_stmt 1
        xorl      %ecx, %ecx                                    #100.7
..LN669:
	.loc    1  97  is_stmt 1
        movl      (%r12), %ebx                                  #97.9
..LN670:
	.loc    1  100  is_stmt 1
        xorl      %edx, %edx                                    #100.9
..LN671:
        movslq    %r8d, %rsi                                    #100.18
..LN672:
        testl     %ebx, %ebx                                    #100.14
..LN673:
        jle       ..B6.65       # Prob 10%                      #100.14
..LN674:
                                # LOE rdx rsi r13 r14 r15 ecx ebx r8d
..B6.58:                        # Preds ..B6.57
..LN675:
        movl      %ebx, 8(%rsp)                                 #100.9
..LN676:
        xorl      %eax, %eax                                    #100.9
..LN677:
        movq      %r14, 2656(%rsp)                              #100.9
..LN678:
        movq      %r13, 640(%rsp)                               #100.9
..LN679:
        movq      %r15, 648(%rsp)                               #100.9
..LN680:
        movq      968(%rsp), %r10                               #100.9
..LN681:
        movq      960(%rsp), %rdi                               #100.9
..LN682:
        movq      2160(%rsp), %r9                               #100.9
..LN683:
                                # LOE rdx rsi rdi r9 r10 eax ecx r8d
..B6.59:                        # Preds ..B6.63 ..B6.117 ..B6.58
..L144:         # optimization report
                # %s was not vectorized: vector dependence prevents vectorization%s
                # VECTOR TRIP COUNT IS ESTIMATED CONSTANT
..LN684:
        xorl      %r13d, %r13d                                  #100.27
..LN685:
        testl     %r8d, %r8d                                    #100.36
..LN686:
        jle       ..B6.117      # Prob 10%                      #100.36
..LN687:
                                # LOE rdx rsi rdi r9 r10 r13 eax ecx r8d
..B6.60:                        # Preds ..B6.59
..LN688:
	.loc    1  110  is_stmt 1
        movq      %rdx, 24(%rsp)                                #110.5
..LN689:
	.loc    1  103  is_stmt 1
        lea       (%r8,%rax), %ebx                              #103.25
..LN690:
        movslq    %ebx, %rbx                                    #103.15
..LN691:
	.loc    1  110  is_stmt 1
        lea       (%r9,%rdx,8), %r11                            #110.5
..LN692:
	.loc    1  101  is_stmt 1
        movslq    %eax, %rax                                    #101.15
..LN693:
	.loc    1  110  is_stmt 1
        movq      %r11, 48(%rsp)                                #110.5
..LN694:
        movl      %eax, 32(%rsp)                                #110.5
..LN695:
        movl      %ecx, 16(%rsp)                                #110.5
..LN696:
	.loc    1  103  is_stmt 1
        lea       (%rdi,%rbx,8), %r12                           #103.15
..LN697:
	.loc    1  110  is_stmt 1
        movq      %rsi, 40(%rsp)                                #110.5
..LN698:
	.loc    1  107  is_stmt 1
        lea       (%r10,%rbx,8), %rbx                           #107.15
..LN699:
	.loc    1  110  is_stmt 1
        movl      %r8d, (%rsp)                                  #110.5
..LN700:
	.loc    1  105  is_stmt 1
        lea       (%r10,%rax,8), %r14                           #105.15
..LN701:
	.loc    1  101  is_stmt 1
        lea       (%rdi,%rax,8), %r15                           #101.15
..LN702:
                                # LOE rbx r12 r13 r14 r15
..B6.61:                        # Preds ..B6.62 ..B6.60
..L145:         # optimization report
                # %s was not vectorized: vector dependence prevents vectorization%s
                # VECTOR TRIP COUNT IS ESTIMATED CONSTANT
..LN703:
	.loc    1  110  is_stmt 1
        lea       320(%rsp), %rdi                               #110.20
..LN704:
	.loc    1  101  is_stmt 1
        movq      (%r15,%r13,8), %rax                           #101.15
..LN705:
	.loc    1  110  is_stmt 1
        lea       480(%rsp), %rsi                               #110.20
..LN706:
	.loc    1  108  is_stmt 1
        movq      8(%rbx,%r13,8), %rdx                          #108.15
..LN707:
	.loc    1  101  is_stmt 1
        movq      %rax, -160(%rsi)                              #101.5
..LN708:
	.loc    1  102  is_stmt 1
        movq      8(%r15,%r13,8), %rcx                          #102.15
..LN709:
	.loc    1  103  is_stmt 1
        movq      16(%r12,%r13,8), %r8                          #103.15
..LN710:
	.loc    1  104  is_stmt 1
        movq      8(%r12,%r13,8), %r9                           #104.15
..LN711:
	.loc    1  105  is_stmt 1
        movq      (%r14,%r13,8), %r10                           #105.15
..LN712:
	.loc    1  106  is_stmt 1
        movq      8(%r14,%r13,8), %r11                          #106.15
..LN713:
	.loc    1  107  is_stmt 1
        movq      16(%rbx,%r13,8), %rax                         #107.15
..LN714:
	.loc    1  108  is_stmt 1
        movq      %rdx, 24(%rsi)                                #108.5
..LN715:
	.loc    1  110  is_stmt 1
        movl      $4, %edx                                      #110.20
..LN716:
	.loc    1  102  is_stmt 1
        movq      %rcx, -152(%rsi)                              #102.5
..LN717:
	.loc    1  103  is_stmt 1
        movq      %r8, -144(%rsi)                               #103.5
..LN718:
	.loc    1  104  is_stmt 1
        movq      %r9, -136(%rsi)                               #104.5
..LN719:
	.loc    1  105  is_stmt 1
        movq      %r10, (%rsi)                                  #105.5
..LN720:
	.loc    1  106  is_stmt 1
        movq      %r11, 8(%rsi)                                 #106.5
..LN721:
	.loc    1  107  is_stmt 1
        movq      %rax, 16(%rsi)                                #107.5
..LN722:
	.loc    1  110  is_stmt 1
        vzeroupper                                              #110.20
..___tag_value_create_xgrid_1dx2d_order1_.146:
..LN723:
#       poly_area_no_adjust(const double *, const double *, int)
        call      poly_area_no_adjust                           #110.20
..___tag_value_create_xgrid_1dx2d_order1_.147:
..LN724:
                                # LOE rbx r12 r13 r14 r15 xmm0
..B6.62:                        # Preds ..B6.61
..LN725:
        movq      48(%rsp), %rax                                #110.5
..LN726:
        vmovsd    %xmm0, (%rax,%r13,8)                          #110.5
..LN727:
	.loc    1  100  is_stmt 1
        incq      %r13                                          #100.40
..LN728:
        cmpq      40(%rsp), %r13                                #100.36
..LN729:
        jl        ..B6.61       # Prob 82%                      #100.36
..LN730:
                                # LOE rbx r12 r13 r14 r15
..B6.63:                        # Preds ..B6.62
..LN731:
        movl      16(%rsp), %ecx                                #
..LN732:
        incl      %ecx                                          #100.18
..LN733:
        movq      24(%rsp), %rdx                                #
..LN734:
        movq      40(%rsp), %rsi                                #
..LN735:
        addq      %rsi, %rdx                                    #100.18
..LN736:
        movl      32(%rsp), %eax                                #
..LN737:
        movl      (%rsp), %r8d                                  #
..LN738:
        lea       1(%rax,%r8), %eax                             #100.18
..LN739:
        movq      968(%rsp), %r10                               #
..LN740:
        movq      960(%rsp), %rdi                               #
..LN741:
        movq      2160(%rsp), %r9                               #
..LN742:
        cmpl      8(%rsp), %ecx                                 #100.14
..LN743:
        jl        ..B6.59       # Prob 82%                      #100.14
..LN744:
                                # LOE rdx rsi rdi r9 r10 eax ecx r8d
..B6.64:                        # Preds ..B6.56 ..B6.117 ..B6.115 ..B6.63 # Infreq
..LN745:
        movq      2656(%rsp), %r14                              #
..LN746:
        movq      640(%rsp), %r13                               #
..LN747:
        movq      648(%rsp), %r15                               #
..LN748:
                                # LOE r13 r14 r15
..B6.65:                        # Preds ..B6.64 ..B6.57 ..B6.49 # Infreq
..LN749:
	.loc    1  72  is_stmt 1
        movl      (%r15), %edx                                  #72.9
..LN750:
	.loc    1  75  is_stmt 1
        xorl      %r9d, %r9d                                    #75.7
..LN751:
	.loc    1  71  is_stmt 1
        movl      (%r13), %eax                                  #71.9
..LN752:
	.loc    1  75  is_stmt 1
        xorl      %r10d, %r10d                                  #75.9
..LN753:
        movslq    %eax, %r8                                     #75.18
..LN754:
        testl     %edx, %edx                                    #75.14
..LN755:
        jle       ..B6.74       # Prob 10%                      #75.14
..LN756:
                                # LOE r8 r10 r14 eax edx r9d
..B6.66:                        # Preds ..B6.65                 # Infreq
..LN757:
        movl      %edx, 984(%rsp)                               #75.9
..LN758:
        xorl      %esi, %esi                                    #75.9
..LN759:
        movq      24(%rbp), %rcx                                #75.9
..LN760:
        movq      %r14, %rdi                                    #75.9
..LN761:
        movq      16(%rbp), %rdx                                #75.9
..LN762:
                                # LOE rdx rcx rdi r8 r10 eax esi r9d
..B6.67:                        # Preds ..B6.72 ..B6.113 ..B6.66 # Infreq
..L148:         # optimization report
                # %s was not vectorized: vector dependence prevents vectorization%s
                # VECTOR TRIP COUNT IS ESTIMATED CONSTANT
..LN763:
        xorl      %r12d, %r12d                                  #75.27
..LN764:
        testl     %eax, %eax                                    #75.36
..LN765:
        jle       ..B6.113      # Prob 10%                      #75.36
..LN766:
                                # LOE rdx rcx rdi r8 r10 r12 eax esi r9d
..B6.68:                        # Preds ..B6.67                 # Infreq
..LN767:
	.loc    1  85  is_stmt 1
        movq      %r10, 1000(%rsp)                              #85.5
..LN768:
	.loc    1  78  is_stmt 1
        lea       (%rax,%rsi), %r13d                            #78.25
..LN769:
        movslq    %r13d, %r13                                   #78.15
..LN770:
	.loc    1  85  is_stmt 1
        lea       (%rdi,%r10,8), %r11                           #85.5
..LN771:
	.loc    1  76  is_stmt 1
        movslq    %esi, %rsi                                    #76.15
..LN772:
	.loc    1  85  is_stmt 1
        movq      %r11, 1024(%rsp)                              #85.5
..LN773:
        movl      %esi, 1008(%rsp)                              #85.5
..LN774:
        movl      %r9d, 992(%rsp)                               #85.5
..LN775:
	.loc    1  78  is_stmt 1
        lea       (%rdx,%r13,8), %rbx                           #78.15
..LN776:
	.loc    1  85  is_stmt 1
        movq      %r8, 1016(%rsp)                               #85.5
..LN777:
	.loc    1  82  is_stmt 1
        lea       (%rcx,%r13,8), %r13                           #82.15
..LN778:
	.loc    1  85  is_stmt 1
        movl      %eax, 976(%rsp)                               #85.5
..LN779:
	.loc    1  80  is_stmt 1
        lea       (%rcx,%rsi,8), %r15                           #80.15
..LN780:
	.loc    1  85  is_stmt 1
        movq      %rdi, 2656(%rsp)                              #85.5
..LN781:
	.loc    1  76  is_stmt 1
        lea       (%rdx,%rsi,8), %r14                           #76.15
..LN782:
                                # LOE rbx r12 r13 r14 r15
..B6.69:                        # Preds ..B6.71 ..B6.68         # Infreq
..L149:         # optimization report
                # %s was not vectorized: vector dependence prevents vectorization%s
                # VECTOR TRIP COUNT IS ESTIMATED CONSTANT
..LN783:
	.loc    1  84  is_stmt 1
        lea       640(%rsp), %rdi                               #84.12
..LN784:
	.loc    1  76  is_stmt 1
        movq      (%r14,%r12,8), %rax                           #76.15
..LN785:
	.loc    1  84  is_stmt 1
        lea       800(%rsp), %rsi                               #84.12
..LN786:
	.loc    1  83  is_stmt 1
        movq      8(%r13,%r12,8), %rdx                          #83.15
..LN787:
	.loc    1  76  is_stmt 1
        movq      %rax, -160(%rsi)                              #76.5
..LN788:
	.loc    1  77  is_stmt 1
        movq      8(%r14,%r12,8), %rcx                          #77.15
..LN789:
	.loc    1  78  is_stmt 1
        movq      16(%rbx,%r12,8), %r8                          #78.15
..LN790:
	.loc    1  79  is_stmt 1
        movq      8(%rbx,%r12,8), %r9                           #79.15
..LN791:
	.loc    1  80  is_stmt 1
        movq      (%r15,%r12,8), %r10                           #80.15
..LN792:
	.loc    1  81  is_stmt 1
        movq      8(%r15,%r12,8), %r11                          #81.15
..LN793:
	.loc    1  82  is_stmt 1
        movq      16(%r13,%r12,8), %rax                         #82.15
..LN794:
	.loc    1  83  is_stmt 1
        movq      %rdx, 24(%rsi)                                #83.5
..LN795:
	.loc    1  84  is_stmt 1
        movl      $4, %edx                                      #84.12
..LN796:
	.loc    1  77  is_stmt 1
        movq      %rcx, -152(%rsi)                              #77.5
..LN797:
	.loc    1  78  is_stmt 1
        movq      %r8, -144(%rsi)                               #78.5
..LN798:
	.loc    1  79  is_stmt 1
        movq      %r9, -136(%rsi)                               #79.5
..LN799:
	.loc    1  80  is_stmt 1
        movq      %r10, (%rsi)                                  #80.5
..LN800:
	.loc    1  81  is_stmt 1
        movq      %r11, 8(%rsi)                                 #81.5
..LN801:
	.loc    1  82  is_stmt 1
        movq      %rax, 16(%rsi)                                #82.5
..LN802:
	.loc    1  84  is_stmt 1
        vzeroupper                                              #84.12
..LN803:
        vmovsd    .L_2il0floatpacket.0(%rip), %xmm0             #84.12
..___tag_value_create_xgrid_1dx2d_order1_.150:
..LN804:
#       fix_lon(double *, double *, int, double)
        call      fix_lon                                       #84.12
..___tag_value_create_xgrid_1dx2d_order1_.151:
..LN805:
                                # LOE rbx r12 r13 r14 r15 eax
..B6.70:                        # Preds ..B6.69                 # Infreq
..LN806:
	.loc    1  85  is_stmt 1
        movl      %eax, %edx                                    #85.20
..LN807:
        lea       640(%rsp), %rdi                               #85.20
..LN808:
        lea       800(%rsp), %rsi                               #85.20
..___tag_value_create_xgrid_1dx2d_order1_.152:
..LN809:
#       poly_area(const double *, const double *, int)
        call      poly_area                                     #85.20
..___tag_value_create_xgrid_1dx2d_order1_.153:
..LN810:
                                # LOE rbx r12 r13 r14 r15 xmm0
..B6.71:                        # Preds ..B6.70                 # Infreq
..LN811:
        movq      1024(%rsp), %rax                              #85.5
..LN812:
        vmovsd    %xmm0, (%rax,%r12,8)                          #85.5
..LN813:
	.loc    1  75  is_stmt 1
        incq      %r12                                          #75.40
..LN814:
        cmpq      1016(%rsp), %r12                              #75.36
..LN815:
        jl        ..B6.69       # Prob 82%                      #75.36
..LN816:
                                # LOE rbx r12 r13 r14 r15
..B6.72:                        # Preds ..B6.71                 # Infreq
..LN817:
        movl      992(%rsp), %r9d                               #
..LN818:
        incl      %r9d                                          #75.18
..LN819:
        movq      1000(%rsp), %r10                              #
..LN820:
        movq      1016(%rsp), %r8                               #
..LN821:
        addq      %r8, %r10                                     #75.18
..LN822:
        movl      1008(%rsp), %esi                              #
..LN823:
        movl      976(%rsp), %eax                               #
..LN824:
        lea       1(%rsi,%rax), %esi                            #75.18
..LN825:
        movq      2656(%rsp), %rdi                              #
..LN826:
        movq      24(%rbp), %rcx                                #
..LN827:
        movq      16(%rbp), %rdx                                #
..LN828:
        cmpl      984(%rsp), %r9d                               #75.14
..LN829:
        jl        ..B6.67       # Prob 82%                      #75.14
..LN830:
                                # LOE rdx rcx rdi r8 r10 eax esi edi r9d dil
..B6.73:                        # Preds ..B6.113 ..B6.72        # Infreq
..LN831:
        movq      %rdi, %r14                                    #
..LN832:
                                # LOE r14
..B6.74:                        # Preds ..B6.73 ..B6.65         # Infreq
..LN833:
	.loc    1  169  is_stmt 1
        vzeroupper                                              #169.3
..LN834:
        movq      960(%rsp), %rdi                               #169.3
..LN835:
#       free(void *)
        call      free                                          #169.3
..LN836:
                                # LOE r14
..B6.75:                        # Preds ..B6.74                 # Infreq
..LN837:
	.loc    1  170  is_stmt 1
        movq      968(%rsp), %rdi                               #170.3
..LN838:
#       free(void *)
        call      free                                          #170.3
..LN839:
                                # LOE r14
..B6.76:                        # Preds ..B6.75                 # Infreq
..LN840:
	.loc    1  172  is_stmt 1
        xorl      %eax, %eax                                    #172.10
..LN841:
        xorl      %ecx, %ecx                                    #172.7
..LN842:
        xorl      %edx, %edx                                    #172.10
..LN843:
        cmpl      $0, 2168(%rsp)                                #172.16
..LN844:
        jle       ..B6.108      # Prob 10%                      #172.16
..LN845:
                                # LOE rax rdx r14 ecx
..B6.77:                        # Preds ..B6.76                 # Infreq
..LN846:
	.loc    1  124  is_stmt 1
        movq      %r14, %rdi                                    #124.1
..LN847:
        movq      32(%rbp), %rsi                                #124.1
..LN848:
        movq      48(%rbp), %r10                                #124.1
..LN849:
        movq      72(%rbp), %rbx                                #124.1
..LN850:
        movq      24(%rbp), %r9                                 #124.1
..LN851:
        movq      16(%rbp), %r8                                 #124.1
..LN852:
	.loc    1  172  is_stmt 1
        vmovsd    .L_2il0floatpacket.1(%rip), %xmm0             #172.76
..LN853:
	.loc    1  198  is_stmt 1
        vmovsd    .L_2il0floatpacket.2(%rip), %xmm1             #198.23
..LN854:
	.loc    1  124  is_stmt 1
        movq      2160(%rsp), %r13                              #124.1
..LN855:
        movl      2168(%rsp), %r15d                             #124.1
..LN856:
        movq      2608(%rsp), %r11                              #124.1
..LN857:
        movl      2184(%rsp), %r14d                             #124.1
..LN858:
                                # LOE rax rdx rsi rdi r8 r9 r11 r13 ecx r14d r15d xmm0
..B6.78:                        # Preds ..B6.82 ..B6.111 ..B6.77 # Infreq
..L154:         # optimization report
                # %s was not vectorized: vector dependence prevents vectorization%s
                # VECTOR TRIP COUNT IS ESTIMATED CONSTANT
..LN859:
	.loc    1  172  is_stmt 1
        xorl      %r12d, %r12d                                  #172.31
..LN860:
        testl     %r14d, %r14d                                  #172.40
..LN861:
        jle       ..B6.111      # Prob 10%                      #172.40
..LN862:
                                # LOE rax rdx rsi rdi r8 r9 r11 r12 r13 ecx r14d r15d xmm0
..B6.79:                        # Preds ..B6.78                 # Infreq
..LN863:
	.loc    1  197  is_stmt 1
        movq      %rdx, 2176(%rsp)                              #197.13
..LN864:
        lea       (%r13,%rdx,8), %r10                           #197.13
..LN865:
        movq      %r10, 2688(%rsp)                              #197.13
..LN866:
	.loc    1  172  is_stmt 1
        lea       (%rsi,%rdx,8), %rbx                           #172.55
..LN867:
	.loc    1  197  is_stmt 1
        movl      %ecx, 2632(%rsp)                              #197.13
..LN868:
        movl      2640(%rsp), %r13d                             #197.13
..LN869:
        movq      2752(%rsp), %rsi                              #197.13
..LN870:
        movq      2600(%rsp), %r15                              #197.13
..LN871:
        movq      2592(%rsp), %r14                              #197.13
..LN872:
                                # LOE rax rbx rsi rdi r8 r9 r11 r12 r14 r15 r13d xmm0
..B6.80:                        # Preds ..B6.81 ..B6.79         # Infreq
..L155:         # optimization report
                # %s was not vectorized: vector dependence prevents vectorization%s
                # VECTOR TRIP COUNT IS ESTIMATED CONSTANT
..LN873:
	.loc    1  172  is_stmt 1
        vmovsd    (%rbx,%r12,8), %xmm1                          #172.55
..LN874:
        vcomisd   %xmm0, %xmm1                                  #172.76
..LN875:
        ja        ..B6.83       # Prob 50%                      #172.76
..LN876:
                                # LOE rax rbx rsi rdi r8 r9 r11 r12 r14 r15 r13d xmm0
..B6.81:                        # Preds ..B6.103 ..B6.106 ..B6.83 ..B6.80 # Infreq
..LN877:
        incq      %r12                                          #172.45
..LN878:
        cmpq      %r11, %r12                                    #172.40
..LN879:
        jl        ..B6.80       # Prob 82%                      #172.40
..LN880:
                                # LOE rax rbx rsi rdi r8 r9 r11 r12 r14 r15 r13d xmm0
..B6.82:                        # Preds ..B6.81                 # Infreq
..LN881:
        movl      2632(%rsp), %ecx                              #
..LN882:
        incq      %rax                                          #172.21
..LN883:
        incl      %ecx                                          #172.21
..LN884:
        movq      2176(%rsp), %rdx                              #
..LN885:
        movl      2168(%rsp), %r15d                             #
..LN886:
        addq      %r11, %rdx                                    #172.21
..LN887:
        movq      2160(%rsp), %r13                              #
..LN888:
        movl      2184(%rsp), %r14d                             #
..LN889:
        movq      32(%rbp), %rsi                                #
..LN890:
        cmpl      %r15d, %ecx                                   #172.16
..LN891:
        jl        ..B6.78       # Prob 82%                      #172.16
..LN892:
        jmp       ..B6.107      # Prob 100%                     #172.16
..LN893:
                                # LOE rax rdx rsi rdi r8 r9 r11 r13 ecx r14d r15d xmm0
..B6.83:                        # Preds ..B6.80                 # Infreq
..LN894:
	.loc    1  176  is_stmt 1
        xorl      %ecx, %ecx                                    #176.9
..LN895:
        xorl      %r10d, %r10d                                  #176.12
..LN896:
	.loc    1  174  is_stmt 1
        vmovsd    (%r15,%r12,8), %xmm5                          #174.14
..LN897:
	.loc    1  176  is_stmt 1
        xorl      %edx, %edx                                    #176.12
..LN898:
	.loc    1  175  is_stmt 1
        vmovsd    8(%r15,%r12,8), %xmm3                         #175.14
..LN899:
	.loc    1  174  is_stmt 1
        vmovsd    (%r14,%rax,8), %xmm4                          #174.37
..LN900:
	.loc    1  175  is_stmt 1
        vmovsd    8(%r14,%rax,8), %xmm2                         #175.37
..LN901:
	.loc    1  176  is_stmt 1
        testl     %r13d, %r13d                                  #176.18
..LN902:
        jle       ..B6.81       # Prob 10%                      #176.18
..LN903:
                                # LOE rax rbx rsi rdi r8 r9 r10 r11 r12 r14 r15 edx ecx r13d xmm0 xmm2 xmm3 xmm4 xmm5
..B6.84:                        # Preds ..B6.83                 # Infreq
..LN904:
	.loc    1  193  is_stmt 1
        movq      %rax, 2616(%rsp)                              #193.53
..LN905:
        vaddsd    %xmm3, %xmm5, %xmm1                           #193.45
..LN906:
        vmulsd    %xmm1, %xmm0, %xmm1                           #193.53
..LN907:
        vmovsd    %xmm1, 2728(%rsp)                             #193.53
..LN908:
        vmovsd    %xmm2, 2744(%rsp)                             #193.53
..LN909:
        vmovsd    %xmm3, 2720(%rsp)                             #193.53
..LN910:
        vmovsd    %xmm4, 2760(%rsp)                             #193.53
..LN911:
        vmovsd    %xmm5, 2736(%rsp)                             #193.53
..LN912:
        movq      %rbx, 2696(%rsp)                              #193.53
..LN913:
        movq      %r12, 2712(%rsp)                              #193.53
..LN914:
        movl      2648(%rsp), %eax                              #193.53
..LN915:
                                # LOE rsi rdi r8 r9 r10 eax edx ecx
..B6.85:                        # Preds ..B6.102 ..B6.105 ..B6.84 # Infreq
..L156:         # optimization report
                # %s was not vectorized: vector dependence prevents vectorization%s
                # VECTOR TRIP COUNT IS ESTIMATED CONSTANT
..LN916:
	.loc    1  176  is_stmt 1
        xorl      %r13d, %r13d                                  #176.33
..LN917:
        testl     %eax, %eax                                    #176.42
..LN918:
        jle       ..B6.105      # Prob 10%                      #176.42
..LN919:
                                # LOE rsi rdi r8 r9 r10 r13 eax edx ecx
..B6.86:                        # Preds ..B6.85                 # Infreq
..LN920:
	.loc    1  197  is_stmt 1
        movq      %r10, 2672(%rsp)                              #197.13
..LN921:
	.loc    1  182  is_stmt 1
        lea       (%rax,%rdx), %ebx                             #182.32
..LN922:
        movslq    %ebx, %rbx                                    #182.17
..LN923:
	.loc    1  197  is_stmt 1
        lea       (%rdi,%r10,8), %r11                           #197.13
..LN924:
	.loc    1  180  is_stmt 1
        movslq    %edx, %rdx                                    #180.17
..LN925:
	.loc    1  197  is_stmt 1
        movq      %r11, 2704(%rsp)                              #197.13
..LN926:
        movl      %edx, 2664(%rsp)                              #197.13
..LN927:
        movl      %ecx, 2680(%rsp)                              #197.13
..LN928:
	.loc    1  182  is_stmt 1
        lea       (%r9,%rbx,8), %r14                            #182.17
..LN929:
	.loc    1  197  is_stmt 1
        movq      %rdi, 2656(%rsp)                              #197.13
..LN930:
	.loc    1  191  is_stmt 1
        lea       (%r8,%rbx,8), %r12                            #191.17
..LN931:
	.loc    1  189  is_stmt 1
        lea       (%r8,%rdx,8), %rbx                            #189.17
..LN932:
	.loc    1  180  is_stmt 1
        lea       (%r9,%rdx,8), %r15                            #180.17
..LN933:
                                # LOE rbx r12 r13 r14 r15
..B6.87:                        # Preds ..B6.101 ..B6.86        # Infreq
..L157:         # optimization report
                # %s was not vectorized: vector dependence prevents vectorization%s
                # VECTOR TRIP COUNT IS ESTIMATED CONSTANT
..LN934:
        vmovsd    (%r15,%r13,8), %xmm4                          #180.17
..LN935:
	.loc    1  184  is_stmt 1
        vmovsd    2760(%rsp), %xmm0                             #184.23
..LN936:
	.loc    1  181  is_stmt 1
        vmovsd    8(%r15,%r13,8), %xmm3                         #181.17
..LN937:
	.loc    1  182  is_stmt 1
        vmovsd    16(%r14,%r13,8), %xmm2                        #182.17
..LN938:
	.loc    1  183  is_stmt 1
        vmovsd    8(%r14,%r13,8), %xmm1                         #183.17
..LN939:
	.loc    1  180  is_stmt 1
        vmovsd    %xmm4, 2192(%rsp)                             #180.7
..LN940:
	.loc    1  181  is_stmt 1
        vmovsd    %xmm3, 2200(%rsp)                             #181.7
..LN941:
	.loc    1  182  is_stmt 1
        vmovsd    %xmm2, 2208(%rsp)                             #182.7
..LN942:
	.loc    1  183  is_stmt 1
        vmovsd    %xmm1, 2216(%rsp)                             #183.7
..LN943:
	.loc    1  184  is_stmt 1
        vcomisd   %xmm4, %xmm0                                  #184.23
..LN944:
        jb        ..B6.91       # Prob 50%                      #184.23
..LN945:
                                # LOE rbx r12 r13 r14 r15 xmm0 xmm1 xmm2 xmm3 xmm4 ymm0 zmm0
..B6.88:                        # Preds ..B6.87                 # Infreq
..LN946:
        vcomisd   %xmm3, %xmm0                                  #184.44
..LN947:
        jb        ..B6.91       # Prob 50%                      #184.44
..LN948:
                                # LOE rbx r12 r13 r14 r15 xmm0 xmm1 xmm2 xmm3 xmm4 ymm0 zmm0
..B6.89:                        # Preds ..B6.88                 # Infreq
..LN949:
	.loc    1  185  is_stmt 1
        vcomisd   %xmm2, %xmm0                                  #185.19
..LN950:
        jb        ..B6.91       # Prob 50%                      #185.19
..LN951:
                                # LOE rbx r12 r13 r14 r15 xmm0 xmm1 xmm2 xmm3 xmm4 ymm0 zmm0
..B6.90:                        # Preds ..B6.89                 # Infreq
..LN952:
        vcomisd   %xmm1, %xmm0                                  #185.40
..LN953:
        jae       ..B6.101      # Prob 50%                      #185.40
..LN954:
                                # LOE rbx r12 r13 r14 r15 xmm1 xmm2 xmm3 xmm4
..B6.91:                        # Preds ..B6.90 ..B6.89 ..B6.88 ..B6.87 # Infreq
..LN955:
	.loc    1  186  is_stmt 1
        vcomisd   2744(%rsp), %xmm4                             #186.23
..LN956:
        jb        ..B6.95       # Prob 22%                      #186.23
..LN957:
                                # LOE rbx r12 r13 r14 r15 xmm1 xmm2 xmm3
..B6.92:                        # Preds ..B6.91                 # Infreq
..LN958:
        vcomisd   2744(%rsp), %xmm3                             #186.44
..LN959:
        jb        ..B6.95       # Prob 22%                      #186.44
..LN960:
                                # LOE rbx r12 r13 r14 r15 xmm1 xmm2
..B6.93:                        # Preds ..B6.92                 # Infreq
..LN961:
	.loc    1  187  is_stmt 1
        vcomisd   2744(%rsp), %xmm2                             #187.19
..LN962:
        jb        ..B6.95       # Prob 22%                      #187.19
..LN963:
                                # LOE rbx r12 r13 r14 r15 xmm1
..B6.94:                        # Preds ..B6.93                 # Infreq
..LN964:
        vcomisd   2744(%rsp), %xmm1                             #187.40
..LN965:
        jae       ..B6.101      # Prob 78%                      #187.40
..LN966:
                                # LOE rbx r12 r13 r14 r15
..B6.95:                        # Preds ..B6.94 ..B6.93 ..B6.92 ..B6.91 # Infreq
..LN967:
	.loc    1  193  is_stmt 1
        lea       960(%rsp), %rdi                               #193.14
..LN968:
	.loc    1  189  is_stmt 1
        movq      (%rbx,%r13,8), %rax                           #189.17
..LN969:
	.loc    1  193  is_stmt 1
        lea       2192(%rsp), %rsi                              #193.14
..LN970:
	.loc    1  190  is_stmt 1
        movq      8(%rbx,%r13,8), %rcx                          #190.17
..LN971:
	.loc    1  193  is_stmt 1
        movl      $4, %edx                                      #193.14
..LN972:
	.loc    1  191  is_stmt 1
        movq      16(%r12,%r13,8), %r8                          #191.17
..LN973:
	.loc    1  192  is_stmt 1
        movq      8(%r12,%r13,8), %r9                           #192.17
..LN974:
	.loc    1  193  is_stmt 1
        vmovsd    536(%rsi), %xmm0                              #193.14
..LN975:
	.loc    1  189  is_stmt 1
        movq      %rax, -1232(%rsi)                             #189.7
..LN976:
	.loc    1  190  is_stmt 1
        movq      %rcx, -1224(%rsi)                             #190.7
..LN977:
	.loc    1  191  is_stmt 1
        movq      %r8, -1216(%rsi)                              #191.7
..LN978:
	.loc    1  192  is_stmt 1
        movq      %r9, -1208(%rsi)                              #192.7
..___tag_value_create_xgrid_1dx2d_order1_.158:
..LN979:
	.loc    1  193  is_stmt 1
#       fix_lon(double *, double *, int, double)
        call      fix_lon                                       #193.14
..___tag_value_create_xgrid_1dx2d_order1_.159:
..LN980:
                                # LOE rbx r12 r13 r14 r15 eax
..B6.96:                        # Preds ..B6.95                 # Infreq
..LN981:
	.loc    1  195  is_stmt 1
        lea       960(%rsp), %rdi                               #195.21
..LN982:
        vmovsd    1776(%rdi), %xmm0                             #195.21
..LN983:
        lea       2192(%rsp), %rsi                              #195.21
..LN984:
        vmovsd    568(%rsi), %xmm1                              #195.21
..LN985:
        lea       1360(%rsp), %rcx                              #195.21
..LN986:
        vmovsd    1360(%rcx), %xmm2                             #195.21
..LN987:
        lea       1760(%rsp), %r8                               #195.21
..LN988:
        vmovsd    1384(%rcx), %xmm3                             #195.21
..LN989:
        movl      %eax, %edx                                    #195.21
..___tag_value_create_xgrid_1dx2d_order1_.160:
..LN990:
#       clip(const double *, const double *, int, double, double, double, double, double *, double *)
        call      clip                                          #195.21
..___tag_value_create_xgrid_1dx2d_order1_.161:
..LN991:
                                # LOE rbx r12 r13 r14 r15 eax
..B6.97:                        # Preds ..B6.96                 # Infreq
..LN992:
        testl     %eax, %eax                                    #195.96
..LN993:
        jle       ..B6.101      # Prob 40%                      #195.96
..LN994:
                                # LOE rbx r12 r13 r14 r15 eax
..B6.98:                        # Preds ..B6.97                 # Infreq
..LN995:
	.loc    1  196  is_stmt 1
        movl      %eax, %edx                                    #196.10
..LN996:
        lea       1360(%rsp), %rdi                              #196.10
..LN997:
        lea       1760(%rsp), %rsi                              #196.10
..___tag_value_create_xgrid_1dx2d_order1_.162:
..LN998:
#       poly_area(const double *, const double *, int)
        call      poly_area                                     #196.10
..___tag_value_create_xgrid_1dx2d_order1_.163:
..LN999:
                                # LOE rbx r12 r13 r14 r15 xmm0
..B6.99:                        # Preds ..B6.98                 # Infreq
..LN1000:
        movq      2696(%rsp), %rax                              #196.45
..LN1001:
        movq      2712(%rsp), %rcx                              #196.45
..LN1002:
	.loc    1  197  is_stmt 1
        movq      2688(%rsp), %rdx                              #197.13
..LN1003:
	.loc    1  198  is_stmt 1
        movq      2704(%rsp), %rsi                              #198.2
..LN1004:
	.loc    1  196  is_stmt 1
        vmulsd    (%rax,%rcx,8), %xmm0, %xmm2                   #196.45
..LN1005:
	.loc    1  197  is_stmt 1
        vmovsd    (%rdx,%rcx,8), %xmm0                          #197.13
..LN1006:
	.loc    1  198  is_stmt 1
        vminsd    (%rsi,%r13,8), %xmm0, %xmm0                   #198.2
..LN1007:
        vdivsd    %xmm0, %xmm2, %xmm1                           #198.12
..LN1008:
        vcomisd   .L_2il0floatpacket.2(%rip), %xmm1             #198.23
..LN1009:
        jbe       ..B6.101      # Prob 50%                      #198.23
..LN1010:
                                # LOE rbx r12 r13 r14 r15 xmm2
..B6.100:                       # Preds ..B6.99                 # Infreq
..LN1011:
	.loc    1  199  is_stmt 1
        movq      2624(%rsp), %r11                              #199.10
..LN1012:
	.loc    1  200  is_stmt 1
        movq      40(%rbp), %rcx                                #200.4
..LN1013:
	.loc    1  201  is_stmt 1
        movq      48(%rbp), %rdi                                #201.4
..LN1014:
	.loc    1  202  is_stmt 1
        movq      56(%rbp), %r8                                 #202.4
..LN1015:
	.loc    1  199  is_stmt 1
        movq      72(%rbp), %rax                                #199.10
..LN1016:
	.loc    1  203  is_stmt 1
        movq      64(%rbp), %r10                                #203.4
..LN1017:
	.loc    1  200  is_stmt 1
        movq      2712(%rsp), %rdx                              #200.4
..LN1018:
	.loc    1  201  is_stmt 1
        movl      2632(%rsp), %esi                              #201.4
..LN1019:
	.loc    1  203  is_stmt 1
        movl      2680(%rsp), %r9d                              #203.4
..LN1020:
	.loc    1  200  is_stmt 1
        movl      %edx, (%rcx,%r11,4)                           #200.4
..LN1021:
	.loc    1  201  is_stmt 1
        movl      %esi, (%rdi,%r11,4)                           #201.4
..LN1022:
	.loc    1  202  is_stmt 1
        movl      %r13d, (%r8,%r11,4)                           #202.4
..LN1023:
	.loc    1  199  is_stmt 1
        vmovsd    %xmm2, (%rax,%r11,8)                          #199.10
..LN1024:
	.loc    1  203  is_stmt 1
        movl      %r9d, (%r10,%r11,4)                           #203.4
..LN1025:
	.loc    1  204  is_stmt 1
        incq      %r11                                          #204.6
..LN1026:
        movq      %r11, 2624(%rsp)                              #204.6
..LN1027:
	.loc    1  205  is_stmt 1
        cmpq      $10000000, %r11                               #205.16
..LN1028:
        jg        ..B6.104      # Prob 0%                       #205.16
..LN1029:
                                # LOE rbx r12 r13 r14 r15
..B6.101:                       # Preds ..B6.94 ..B6.90 ..B6.104 ..B6.100 ..B6.99
                                #       ..B6.97                 # Infreq
..LN1030:
	.loc    1  176  is_stmt 1
        incq      %r13                                          #176.47
..LN1031:
        cmpq      2752(%rsp), %r13                              #176.42
..LN1032:
        jl        ..B6.87       # Prob 82%                      #176.42
..LN1033:
                                # LOE rbx r12 r13 r14 r15
..B6.102:                       # Preds ..B6.101                # Infreq
..LN1034:
        movl      2680(%rsp), %ecx                              #
..LN1035:
        incl      %ecx                                          #176.23
..LN1036:
        movq      2672(%rsp), %r10                              #
..LN1037:
        movq      2752(%rsp), %rsi                              #
..LN1038:
        addq      %rsi, %r10                                    #176.23
..LN1039:
        movl      2664(%rsp), %edx                              #
..LN1040:
        movl      2648(%rsp), %eax                              #
..LN1041:
        lea       1(%rdx,%rax), %edx                            #176.23
..LN1042:
        movq      2656(%rsp), %rdi                              #
..LN1043:
        movq      24(%rbp), %r9                                 #
..LN1044:
        movq      16(%rbp), %r8                                 #
..LN1045:
        cmpl      2640(%rsp), %ecx                              #176.18
..LN1046:
        jl        ..B6.85       # Prob 82%                      #176.18
..LN1047:
                                # LOE rsi rdi r8 r9 r10 eax edx ecx esi edi sil dil
..B6.103:                       # Preds ..B6.102                # Infreq
..LN1048:
        vmovsd    .L_2il0floatpacket.1(%rip), %xmm0             #
..LN1049:
        movq      2696(%rsp), %rbx                              #
..LN1050:
        movq      2712(%rsp), %r12                              #
..LN1051:
        movq      2616(%rsp), %rax                              #
..LN1052:
        movl      2640(%rsp), %r13d                             #
..LN1053:
        movq      2608(%rsp), %r11                              #
..LN1054:
        movq      2600(%rsp), %r15                              #
..LN1055:
        movq      2592(%rsp), %r14                              #
..LN1056:
        jmp       ..B6.81       # Prob 100%                     #
..LN1057:
                                # LOE rax rbx rsi rdi r8 r9 r11 r12 r14 r15 r13d xmm0
..B6.104:                       # Preds ..B6.100                # Infreq
..LN1058:
	.loc    1  205  is_stmt 1
        movl      $.L_2__STRING.0, %edi                         #205.26
..___tag_value_create_xgrid_1dx2d_order1_.164:
..LN1059:
#       error_handler(const char *)
        call      error_handler                                 #205.26
..___tag_value_create_xgrid_1dx2d_order1_.165:
..LN1060:
        jmp       ..B6.101      # Prob 100%                     #205.26
..LN1061:
                                # LOE rbx r12 r13 r14 r15
..B6.105:                       # Preds ..B6.85                 # Infreq
..LN1062:
	.loc    1  176  is_stmt 1
        incl      %ecx                                          #176.23
..LN1063:
        addq      %rsi, %r10                                    #176.23
..LN1064:
        lea       1(%rdx,%rax), %edx                            #176.23
..LN1065:
        cmpl      2640(%rsp), %ecx                              #176.18
..LN1066:
        jl        ..B6.85       # Prob 82%                      #176.18
..LN1067:
                                # LOE rsi rdi r8 r9 r10 eax edx ecx
..B6.106:                       # Preds ..B6.105                # Infreq
..LN1068:
        vmovsd    .L_2il0floatpacket.1(%rip), %xmm0             #
..LN1069:
        movq      2696(%rsp), %rbx                              #
..LN1070:
        movq      2712(%rsp), %r12                              #
..LN1071:
        movq      2616(%rsp), %rax                              #
..LN1072:
        movl      2640(%rsp), %r13d                             #
..LN1073:
        movq      2608(%rsp), %r11                              #
..LN1074:
        movq      2600(%rsp), %r15                              #
..LN1075:
        movq      2592(%rsp), %r14                              #
..LN1076:
        jmp       ..B6.81       # Prob 100%                     #
..LN1077:
                                # LOE rax rbx rsi rdi r8 r9 r11 r12 r14 r15 r13d xmm0
..B6.107:                       # Preds ..B6.111 ..B6.82        # Infreq
..LN1078:
        movq      %rdi, %r14                                    #
..LN1079:
                                # LOE r14
..B6.108:                       # Preds ..B6.107 ..B6.76        # Infreq
..LN1080:
	.loc    1  211  is_stmt 1
        movq      2160(%rsp), %rdi                              #211.3
..LN1081:
#       free(void *)
        call      free                                          #211.3
..LN1082:
                                # LOE r14
..B6.109:                       # Preds ..B6.108                # Infreq
..LN1083:
	.loc    1  212  is_stmt 1
        movq      %r14, %rdi                                    #212.3
..LN1084:
#       free(void *)
        call      free                                          #212.3
..LN1085:
                                # LOE
..B6.110:                       # Preds ..B6.109                # Infreq
..LN1086:
	.loc    1  129  is_stmt 1
        movq      2624(%rsp), %rax                              #129.10
..LN1087:
	.loc    1  129  epilogue_begin  is_stmt 1
        addq      $2776, %rsp                                   #129.10
	.cfi_restore 3
..LN1088:
        popq      %rbx                                          #129.10
	.cfi_restore 15
..LN1089:
        popq      %r15                                          #129.10
	.cfi_restore 14
..LN1090:
        popq      %r14                                          #129.10
	.cfi_restore 13
..LN1091:
        popq      %r13                                          #129.10
	.cfi_restore 12
..LN1092:
        popq      %r12                                          #129.10
..LN1093:
        movq      %rbp, %rsp                                    #129.10
..LN1094:
        popq      %rbp                                          #129.10
	.cfi_def_cfa 7, 8
	.cfi_restore 6
..LN1095:
        ret                                                     #129.10
	.cfi_def_cfa 6, 16
	.cfi_escape 0x10, 0x03, 0x0e, 0x38, 0x1c, 0x0d, 0xe0, 0xff, 0xff, 0xff, 0x1a, 0x0d, 0xd8, 0xff, 0xff, 0xff, 0x22
	.cfi_offset 6, -16
	.cfi_escape 0x10, 0x0c, 0x0e, 0x38, 0x1c, 0x0d, 0xe0, 0xff, 0xff, 0xff, 0x1a, 0x0d, 0xf8, 0xff, 0xff, 0xff, 0x22
	.cfi_escape 0x10, 0x0d, 0x0e, 0x38, 0x1c, 0x0d, 0xe0, 0xff, 0xff, 0xff, 0x1a, 0x0d, 0xf0, 0xff, 0xff, 0xff, 0x22
	.cfi_escape 0x10, 0x0e, 0x0e, 0x38, 0x1c, 0x0d, 0xe0, 0xff, 0xff, 0xff, 0x1a, 0x0d, 0xe8, 0xff, 0xff, 0xff, 0x22
	.cfi_escape 0x10, 0x0f, 0x0e, 0x38, 0x1c, 0x0d, 0xe0, 0xff, 0xff, 0xff, 0x1a, 0x0d, 0xe0, 0xff, 0xff, 0xff, 0x22
..LN1096:
                                # LOE
..B6.111:                       # Preds ..B6.78                 # Infreq
..LN1097:
	.loc    1  172  is_stmt 1
        incl      %ecx                                          #172.21
..LN1098:
        addq      %r11, %rdx                                    #172.21
..LN1099:
        incq      %rax                                          #172.21
..LN1100:
        cmpl      %r15d, %ecx                                   #172.16
..LN1101:
        jl        ..B6.78       # Prob 82%                      #172.16
..LN1102:
        jmp       ..B6.107      # Prob 100%                     #172.16
..LN1103:
                                # LOE rax rdx rsi rdi r8 r9 r11 r13 ecx r14d r15d xmm0
..B6.113:                       # Preds ..B6.67                 # Infreq
..LN1104:
	.loc    1  75  is_stmt 1
        incl      %r9d                                          #75.18
..LN1105:
        addq      %r8, %r10                                     #75.18
..LN1106:
        lea       1(%rsi,%rax), %esi                            #75.18
..LN1107:
        cmpl      984(%rsp), %r9d                               #75.14
..LN1108:
        jl        ..B6.67       # Prob 82%                      #75.14
..LN1109:
        jmp       ..B6.73       # Prob 100%                     #75.14
..LN1110:
                                # LOE rdx rcx rdi r8 r10 eax esi r9d
..B6.115:                       # Preds ..B6.51                 # Infreq
..LN1111:
        incl      %ecx                                          #75.18
..LN1112:
        addq      %rsi, %rdx                                    #75.18
..LN1113:
        lea       1(%rax,%r8), %eax                             #75.18
..LN1114:
        cmpl      328(%rsp), %ecx                               #75.14
..LN1115:
        jl        ..B6.51       # Prob 82%                      #75.14
..LN1116:
        jmp       ..B6.64       # Prob 100%                     #75.14
..LN1117:
                                # LOE rdx rsi rdi r9 r10 eax ecx r8d
..B6.117:                       # Preds ..B6.59                 # Infreq
..LN1118:
	.loc    1  100  is_stmt 1
        incl      %ecx                                          #100.18
..LN1119:
        addq      %rsi, %rdx                                    #100.18
..LN1120:
        lea       1(%rax,%r8), %eax                             #100.18
..LN1121:
        cmpl      8(%rsp), %ecx                                 #100.14
..LN1122:
        jl        ..B6.59       # Prob 82%                      #100.14
..LN1123:
        jmp       ..B6.64       # Prob 100%                     #100.14
..LN1124:
                                # LOE rdx rsi rdi r9 r10 eax ecx r8d
..B6.120:                       # Preds ..B6.38                 # Infreq
..LN1125:
	.loc    1  158  is_stmt 1
        xorl      %r12d, %r12d                                  #158.28
..LN1126:
        jmp       ..B6.42       # Prob 100%                     #158.28
..LN1127:
                                # LOE rax rdx rcx r9 r10 r11 r12 r13 ebx esi r8d r14d
..B6.121:                       # Preds ..B6.25 ..B6.27 ..B6.29 # Infreq
..LN1128:
        xorl      %r14d, %r14d                                  #158.28
..LN1129:
        jmp       ..B6.37       # Prob 100%                     #158.28
..LN1130:
                                # LOE rax rdx rcx r9 r10 r11 ebx esi r8d r14d
..B6.124:                       # Preds ..B6.8 ..B6.11 ..B6.13  # Infreq
..LN1131:
        xorl      %r14d, %r14d                                  #158.28
..LN1132:
        jmp       ..B6.21       # Prob 100%                     #158.28
..LN1133:
                                # LOE rax rdx rcx r9 r10 r11 r14 ebx esi r8d
..B6.126:                       # Preds ..B6.9                  # Infreq
..LN1134:
        movq      (%rsp), %r14                                  #158.28
..LN1135:
        xorl      %r12d, %r12d                                  #158.28
..LN1136:
        jmp       ..B6.18       # Prob 100%                     #158.28
..LN1137:
        .align    16,0x90
	.cfi_endproc
..LN1138:
                                # LOE rax rdx rcx r9 r10 r11 r12 r13 r14 ebx esi r8d
..LN1139:
# mark_end;
	.type	create_xgrid_1dx2d_order1_,@function
	.size	create_xgrid_1dx2d_order1_,.-create_xgrid_1dx2d_order1_
..LNcreate_xgrid_1dx2d_order1_.1140:
.LNcreate_xgrid_1dx2d_order1_:
	.data
# -- End  create_xgrid_1dx2d_order1_
	.text
.L_2__routine_start_create_xgrid_1dx2d_order1_6:
# -- Begin  create_xgrid_1dx2d_order1
	.text
# mark_begin;
       .align    16,0x90
	.globl create_xgrid_1dx2d_order1
# --- create_xgrid_1dx2d_order1(const int *, const int *, const int *, const int *, const double *, const double *, const double *, const double *, const double *, int *, int *, int *, int *, double *)
create_xgrid_1dx2d_order1:
# parameter 1(nlon_in): %rdi
# parameter 2(nlat_in): %rsi
# parameter 3(nlon_out): %rdx
# parameter 4(nlat_out): %rcx
# parameter 5(lon_in): %r8
# parameter 6(lat_in): %r9
# parameter 7(lon_out): 16 + %rbp
# parameter 8(lat_out): 24 + %rbp
# parameter 9(mask_in): 32 + %rbp
# parameter 10(i_in): 40 + %rbp
# parameter 11(j_in): 48 + %rbp
# parameter 12(i_out): 56 + %rbp
# parameter 13(j_out): 64 + %rbp
# parameter 14(xgrid_area): 72 + %rbp
..B7.1:                         # Preds ..B7.0
	.cfi_startproc
..___tag_value_create_xgrid_1dx2d_order1.185:
..L186:
                                                        #137.1
..LN1141:
	.loc    1  137  is_stmt 1
        pushq     %rbp                                          #137.1
	.cfi_def_cfa_offset 16
..LN1142:
        movq      %rsp, %rbp                                    #137.1
	.cfi_def_cfa 6, 16
	.cfi_offset 6, -16
..LN1143:
        andq      $-32, %rsp                                    #137.1
..LN1144:
        pushq     %r12                                          #137.1
..LN1145:
        pushq     %r13                                          #137.1
..LN1146:
        pushq     %r14                                          #137.1
..LN1147:
        pushq     %r15                                          #137.1
..LN1148:
        pushq     %rbx                                          #137.1
..LN1149:
        subq      $2776, %rsp                                   #137.1
	.cfi_escape 0x10, 0x03, 0x0e, 0x38, 0x1c, 0x0d, 0xe0, 0xff, 0xff, 0xff, 0x1a, 0x0d, 0xd8, 0xff, 0xff, 0xff, 0x22
	.cfi_escape 0x10, 0x0c, 0x0e, 0x38, 0x1c, 0x0d, 0xe0, 0xff, 0xff, 0xff, 0x1a, 0x0d, 0xf8, 0xff, 0xff, 0xff, 0x22
	.cfi_escape 0x10, 0x0d, 0x0e, 0x38, 0x1c, 0x0d, 0xe0, 0xff, 0xff, 0xff, 0x1a, 0x0d, 0xf0, 0xff, 0xff, 0xff, 0x22
	.cfi_escape 0x10, 0x0e, 0x0e, 0x38, 0x1c, 0x0d, 0xe0, 0xff, 0xff, 0xff, 0x1a, 0x0d, 0xe8, 0xff, 0xff, 0xff, 0x22
	.cfi_escape 0x10, 0x0f, 0x0e, 0x38, 0x1c, 0x0d, 0xe0, 0xff, 0xff, 0xff, 0x1a, 0x0d, 0xe0, 0xff, 0xff, 0xff, 0x22
..LN1150:
        movq      %rdi, %rbx                                    #137.1
..LN1151:
        movq      %rsi, %r12                                    #137.1
..LN1152:
        movq      %rdx, %r13                                    #137.1
..LN1153:
        movq      %rcx, %r15                                    #137.1
..LN1154:
        movq      %r9, 2592(%rsp)                               #137.1
..LN1155:
	.loc    1  145  prologue_end  is_stmt 1
        movl      (%rbx), %edi                                  #145.10
..LN1156:
        movl      %edi, 2184(%rsp)                              #145.10
..LN1157:
	.loc    1  172  is_stmt 1
        movslq    %edi, %rdi                                    #172.21
..LN1158:
        movq      %rdi, 2608(%rsp)                              #172.21
..LN1159:
	.loc    1  146  is_stmt 1
        movl      (%r12), %r11d                                 #146.10
..LN1160:
	.loc    1  154  is_stmt 1
        imull     %r11d, %edi                                   #154.23
..LN1161:
        movslq    %edi, %rdi                                    #154.23
..LN1162:
	.loc    1  147  is_stmt 1
        movl      (%r13), %eax                                  #147.10
..LN1163:
	.loc    1  148  is_stmt 1
        movl      (%r15), %r10d                                 #148.10
..LN1164:
	.loc    1  154  is_stmt 1
        shlq      $3, %rdi                                      #154.23
..LN1165:
	.loc    1  147  is_stmt 1
        movl      %eax, 2648(%rsp)                              #147.10
..LN1166:
	.loc    1  176  is_stmt 1
        movslq    %eax, %rax                                    #176.23
..LN1167:
	.loc    1  137  is_stmt 1
        movq      %r8, 2600(%rsp)                               #137.1
..LN1168:
	.loc    1  146  is_stmt 1
        movl      %r11d, 2168(%rsp)                             #146.10
..LN1169:
	.loc    1  176  is_stmt 1
        movq      %rax, 2752(%rsp)                              #176.23
..LN1170:
	.loc    1  148  is_stmt 1
        movl      %r10d, 2640(%rsp)                             #148.10
..LN1171:
	.loc    1  150  is_stmt 1
        movq      $0, 2624(%rsp)                                #150.3
..LN1172:
	.loc    1  154  is_stmt 1
#       malloc(size_t)
        call      malloc                                        #154.23
..LN1173:
                                # LOE rax rbx r12 r13 r15
..B7.130:                       # Preds ..B7.1
..LN1174:
        movq      %rax, 2160(%rsp)                              #154.23
..LN1175:
                                # LOE rbx r12 r13 r15
..B7.2:                         # Preds ..B7.130
..LN1176:
	.loc    1  155  is_stmt 1
        movl      2648(%rsp), %edi                              #155.24
..LN1177:
        imull     2640(%rsp), %edi                              #155.24
..LN1178:
        movslq    %edi, %rdi                                    #155.24
..LN1179:
        shlq      $3, %rdi                                      #155.24
..LN1180:
#       malloc(size_t)
        call      malloc                                        #155.24
..LN1181:
                                # LOE rax rbx r12 r13 r15
..B7.131:                       # Preds ..B7.2
..LN1182:
        movq      %rax, %r14                                    #155.24
..LN1183:
                                # LOE rbx r12 r13 r14 r15
..B7.3:                         # Preds ..B7.131
..LN1184:
	.loc    1  156  is_stmt 1
        movl      2184(%rsp), %eax                              #156.32
..LN1185:
        movl      2168(%rsp), %edx                              #156.40
..LN1186:
        lea       1(%rax), %edi                                 #156.32
..LN1187:
        movl      %edi, 24(%rsp)                                #156.32
..LN1188:
        lea       1(%rdx), %ecx                                 #156.40
..LN1189:
	.loc    1  158  is_stmt 1
        movslq    %edi, %rdi                                    #158.32
..LN1190:
        movq      %rdi, 32(%rsp)                                #158.32
..LN1191:
	.loc    1  156  is_stmt 1
        imull     %ecx, %edi                                    #156.40
..LN1192:
        movslq    %edi, %rdi                                    #156.40
..LN1193:
        shlq      $3, %rdi                                      #156.43
..LN1194:
        movl      %ecx, 40(%rsp)                                #156.40
..LN1195:
        movq      %rdi, (%rsp)                                  #156.43
..LN1196:
#       malloc(size_t)
        call      malloc                                        #156.20
..LN1197:
                                # LOE rax rbx r12 r13 r14 r15
..B7.132:                       # Preds ..B7.3
..LN1198:
        movq      %rax, 960(%rsp)                               #156.20
..LN1199:
                                # LOE rbx r12 r13 r14 r15
..B7.4:                         # Preds ..B7.132
..LN1200:
	.loc    1  157  is_stmt 1
        movq      (%rsp), %rdi                                  #157.20
..LN1201:
#       malloc(size_t)
        call      malloc                                        #157.20
..LN1202:
                                # LOE rax rbx r12 r13 r14 r15
..B7.133:                       # Preds ..B7.4
..LN1203:
        movq      %rax, 968(%rsp)                               #157.20
..LN1204:
                                # LOE rbx r12 r13 r14 r15
..B7.5:                         # Preds ..B7.133
..LN1205:
	.loc    1  158  is_stmt 1
        xorl      %r9d, %r9d                                    #158.32
..LN1206:
        xorl      %r8d, %r8d                                    #158.3
..LN1207:
        xorl      %r10d, %r10d                                  #158.32
..LN1208:
        cmpl      $0, 2168(%rsp)                                #158.17
..LN1209:
        jl        ..B7.48       # Prob 9%                       #158.17
..LN1210:
                                # LOE rbx r9 r10 r12 r13 r14 r15 r8d
..B7.6:                         # Preds ..B7.5
..LN1211:
        movq      2608(%rsp), %rsi                              #158.28
..LN1212:
        movq      %rbx, 8(%rsp)                                 #158.28
..LN1213:
        movq      %r14, 2656(%rsp)                              #158.28
..LN1214:
        movq      %r12, 16(%rsp)                                #158.28
..LN1215:
        lea       1(%rsi), %r11                                 #158.28
..LN1216:
        movl      %r11d, %esi                                   #158.28
..LN1217:
        movl      %esi, %eax                                    #158.28
..LN1218:
        andl      $-4, %eax                                     #158.28
..LN1219:
        movslq    %eax, %rax                                    #158.28
..LN1220:
        movq      %rax, (%rsp)                                  #158.28
..LN1221:
        movq      %r13, 640(%rsp)                               #158.28
..LN1222:
        movq      %r15, 648(%rsp)                               #158.28
..LN1223:
        movq      968(%rsp), %rax                               #158.28
..LN1224:
        movq      960(%rsp), %rdx                               #158.28
..LN1225:
        movl      24(%rsp), %ebx                                #158.28
..LN1226:
        movq      2592(%rsp), %rcx                              #158.28
..LN1227:
                                # LOE rax rdx rcx r9 r10 r11 ebx esi r8d
..B7.7:                         # Preds ..B7.46 ..B7.6
..L196:         # optimization report
                # %s was not vectorized: inner loop was already vectorized
..LN1228:
        cmpl      $0, 2184(%rsp)                                #158.42
..LN1229:
        jl        ..B7.46       # Prob 50%                      #158.42
..LN1230:
                                # LOE rax rdx rcx r9 r10 r11 ebx esi r8d
..B7.8:                         # Preds ..B7.7
..LN1231:
        cmpq      $4, %r11                                      #158.28
..LN1232:
        jl        ..B7.124      # Prob 10%                      #158.28
..LN1233:
                                # LOE rax rdx rcx r9 r10 r11 ebx esi r8d
..B7.9:                         # Preds ..B7.8
..LN1234:
	.loc    1  159  is_stmt 1
        lea       (%rdx,%r9,8), %r13                            #159.5
..LN1235:
	.loc    1  158  is_stmt 1
        cmpq      $95, %r11                                     #158.28
..LN1236:
        jl        ..B7.126      # Prob 10%                      #158.28
..LN1237:
                                # LOE rax rdx rcx r9 r10 r11 r13 ebx esi r8d
..B7.10:                        # Preds ..B7.9
..LN1238:
        movq      %r13, %r14                                    #158.28
..LN1239:
        andq      $31, %r14                                     #158.28
..LN1240:
        testl     %r14d, %r14d                                  #158.28
..LN1241:
        je        ..B7.13       # Prob 50%                      #158.28
..LN1242:
                                # LOE rax rdx rcx r9 r10 r11 r13 ebx esi r8d r14d
..B7.11:                        # Preds ..B7.10
..LN1243:
        testl     $7, %r14d                                     #158.28
..LN1244:
        jne       ..B7.124      # Prob 10%                      #158.28
..LN1245:
                                # LOE rax rdx rcx r9 r10 r11 r13 ebx esi r8d r14d
..B7.12:                        # Preds ..B7.11
..LN1246:
        negl      %r14d                                         #158.28
..LN1247:
        addl      $32, %r14d                                    #158.28
..LN1248:
        shrl      $3, %r14d                                     #158.28
..LN1249:
                                # LOE rax rdx rcx r9 r10 r11 r13 ebx esi r8d r14d
..B7.13:                        # Preds ..B7.12 ..B7.10
..LN1250:
        movl      %r14d, %r12d                                  #158.28
..LN1251:
        lea       4(%r12), %rdi                                 #158.28
..LN1252:
        cmpq      %rdi, %r11                                    #158.28
..LN1253:
        jl        ..B7.124      # Prob 10%                      #158.28
..LN1254:
                                # LOE rax rdx rcx r9 r10 r11 r12 r13 ebx esi r8d r14d
..B7.14:                        # Preds ..B7.13
..LN1255:
        negl      %r14d                                         #158.28
..LN1256:
        xorl      %edi, %edi                                    #158.28
..LN1257:
        addl      %esi, %r14d                                   #158.28
..LN1258:
        andl      $3, %r14d                                     #158.28
..LN1259:
        negl      %r14d                                         #158.28
..LN1260:
        addl      %esi, %r14d                                   #158.28
..LN1261:
        movslq    %r14d, %r14                                   #158.28
..LN1262:
        testq     %r12, %r12                                    #158.28
..LN1263:
        jbe       ..B7.18       # Prob 10%                      #158.28
..LN1264:
                                # LOE rax rdx rcx rdi r9 r10 r11 r12 r13 r14 ebx esi r8d
..B7.15:                        # Preds ..B7.14
..LN1265:
        movq      2600(%rsp), %r15                              #
..LN1266:
                                # LOE rax rdx rdi r9 r10 r11 r12 r13 r14 r15 ebx esi r8d
..B7.16:                        # Preds ..B7.16 ..B7.15
..L197:         # optimization report
                # LOOP WAS DISTRIBUTED, CHUNK 1
                # LOOP WAS UNROLLED BY 1
                # PEELED LOOP FOR VECTORIZATION
                # VECTORIZATION SPEEDUP COEFFECIENT 8.601562
                # VECTOR TRIP COUNT IS ESTIMATED CONSTANT
                # VECTOR LENGTH 4
                # NORMALIZED VECTORIZATION OVERHEAD 3.250000
..LN1267:
	.loc    1  159  is_stmt 1
        movq      (%r15,%rdi,8), %rcx                           #159.24
..LN1268:
        movq      %rcx, (%r13,%rdi,8)                           #159.5
..LN1269:
	.loc    1  158  is_stmt 1
        incq      %rdi                                          #158.28
..LN1270:
        cmpq      %r12, %rdi                                    #158.28
..LN1271:
        jb        ..B7.16       # Prob 82%                      #158.28
..LN1272:
                                # LOE rax rdx rdi r9 r10 r11 r12 r13 r14 r15 ebx esi r8d
..B7.17:                        # Preds ..B7.16
..LN1273:
        movq      2592(%rsp), %rcx                              #
..LN1274:
                                # LOE rax rdx rcx r9 r10 r11 r12 r13 r14 ebx esi r8d
..B7.18:                        # Preds ..B7.17 ..B7.14 ..B7.126
..LN1275:
        movq      2600(%rsp), %rdi                              #
..LN1276:
                                # LOE rax rdx rcx rdi r9 r10 r11 r12 r13 r14 ebx esi r8d
..B7.19:                        # Preds ..B7.19 ..B7.18
..L198:         # optimization report
                # LOOP WAS DISTRIBUTED, CHUNK 1
                # LOOP WAS UNROLLED BY 1
                # LOOP WAS VECTORIZED
                # VECTORIZATION HAS UNALIGNED MEMORY REFERENCES
                # VECTORIZATION SPEEDUP COEFFECIENT 8.601562
                # VECTOR TRIP COUNT IS ESTIMATED CONSTANT
                # VECTOR LENGTH 4
                # NORMALIZED VECTORIZATION OVERHEAD 3.250000
                # MAIN VECTOR TYPE: 64-bits floating point
..LN1277:
	.loc    1  159  is_stmt 1
        vmovupd   (%rdi,%r12,8), %ymm0                          #159.24
..LN1278:
        vmovupd   %ymm0, (%r13,%r12,8)                          #159.5
..LN1279:
	.loc    1  158  is_stmt 1
        addq      $4, %r12                                      #158.28
..LN1280:
        cmpq      %r14, %r12                                    #158.28
..LN1281:
        jb        ..B7.19       # Prob 82%                      #158.28
..LN1282:
                                # LOE rax rdx rcx rdi r9 r10 r11 r12 r13 r14 ebx esi r8d
..B7.21:                        # Preds ..B7.19 ..B7.124
..LN1283:
        cmpq      %r11, %r14                                    #158.28
..LN1284:
        jae       ..B7.25       # Prob 10%                      #158.28
..LN1285:
                                # LOE rax rdx rcx r9 r10 r11 r14 ebx esi r8d
..B7.22:                        # Preds ..B7.21
..LN1286:
	.loc    1  159  is_stmt 1
        movq      2600(%rsp), %r13                              #159.5
..LN1287:
        lea       (%rdx,%r9,8), %rdi                            #159.5
..LN1288:
                                # LOE rax rdx rcx rdi r9 r10 r11 r13 r14 ebx esi r8d
..B7.23:                        # Preds ..B7.23 ..B7.22
..L199:         # optimization report
                # LOOP WAS DISTRIBUTED, CHUNK 1
                # LOOP WAS UNROLLED BY 1
                # REMAINDER LOOP FOR VECTORIZATION
                # VECTORIZATION SPEEDUP COEFFECIENT 8.601562
                # VECTOR TRIP COUNT IS ESTIMATED CONSTANT
                # VECTOR LENGTH 4
                # NORMALIZED VECTORIZATION OVERHEAD 3.250000
..LN1289:
        movq      (%r13,%r14,8), %r12                           #159.24
..LN1290:
        movq      %r12, (%rdi,%r14,8)                           #159.5
..LN1291:
	.loc    1  158  is_stmt 1
        incq      %r14                                          #158.28
..LN1292:
        cmpq      %r11, %r14                                    #158.28
..LN1293:
        jb        ..B7.23       # Prob 82%                      #158.28
..LN1294:
                                # LOE rax rdx rcx rdi r9 r10 r11 r13 r14 ebx esi r8d
..B7.25:                        # Preds ..B7.23 ..B7.21
..LN1295:
        cmpl      $16, %ebx                                     #158.28
..LN1296:
        jl        ..B7.121      # Prob 10%                      #158.28
..LN1297:
                                # LOE rax rdx rcx r9 r10 r11 ebx esi r8d
..B7.26:                        # Preds ..B7.25
..LN1298:
	.loc    1  160  is_stmt 1
        lea       (%rax,%r9,8), %rdi                            #160.5
..LN1299:
	.loc    1  158  is_stmt 1
        movq      %rdi, %r13                                    #158.28
..LN1300:
        andq      $31, %r13                                     #158.28
..LN1301:
        movl      %r13d, %r13d                                  #158.28
..LN1302:
        testl     %r13d, %r13d                                  #158.28
..LN1303:
        je        ..B7.29       # Prob 50%                      #158.28
..LN1304:
                                # LOE rax rdx rcx rdi r9 r10 r11 r13 ebx esi r8d
..B7.27:                        # Preds ..B7.26
..LN1305:
        testl     $7, %r13d                                     #158.28
..LN1306:
        jne       ..B7.121      # Prob 10%                      #158.28
..LN1307:
                                # LOE rax rdx rcx rdi r9 r10 r11 r13 ebx esi r8d
..B7.28:                        # Preds ..B7.27
..LN1308:
        negl      %r13d                                         #158.28
..LN1309:
        addl      $32, %r13d                                    #158.28
..LN1310:
        shrl      $3, %r13d                                     #158.28
..LN1311:
                                # LOE rax rdx rcx rdi r9 r10 r11 r13 ebx esi r8d
..B7.29:                        # Preds ..B7.28 ..B7.26
..LN1312:
        lea       16(%r13), %r12d                               #158.28
..LN1313:
        cmpl      %r12d, %ebx                                   #158.28
..LN1314:
        jl        ..B7.121      # Prob 10%                      #158.28
..LN1315:
                                # LOE rax rdx rcx rdi r9 r10 r11 r13 ebx esi r8d
..B7.30:                        # Preds ..B7.29
..LN1316:
        movl      %ebx, %r14d                                   #158.28
..LN1317:
        xorl      %r12d, %r12d                                  #158.28
..LN1318:
        subl      %r13d, %r14d                                  #158.28
..LN1319:
        andl      $15, %r14d                                    #158.28
..LN1320:
        negl      %r14d                                         #158.28
..LN1321:
        addl      %ebx, %r14d                                   #158.28
..LN1322:
	.loc    1  160  is_stmt 1
        vmovsd    (%rcx,%r10,8), %xmm0                          #160.24
..LN1323:
	.loc    1  158  is_stmt 1
        testq     %r13, %r13                                    #158.28
..LN1324:
        jbe       ..B7.34       # Prob 10%                      #158.28
..LN1325:
                                # LOE rax rdx rcx rdi r9 r10 r11 r12 r13 ebx esi r8d r14d xmm0
..B7.32:                        # Preds ..B7.30 ..B7.32
..L200:         # optimization report
                # LOOP WAS DISTRIBUTED, CHUNK 2
                # LOOP WAS UNROLLED BY 4
                # PEELED LOOP FOR VECTORIZATION
                # VECTORIZATION SPEEDUP COEFFECIENT 8.648438
                # VECTOR TRIP COUNT IS ESTIMATED CONSTANT
                # VECTOR LENGTH 4
                # NORMALIZED VECTORIZATION OVERHEAD 0.937500
..LN1326:
	.loc    1  160  is_stmt 1
        vmovsd    %xmm0, (%rdi,%r12,8)                          #160.5
..LN1327:
	.loc    1  158  is_stmt 1
        incq      %r12                                          #158.28
..LN1328:
        cmpq      %r13, %r12                                    #158.28
..LN1329:
        jb        ..B7.32       # Prob 82%                      #158.28
..LN1330:
                                # LOE rax rdx rcx rdi r9 r10 r11 r12 r13 ebx esi r8d r14d xmm0
..B7.34:                        # Preds ..B7.32 ..B7.30
..LN1331:
        movslq    %r14d, %r12                                   #158.28
..LN1332:
	.loc    1  160  is_stmt 1
        vbroadcastsd %xmm0, %ymm0                               #160.24
..LN1333:
                                # LOE rax rdx rcx rdi r9 r10 r11 r12 r13 ebx esi r8d r14d ymm0
..B7.35:                        # Preds ..B7.35 ..B7.34
..L201:         # optimization report
                # LOOP WAS DISTRIBUTED, CHUNK 2
                # LOOP WAS UNROLLED BY 4
                # LOOP WAS VECTORIZED
                # VECTORIZATION SPEEDUP COEFFECIENT 8.648438
                # VECTOR TRIP COUNT IS ESTIMATED CONSTANT
                # VECTOR LENGTH 4
                # NORMALIZED VECTORIZATION OVERHEAD 0.937500
                # MAIN VECTOR TYPE: 64-bits floating point
..LN1334:
        vmovupd   %ymm0, (%rdi,%r13,8)                          #160.5
..LN1335:
        vmovupd   %ymm0, 32(%rdi,%r13,8)                        #160.5
..LN1336:
        vmovupd   %ymm0, 64(%rdi,%r13,8)                        #160.5
..LN1337:
        vmovupd   %ymm0, 96(%rdi,%r13,8)                        #160.5
..LN1338:
	.loc    1  158  is_stmt 1
        addq      $16, %r13                                     #158.28
..LN1339:
        cmpq      %r12, %r13                                    #158.28
..LN1340:
        jb        ..B7.35       # Prob 82%                      #158.28
..LN1341:
                                # LOE rax rdx rcx rdi r9 r10 r11 r12 r13 ebx esi r8d r14d ymm0
..B7.37:                        # Preds ..B7.35 ..B7.121
..LN1342:
        lea       1(%r14), %edi                                 #158.28
..LN1343:
        cmpl      %edi, %ebx                                    #158.28
..LN1344:
        jb        ..B7.46       # Prob 50%                      #158.28
..LN1345:
                                # LOE rax rdx rcx r9 r10 r11 ebx esi r8d r14d
..B7.38:                        # Preds ..B7.37
..LN1346:
        movslq    %r14d, %r13                                   #158.28
..LN1347:
        negq      %r13                                          #158.28
..LN1348:
        addq      32(%rsp), %r13                                #158.28
..LN1349:
        cmpq      $4, %r13                                      #158.28
..LN1350:
        jl        ..B7.120      # Prob 10%                      #158.28
..LN1351:
                                # LOE rax rdx rcx r9 r10 r11 r13 ebx esi r8d r14d
..B7.39:                        # Preds ..B7.38
..LN1352:
	.loc    1  160  is_stmt 1
        movslq    %r14d, %r15                                   #160.5
..LN1353:
	.loc    1  158  is_stmt 1
        movl      %r13d, %r12d                                  #158.28
..LN1354:
	.loc    1  160  is_stmt 1
        addq      %r9, %r15                                     #160.5
..LN1355:
	.loc    1  158  is_stmt 1
        andl      $-4, %r12d                                    #158.28
..LN1356:
	.loc    1  160  is_stmt 1
        vbroadcastsd (%rcx,%r10,8), %ymm0                       #160.24
..LN1357:
	.loc    1  158  is_stmt 1
        xorl      %edi, %edi                                    #158.28
..LN1358:
        movslq    %r12d, %r12                                   #158.28
..LN1359:
	.loc    1  160  is_stmt 1
        lea       (%rax,%r15,8), %r15                           #160.5
..LN1360:
                                # LOE rax rdx rcx rdi r9 r10 r11 r12 r13 r15 ebx esi r8d r14d ymm0
..B7.40:                        # Preds ..B7.40 ..B7.39
..L202:         # optimization report
                # LOOP WAS DISTRIBUTED, CHUNK 2
                # LOOP WAS VECTORIZED
                # REMAINDER LOOP FOR VECTORIZATION
                # VECTORIZATION HAS UNALIGNED MEMORY REFERENCES
                # VECTORIZATION SPEEDUP COEFFECIENT 2.542969
                # VECTOR TRIP COUNT IS ESTIMATED CONSTANT
                # VECTOR LENGTH 4
                # NORMALIZED VECTORIZATION OVERHEAD 2.750000
                # MAIN VECTOR TYPE: 64-bits floating point
..LN1361:
        vmovupd   %ymm0, (%r15,%rdi,8)                          #160.5
..LN1362:
	.loc    1  158  is_stmt 1
        addq      $4, %rdi                                      #158.28
..LN1363:
        cmpq      %r12, %rdi                                    #158.28
..LN1364:
        jb        ..B7.40       # Prob 82%                      #158.28
..LN1365:
                                # LOE rax rdx rcx rdi r9 r10 r11 r12 r13 r15 ebx esi r8d r14d ymm0
..B7.42:                        # Preds ..B7.40 ..B7.120
..LN1366:
        cmpq      %r13, %r12                                    #158.28
..LN1367:
        jae       ..B7.46       # Prob 10%                      #158.28
..LN1368:
                                # LOE rax rdx rcx r9 r10 r11 r12 r13 ebx esi r8d r14d
..B7.43:                        # Preds ..B7.42
..LN1369:
	.loc    1  160  is_stmt 1
        movslq    %r14d, %r14                                   #160.5
..LN1370:
        addq      %r9, %r14                                     #160.5
..LN1371:
        lea       (%rax,%r14,8), %rdi                           #160.5
..LN1372:
        movq      (%rcx,%r10,8), %r14                           #160.24
..LN1373:
                                # LOE rax rdx rcx rdi r9 r10 r11 r12 r13 r14 ebx esi r8d
..B7.44:                        # Preds ..B7.44 ..B7.43
..L203:         # optimization report
                # LOOP WAS DISTRIBUTED, CHUNK 2
                # REMAINDER LOOP FOR VECTORIZATION
                # VECTORIZATION SPEEDUP COEFFECIENT 2.542969
                # VECTOR TRIP COUNT IS ESTIMATED CONSTANT
                # VECTOR LENGTH 4
                # NORMALIZED VECTORIZATION OVERHEAD 2.750000
..LN1374:
        movq      %r14, (%rdi,%r12,8)                           #160.5
..LN1375:
	.loc    1  158  is_stmt 1
        incq      %r12                                          #158.28
..LN1376:
        cmpq      %r13, %r12                                    #158.28
..LN1377:
        jb        ..B7.44       # Prob 82%                      #158.28
..LN1378:
                                # LOE rax rdx rcx rdi r9 r10 r11 r12 r13 r14 ebx esi r8d
..B7.46:                        # Preds ..B7.44 ..B7.7 ..B7.37 ..B7.42
..LN1379:
        incl      %r8d                                          #158.3
..LN1380:
        incq      %r10                                          #158.3
..LN1381:
        addq      32(%rsp), %r9                                 #158.3
..LN1382:
        cmpl      40(%rsp), %r8d                                #158.3
..LN1383:
        jb        ..B7.7        # Prob 82%                      #158.3
..LN1384:
                                # LOE rax rdx rcx r9 r10 r11 ebx esi r8d
..B7.47:                        # Preds ..B7.46
..LN1385:
        movq      2656(%rsp), %r14                              #
..LN1386:
        movq      8(%rsp), %rbx                                 #
..LN1387:
        movq      16(%rsp), %r12                                #
..LN1388:
        movq      640(%rsp), %r13                               #
..LN1389:
        movq      648(%rsp), %r15                               #
..LN1390:
                                # LOE rbx r12 r13 r14 r15
..B7.48:                        # Preds ..B7.5 ..B7.47
..LN1391:
	.loc    1  163  is_stmt 1
        cmpl      $1, 2184(%rsp)                                #163.12
..LN1392:
        jle       ..B7.57       # Prob 50%                      #163.12
..LN1393:
                                # LOE rbx r12 r13 r14 r15
..B7.49:                        # Preds ..B7.48
..LN1394:
	.loc    1  71  is_stmt 1
        movl      (%rbx), %r8d                                  #71.9
..LN1395:
	.loc    1  75  is_stmt 1
        xorl      %ecx, %ecx                                    #75.7
..LN1396:
	.loc    1  72  is_stmt 1
        movl      (%r12), %ebx                                  #72.9
..LN1397:
	.loc    1  75  is_stmt 1
        xorl      %edx, %edx                                    #75.9
..LN1398:
        movslq    %r8d, %rsi                                    #75.18
..LN1399:
        testl     %ebx, %ebx                                    #75.14
..LN1400:
        jle       ..B7.65       # Prob 10%                      #75.14
..LN1401:
                                # LOE rdx rsi r13 r14 r15 ecx ebx r8d
..B7.50:                        # Preds ..B7.49
..LN1402:
        movl      %ebx, 328(%rsp)                               #75.9
..LN1403:
        xorl      %eax, %eax                                    #75.9
..LN1404:
        movq      %r14, 2656(%rsp)                              #75.9
..LN1405:
        movq      %r13, 640(%rsp)                               #75.9
..LN1406:
        movq      %r15, 648(%rsp)                               #75.9
..LN1407:
        movq      968(%rsp), %r10                               #75.9
..LN1408:
        movq      960(%rsp), %rdi                               #75.9
..LN1409:
        movq      2160(%rsp), %r9                               #75.9
..LN1410:
                                # LOE rdx rsi rdi r9 r10 eax ecx r8d
..B7.51:                        # Preds ..B7.56 ..B7.115 ..B7.50
..L204:         # optimization report
                # %s was not vectorized: vector dependence prevents vectorization%s
                # VECTOR TRIP COUNT IS ESTIMATED CONSTANT
..LN1411:
        xorl      %r13d, %r13d                                  #75.27
..LN1412:
        testl     %r8d, %r8d                                    #75.36
..LN1413:
        jle       ..B7.115      # Prob 10%                      #75.36
..LN1414:
                                # LOE rdx rsi rdi r9 r10 r13 eax ecx r8d
..B7.52:                        # Preds ..B7.51
..LN1415:
	.loc    1  85  is_stmt 1
        movq      %rdx, 344(%rsp)                               #85.5
..LN1416:
	.loc    1  78  is_stmt 1
        lea       (%r8,%rax), %ebx                              #78.25
..LN1417:
        movslq    %ebx, %rbx                                    #78.15
..LN1418:
	.loc    1  85  is_stmt 1
        lea       (%r9,%rdx,8), %r11                            #85.5
..LN1419:
	.loc    1  76  is_stmt 1
        movslq    %eax, %rax                                    #76.15
..LN1420:
	.loc    1  85  is_stmt 1
        movq      %r11, 368(%rsp)                               #85.5
..LN1421:
        movl      %eax, 352(%rsp)                               #85.5
..LN1422:
        movl      %ecx, 336(%rsp)                               #85.5
..LN1423:
	.loc    1  78  is_stmt 1
        lea       (%rdi,%rbx,8), %r12                           #78.15
..LN1424:
	.loc    1  85  is_stmt 1
        movq      %rsi, 360(%rsp)                               #85.5
..LN1425:
	.loc    1  82  is_stmt 1
        lea       (%r10,%rbx,8), %rbx                           #82.15
..LN1426:
	.loc    1  85  is_stmt 1
        movl      %r8d, 320(%rsp)                               #85.5
..LN1427:
	.loc    1  80  is_stmt 1
        lea       (%r10,%rax,8), %r14                           #80.15
..LN1428:
	.loc    1  76  is_stmt 1
        lea       (%rdi,%rax,8), %r15                           #76.15
..LN1429:
                                # LOE rbx r12 r13 r14 r15
..B7.53:                        # Preds ..B7.55 ..B7.52
..L205:         # optimization report
                # %s was not vectorized: vector dependence prevents vectorization%s
                # VECTOR TRIP COUNT IS ESTIMATED CONSTANT
..LN1430:
	.loc    1  84  is_stmt 1
        lea       (%rsp), %rdi                                  #84.12
..LN1431:
	.loc    1  76  is_stmt 1
        movq      (%r15,%r13,8), %rax                           #76.15
..LN1432:
	.loc    1  84  is_stmt 1
        lea       160(%rsp), %rsi                               #84.12
..LN1433:
	.loc    1  83  is_stmt 1
        movq      8(%rbx,%r13,8), %rdx                          #83.15
..LN1434:
	.loc    1  76  is_stmt 1
        movq      %rax, (%rdi)                                  #76.5
..LN1435:
	.loc    1  77  is_stmt 1
        movq      8(%r15,%r13,8), %rcx                          #77.15
..LN1436:
	.loc    1  78  is_stmt 1
        movq      16(%r12,%r13,8), %r8                          #78.15
..LN1437:
	.loc    1  79  is_stmt 1
        movq      8(%r12,%r13,8), %r9                           #79.15
..LN1438:
	.loc    1  80  is_stmt 1
        movq      (%r14,%r13,8), %r10                           #80.15
..LN1439:
	.loc    1  81  is_stmt 1
        movq      8(%r14,%r13,8), %r11                          #81.15
..LN1440:
	.loc    1  82  is_stmt 1
        movq      16(%rbx,%r13,8), %rax                         #82.15
..LN1441:
	.loc    1  83  is_stmt 1
        movq      %rdx, 24(%rsi)                                #83.5
..LN1442:
	.loc    1  84  is_stmt 1
        movl      $4, %edx                                      #84.12
..LN1443:
	.loc    1  77  is_stmt 1
        movq      %rcx, 8(%rdi)                                 #77.5
..LN1444:
	.loc    1  78  is_stmt 1
        movq      %r8, 16(%rdi)                                 #78.5
..LN1445:
	.loc    1  79  is_stmt 1
        movq      %r9, 24(%rdi)                                 #79.5
..LN1446:
	.loc    1  80  is_stmt 1
        movq      %r10, (%rsi)                                  #80.5
..LN1447:
	.loc    1  81  is_stmt 1
        movq      %r11, 8(%rsi)                                 #81.5
..LN1448:
	.loc    1  82  is_stmt 1
        movq      %rax, 16(%rsi)                                #82.5
..LN1449:
	.loc    1  84  is_stmt 1
        vzeroupper                                              #84.12
..LN1450:
        vmovsd    .L_2il0floatpacket.0(%rip), %xmm0             #84.12
..___tag_value_create_xgrid_1dx2d_order1.206:
..LN1451:
#       fix_lon(double *, double *, int, double)
        call      fix_lon                                       #84.12
..___tag_value_create_xgrid_1dx2d_order1.207:
..LN1452:
                                # LOE rbx r12 r13 r14 r15 eax
..B7.54:                        # Preds ..B7.53
..LN1453:
	.loc    1  85  is_stmt 1
        movl      %eax, %edx                                    #85.20
..LN1454:
        lea       (%rsp), %rdi                                  #85.20
..LN1455:
        lea       160(%rsp), %rsi                               #85.20
..___tag_value_create_xgrid_1dx2d_order1.208:
..LN1456:
#       poly_area(const double *, const double *, int)
        call      poly_area                                     #85.20
..___tag_value_create_xgrid_1dx2d_order1.209:
..LN1457:
                                # LOE rbx r12 r13 r14 r15 xmm0
..B7.55:                        # Preds ..B7.54
..LN1458:
        movq      368(%rsp), %rax                               #85.5
..LN1459:
        vmovsd    %xmm0, (%rax,%r13,8)                          #85.5
..LN1460:
	.loc    1  75  is_stmt 1
        incq      %r13                                          #75.40
..LN1461:
        cmpq      360(%rsp), %r13                               #75.36
..LN1462:
        jl        ..B7.53       # Prob 82%                      #75.36
..LN1463:
                                # LOE rbx r12 r13 r14 r15
..B7.56:                        # Preds ..B7.55
..LN1464:
        movl      336(%rsp), %ecx                               #
..LN1465:
        incl      %ecx                                          #75.18
..LN1466:
        movq      344(%rsp), %rdx                               #
..LN1467:
        movq      360(%rsp), %rsi                               #
..LN1468:
        addq      %rsi, %rdx                                    #75.18
..LN1469:
        movl      352(%rsp), %eax                               #
..LN1470:
        movl      320(%rsp), %r8d                               #
..LN1471:
        lea       1(%rax,%r8), %eax                             #75.18
..LN1472:
        movq      968(%rsp), %r10                               #
..LN1473:
        movq      960(%rsp), %rdi                               #
..LN1474:
        movq      2160(%rsp), %r9                               #
..LN1475:
        cmpl      328(%rsp), %ecx                               #75.14
..LN1476:
        jl        ..B7.51       # Prob 82%                      #75.14
..LN1477:
        jmp       ..B7.64       # Prob 100%                     #75.14
..LN1478:
                                # LOE rdx rsi rdi r9 r10 eax ecx r8d
..B7.57:                        # Preds ..B7.48
..LN1479:
	.loc    1  96  is_stmt 1
        movl      (%rbx), %r8d                                  #96.9
..LN1480:
	.loc    1  100  is_stmt 1
        xorl      %ecx, %ecx                                    #100.7
..LN1481:
	.loc    1  97  is_stmt 1
        movl      (%r12), %ebx                                  #97.9
..LN1482:
	.loc    1  100  is_stmt 1
        xorl      %edx, %edx                                    #100.9
..LN1483:
        movslq    %r8d, %rsi                                    #100.18
..LN1484:
        testl     %ebx, %ebx                                    #100.14
..LN1485:
        jle       ..B7.65       # Prob 10%                      #100.14
..LN1486:
                                # LOE rdx rsi r13 r14 r15 ecx ebx r8d
..B7.58:                        # Preds ..B7.57
..LN1487:
        movl      %ebx, 8(%rsp)                                 #100.9
..LN1488:
        xorl      %eax, %eax                                    #100.9
..LN1489:
        movq      %r14, 2656(%rsp)                              #100.9
..LN1490:
        movq      %r13, 640(%rsp)                               #100.9
..LN1491:
        movq      %r15, 648(%rsp)                               #100.9
..LN1492:
        movq      968(%rsp), %r10                               #100.9
..LN1493:
        movq      960(%rsp), %rdi                               #100.9
..LN1494:
        movq      2160(%rsp), %r9                               #100.9
..LN1495:
                                # LOE rdx rsi rdi r9 r10 eax ecx r8d
..B7.59:                        # Preds ..B7.63 ..B7.117 ..B7.58
..L210:         # optimization report
                # %s was not vectorized: vector dependence prevents vectorization%s
                # VECTOR TRIP COUNT IS ESTIMATED CONSTANT
..LN1496:
        xorl      %r13d, %r13d                                  #100.27
..LN1497:
        testl     %r8d, %r8d                                    #100.36
..LN1498:
        jle       ..B7.117      # Prob 10%                      #100.36
..LN1499:
                                # LOE rdx rsi rdi r9 r10 r13 eax ecx r8d
..B7.60:                        # Preds ..B7.59
..LN1500:
	.loc    1  110  is_stmt 1
        movq      %rdx, 24(%rsp)                                #110.5
..LN1501:
	.loc    1  103  is_stmt 1
        lea       (%r8,%rax), %ebx                              #103.25
..LN1502:
        movslq    %ebx, %rbx                                    #103.15
..LN1503:
	.loc    1  110  is_stmt 1
        lea       (%r9,%rdx,8), %r11                            #110.5
..LN1504:
	.loc    1  101  is_stmt 1
        movslq    %eax, %rax                                    #101.15
..LN1505:
	.loc    1  110  is_stmt 1
        movq      %r11, 48(%rsp)                                #110.5
..LN1506:
        movl      %eax, 32(%rsp)                                #110.5
..LN1507:
        movl      %ecx, 16(%rsp)                                #110.5
..LN1508:
	.loc    1  103  is_stmt 1
        lea       (%rdi,%rbx,8), %r12                           #103.15
..LN1509:
	.loc    1  110  is_stmt 1
        movq      %rsi, 40(%rsp)                                #110.5
..LN1510:
	.loc    1  107  is_stmt 1
        lea       (%r10,%rbx,8), %rbx                           #107.15
..LN1511:
	.loc    1  110  is_stmt 1
        movl      %r8d, (%rsp)                                  #110.5
..LN1512:
	.loc    1  105  is_stmt 1
        lea       (%r10,%rax,8), %r14                           #105.15
..LN1513:
	.loc    1  101  is_stmt 1
        lea       (%rdi,%rax,8), %r15                           #101.15
..LN1514:
                                # LOE rbx r12 r13 r14 r15
..B7.61:                        # Preds ..B7.62 ..B7.60
..L211:         # optimization report
                # %s was not vectorized: vector dependence prevents vectorization%s
                # VECTOR TRIP COUNT IS ESTIMATED CONSTANT
..LN1515:
	.loc    1  110  is_stmt 1
        lea       320(%rsp), %rdi                               #110.20
..LN1516:
	.loc    1  101  is_stmt 1
        movq      (%r15,%r13,8), %rax                           #101.15
..LN1517:
	.loc    1  110  is_stmt 1
        lea       480(%rsp), %rsi                               #110.20
..LN1518:
	.loc    1  108  is_stmt 1
        movq      8(%rbx,%r13,8), %rdx                          #108.15
..LN1519:
	.loc    1  101  is_stmt 1
        movq      %rax, -160(%rsi)                              #101.5
..LN1520:
	.loc    1  102  is_stmt 1
        movq      8(%r15,%r13,8), %rcx                          #102.15
..LN1521:
	.loc    1  103  is_stmt 1
        movq      16(%r12,%r13,8), %r8                          #103.15
..LN1522:
	.loc    1  104  is_stmt 1
        movq      8(%r12,%r13,8), %r9                           #104.15
..LN1523:
	.loc    1  105  is_stmt 1
        movq      (%r14,%r13,8), %r10                           #105.15
..LN1524:
	.loc    1  106  is_stmt 1
        movq      8(%r14,%r13,8), %r11                          #106.15
..LN1525:
	.loc    1  107  is_stmt 1
        movq      16(%rbx,%r13,8), %rax                         #107.15
..LN1526:
	.loc    1  108  is_stmt 1
        movq      %rdx, 24(%rsi)                                #108.5
..LN1527:
	.loc    1  110  is_stmt 1
        movl      $4, %edx                                      #110.20
..LN1528:
	.loc    1  102  is_stmt 1
        movq      %rcx, -152(%rsi)                              #102.5
..LN1529:
	.loc    1  103  is_stmt 1
        movq      %r8, -144(%rsi)                               #103.5
..LN1530:
	.loc    1  104  is_stmt 1
        movq      %r9, -136(%rsi)                               #104.5
..LN1531:
	.loc    1  105  is_stmt 1
        movq      %r10, (%rsi)                                  #105.5
..LN1532:
	.loc    1  106  is_stmt 1
        movq      %r11, 8(%rsi)                                 #106.5
..LN1533:
	.loc    1  107  is_stmt 1
        movq      %rax, 16(%rsi)                                #107.5
..LN1534:
	.loc    1  110  is_stmt 1
        vzeroupper                                              #110.20
..___tag_value_create_xgrid_1dx2d_order1.212:
..LN1535:
#       poly_area_no_adjust(const double *, const double *, int)
        call      poly_area_no_adjust                           #110.20
..___tag_value_create_xgrid_1dx2d_order1.213:
..LN1536:
                                # LOE rbx r12 r13 r14 r15 xmm0
..B7.62:                        # Preds ..B7.61
..LN1537:
        movq      48(%rsp), %rax                                #110.5
..LN1538:
        vmovsd    %xmm0, (%rax,%r13,8)                          #110.5
..LN1539:
	.loc    1  100  is_stmt 1
        incq      %r13                                          #100.40
..LN1540:
        cmpq      40(%rsp), %r13                                #100.36
..LN1541:
        jl        ..B7.61       # Prob 82%                      #100.36
..LN1542:
                                # LOE rbx r12 r13 r14 r15
..B7.63:                        # Preds ..B7.62
..LN1543:
        movl      16(%rsp), %ecx                                #
..LN1544:
        incl      %ecx                                          #100.18
..LN1545:
        movq      24(%rsp), %rdx                                #
..LN1546:
        movq      40(%rsp), %rsi                                #
..LN1547:
        addq      %rsi, %rdx                                    #100.18
..LN1548:
        movl      32(%rsp), %eax                                #
..LN1549:
        movl      (%rsp), %r8d                                  #
..LN1550:
        lea       1(%rax,%r8), %eax                             #100.18
..LN1551:
        movq      968(%rsp), %r10                               #
..LN1552:
        movq      960(%rsp), %rdi                               #
..LN1553:
        movq      2160(%rsp), %r9                               #
..LN1554:
        cmpl      8(%rsp), %ecx                                 #100.14
..LN1555:
        jl        ..B7.59       # Prob 82%                      #100.14
..LN1556:
                                # LOE rdx rsi rdi r9 r10 eax ecx r8d
..B7.64:                        # Preds ..B7.56 ..B7.117 ..B7.115 ..B7.63 # Infreq
..LN1557:
        movq      2656(%rsp), %r14                              #
..LN1558:
        movq      640(%rsp), %r13                               #
..LN1559:
        movq      648(%rsp), %r15                               #
..LN1560:
                                # LOE r13 r14 r15
..B7.65:                        # Preds ..B7.64 ..B7.57 ..B7.49 # Infreq
..LN1561:
	.loc    1  72  is_stmt 1
        movl      (%r15), %edx                                  #72.9
..LN1562:
	.loc    1  75  is_stmt 1
        xorl      %r9d, %r9d                                    #75.7
..LN1563:
	.loc    1  71  is_stmt 1
        movl      (%r13), %eax                                  #71.9
..LN1564:
	.loc    1  75  is_stmt 1
        xorl      %r10d, %r10d                                  #75.9
..LN1565:
        movslq    %eax, %r8                                     #75.18
..LN1566:
        testl     %edx, %edx                                    #75.14
..LN1567:
        jle       ..B7.74       # Prob 10%                      #75.14
..LN1568:
                                # LOE r8 r10 r14 eax edx r9d
..B7.66:                        # Preds ..B7.65                 # Infreq
..LN1569:
        movl      %edx, 984(%rsp)                               #75.9
..LN1570:
        xorl      %esi, %esi                                    #75.9
..LN1571:
        movq      24(%rbp), %rcx                                #75.9
..LN1572:
        movq      %r14, %rdi                                    #75.9
..LN1573:
        movq      16(%rbp), %rdx                                #75.9
..LN1574:
                                # LOE rdx rcx rdi r8 r10 eax esi r9d
..B7.67:                        # Preds ..B7.72 ..B7.113 ..B7.66 # Infreq
..L214:         # optimization report
                # %s was not vectorized: vector dependence prevents vectorization%s
                # VECTOR TRIP COUNT IS ESTIMATED CONSTANT
..LN1575:
        xorl      %r12d, %r12d                                  #75.27
..LN1576:
        testl     %eax, %eax                                    #75.36
..LN1577:
        jle       ..B7.113      # Prob 10%                      #75.36
..LN1578:
                                # LOE rdx rcx rdi r8 r10 r12 eax esi r9d
..B7.68:                        # Preds ..B7.67                 # Infreq
..LN1579:
	.loc    1  85  is_stmt 1
        movq      %r10, 1000(%rsp)                              #85.5
..LN1580:
	.loc    1  78  is_stmt 1
        lea       (%rax,%rsi), %r13d                            #78.25
..LN1581:
        movslq    %r13d, %r13                                   #78.15
..LN1582:
	.loc    1  85  is_stmt 1
        lea       (%rdi,%r10,8), %r11                           #85.5
..LN1583:
	.loc    1  76  is_stmt 1
        movslq    %esi, %rsi                                    #76.15
..LN1584:
	.loc    1  85  is_stmt 1
        movq      %r11, 1024(%rsp)                              #85.5
..LN1585:
        movl      %esi, 1008(%rsp)                              #85.5
..LN1586:
        movl      %r9d, 992(%rsp)                               #85.5
..LN1587:
	.loc    1  78  is_stmt 1
        lea       (%rdx,%r13,8), %rbx                           #78.15
..LN1588:
	.loc    1  85  is_stmt 1
        movq      %r8, 1016(%rsp)                               #85.5
..LN1589:
	.loc    1  82  is_stmt 1
        lea       (%rcx,%r13,8), %r13                           #82.15
..LN1590:
	.loc    1  85  is_stmt 1
        movl      %eax, 976(%rsp)                               #85.5
..LN1591:
	.loc    1  80  is_stmt 1
        lea       (%rcx,%rsi,8), %r15                           #80.15
..LN1592:
	.loc    1  85  is_stmt 1
        movq      %rdi, 2656(%rsp)                              #85.5
..LN1593:
	.loc    1  76  is_stmt 1
        lea       (%rdx,%rsi,8), %r14                           #76.15
..LN1594:
                                # LOE rbx r12 r13 r14 r15
..B7.69:                        # Preds ..B7.71 ..B7.68         # Infreq
..L215:         # optimization report
                # %s was not vectorized: vector dependence prevents vectorization%s
                # VECTOR TRIP COUNT IS ESTIMATED CONSTANT
..LN1595:
	.loc    1  84  is_stmt 1
        lea       640(%rsp), %rdi                               #84.12
..LN1596:
	.loc    1  76  is_stmt 1
        movq      (%r14,%r12,8), %rax                           #76.15
..LN1597:
	.loc    1  84  is_stmt 1
        lea       800(%rsp), %rsi                               #84.12
..LN1598:
	.loc    1  83  is_stmt 1
        movq      8(%r13,%r12,8), %rdx                          #83.15
..LN1599:
	.loc    1  76  is_stmt 1
        movq      %rax, -160(%rsi)                              #76.5
..LN1600:
	.loc    1  77  is_stmt 1
        movq      8(%r14,%r12,8), %rcx                          #77.15
..LN1601:
	.loc    1  78  is_stmt 1
        movq      16(%rbx,%r12,8), %r8                          #78.15
..LN1602:
	.loc    1  79  is_stmt 1
        movq      8(%rbx,%r12,8), %r9                           #79.15
..LN1603:
	.loc    1  80  is_stmt 1
        movq      (%r15,%r12,8), %r10                           #80.15
..LN1604:
	.loc    1  81  is_stmt 1
        movq      8(%r15,%r12,8), %r11                          #81.15
..LN1605:
	.loc    1  82  is_stmt 1
        movq      16(%r13,%r12,8), %rax                         #82.15
..LN1606:
	.loc    1  83  is_stmt 1
        movq      %rdx, 24(%rsi)                                #83.5
..LN1607:
	.loc    1  84  is_stmt 1
        movl      $4, %edx                                      #84.12
..LN1608:
	.loc    1  77  is_stmt 1
        movq      %rcx, -152(%rsi)                              #77.5
..LN1609:
	.loc    1  78  is_stmt 1
        movq      %r8, -144(%rsi)                               #78.5
..LN1610:
	.loc    1  79  is_stmt 1
        movq      %r9, -136(%rsi)                               #79.5
..LN1611:
	.loc    1  80  is_stmt 1
        movq      %r10, (%rsi)                                  #80.5
..LN1612:
	.loc    1  81  is_stmt 1
        movq      %r11, 8(%rsi)                                 #81.5
..LN1613:
	.loc    1  82  is_stmt 1
        movq      %rax, 16(%rsi)                                #82.5
..LN1614:
	.loc    1  84  is_stmt 1
        vzeroupper                                              #84.12
..LN1615:
        vmovsd    .L_2il0floatpacket.0(%rip), %xmm0             #84.12
..___tag_value_create_xgrid_1dx2d_order1.216:
..LN1616:
#       fix_lon(double *, double *, int, double)
        call      fix_lon                                       #84.12
..___tag_value_create_xgrid_1dx2d_order1.217:
..LN1617:
                                # LOE rbx r12 r13 r14 r15 eax
..B7.70:                        # Preds ..B7.69                 # Infreq
..LN1618:
	.loc    1  85  is_stmt 1
        movl      %eax, %edx                                    #85.20
..LN1619:
        lea       640(%rsp), %rdi                               #85.20
..LN1620:
        lea       800(%rsp), %rsi                               #85.20
..___tag_value_create_xgrid_1dx2d_order1.218:
..LN1621:
#       poly_area(const double *, const double *, int)
        call      poly_area                                     #85.20
..___tag_value_create_xgrid_1dx2d_order1.219:
..LN1622:
                                # LOE rbx r12 r13 r14 r15 xmm0
..B7.71:                        # Preds ..B7.70                 # Infreq
..LN1623:
        movq      1024(%rsp), %rax                              #85.5
..LN1624:
        vmovsd    %xmm0, (%rax,%r12,8)                          #85.5
..LN1625:
	.loc    1  75  is_stmt 1
        incq      %r12                                          #75.40
..LN1626:
        cmpq      1016(%rsp), %r12                              #75.36
..LN1627:
        jl        ..B7.69       # Prob 82%                      #75.36
..LN1628:
                                # LOE rbx r12 r13 r14 r15
..B7.72:                        # Preds ..B7.71                 # Infreq
..LN1629:
        movl      992(%rsp), %r9d                               #
..LN1630:
        incl      %r9d                                          #75.18
..LN1631:
        movq      1000(%rsp), %r10                              #
..LN1632:
        movq      1016(%rsp), %r8                               #
..LN1633:
        addq      %r8, %r10                                     #75.18
..LN1634:
        movl      1008(%rsp), %esi                              #
..LN1635:
        movl      976(%rsp), %eax                               #
..LN1636:
        lea       1(%rsi,%rax), %esi                            #75.18
..LN1637:
        movq      2656(%rsp), %rdi                              #
..LN1638:
        movq      24(%rbp), %rcx                                #
..LN1639:
        movq      16(%rbp), %rdx                                #
..LN1640:
        cmpl      984(%rsp), %r9d                               #75.14
..LN1641:
        jl        ..B7.67       # Prob 82%                      #75.14
..LN1642:
                                # LOE rdx rcx rdi r8 r10 eax esi edi r9d dil
..B7.73:                        # Preds ..B7.113 ..B7.72        # Infreq
..LN1643:
        movq      %rdi, %r14                                    #
..LN1644:
                                # LOE r14
..B7.74:                        # Preds ..B7.73 ..B7.65         # Infreq
..LN1645:
	.loc    1  169  is_stmt 1
        vzeroupper                                              #169.3
..LN1646:
        movq      960(%rsp), %rdi                               #169.3
..LN1647:
#       free(void *)
        call      free                                          #169.3
..LN1648:
                                # LOE r14
..B7.75:                        # Preds ..B7.74                 # Infreq
..LN1649:
	.loc    1  170  is_stmt 1
        movq      968(%rsp), %rdi                               #170.3
..LN1650:
#       free(void *)
        call      free                                          #170.3
..LN1651:
                                # LOE r14
..B7.76:                        # Preds ..B7.75                 # Infreq
..LN1652:
	.loc    1  172  is_stmt 1
        xorl      %eax, %eax                                    #172.10
..LN1653:
        xorl      %ecx, %ecx                                    #172.7
..LN1654:
        xorl      %edx, %edx                                    #172.10
..LN1655:
        cmpl      $0, 2168(%rsp)                                #172.16
..LN1656:
        jle       ..B7.108      # Prob 10%                      #172.16
..LN1657:
                                # LOE rax rdx r14 ecx
..B7.77:                        # Preds ..B7.76                 # Infreq
..LN1658:
	.loc    1  137  is_stmt 1
        movq      %r14, %rdi                                    #137.1
..LN1659:
        movq      32(%rbp), %rsi                                #137.1
..LN1660:
        movq      48(%rbp), %r10                                #137.1
..LN1661:
        movq      72(%rbp), %rbx                                #137.1
..LN1662:
        movq      24(%rbp), %r9                                 #137.1
..LN1663:
        movq      16(%rbp), %r8                                 #137.1
..LN1664:
	.loc    1  172  is_stmt 1
        vmovsd    .L_2il0floatpacket.1(%rip), %xmm0             #172.76
..LN1665:
	.loc    1  198  is_stmt 1
        vmovsd    .L_2il0floatpacket.2(%rip), %xmm1             #198.23
..LN1666:
	.loc    1  137  is_stmt 1
        movq      2160(%rsp), %r13                              #137.1
..LN1667:
        movl      2168(%rsp), %r15d                             #137.1
..LN1668:
        movq      2608(%rsp), %r11                              #137.1
..LN1669:
        movl      2184(%rsp), %r14d                             #137.1
..LN1670:
                                # LOE rax rdx rsi rdi r8 r9 r11 r13 ecx r14d r15d xmm0
..B7.78:                        # Preds ..B7.82 ..B7.111 ..B7.77 # Infreq
..L220:         # optimization report
                # %s was not vectorized: vector dependence prevents vectorization%s
                # VECTOR TRIP COUNT IS ESTIMATED CONSTANT
..LN1671:
	.loc    1  172  is_stmt 1
        xorl      %r12d, %r12d                                  #172.31
..LN1672:
        testl     %r14d, %r14d                                  #172.40
..LN1673:
        jle       ..B7.111      # Prob 10%                      #172.40
..LN1674:
                                # LOE rax rdx rsi rdi r8 r9 r11 r12 r13 ecx r14d r15d xmm0
..B7.79:                        # Preds ..B7.78                 # Infreq
..LN1675:
	.loc    1  197  is_stmt 1
        movq      %rdx, 2176(%rsp)                              #197.13
..LN1676:
        lea       (%r13,%rdx,8), %r10                           #197.13
..LN1677:
        movq      %r10, 2688(%rsp)                              #197.13
..LN1678:
	.loc    1  172  is_stmt 1
        lea       (%rsi,%rdx,8), %rbx                           #172.55
..LN1679:
	.loc    1  197  is_stmt 1
        movl      %ecx, 2632(%rsp)                              #197.13
..LN1680:
        movl      2640(%rsp), %r13d                             #197.13
..LN1681:
        movq      2752(%rsp), %rsi                              #197.13
..LN1682:
        movq      2600(%rsp), %r15                              #197.13
..LN1683:
        movq      2592(%rsp), %r14                              #197.13
..LN1684:
                                # LOE rax rbx rsi rdi r8 r9 r11 r12 r14 r15 r13d xmm0
..B7.80:                        # Preds ..B7.81 ..B7.79         # Infreq
..L221:         # optimization report
                # %s was not vectorized: vector dependence prevents vectorization%s
                # VECTOR TRIP COUNT IS ESTIMATED CONSTANT
..LN1685:
	.loc    1  172  is_stmt 1
        vmovsd    (%rbx,%r12,8), %xmm1                          #172.55
..LN1686:
        vcomisd   %xmm0, %xmm1                                  #172.76
..LN1687:
        ja        ..B7.83       # Prob 50%                      #172.76
..LN1688:
                                # LOE rax rbx rsi rdi r8 r9 r11 r12 r14 r15 r13d xmm0
..B7.81:                        # Preds ..B7.103 ..B7.106 ..B7.83 ..B7.80 # Infreq
..LN1689:
        incq      %r12                                          #172.45
..LN1690:
        cmpq      %r11, %r12                                    #172.40
..LN1691:
        jl        ..B7.80       # Prob 82%                      #172.40
..LN1692:
                                # LOE rax rbx rsi rdi r8 r9 r11 r12 r14 r15 r13d xmm0
..B7.82:                        # Preds ..B7.81                 # Infreq
..LN1693:
        movl      2632(%rsp), %ecx                              #
..LN1694:
        incq      %rax                                          #172.21
..LN1695:
        incl      %ecx                                          #172.21
..LN1696:
        movq      2176(%rsp), %rdx                              #
..LN1697:
        movl      2168(%rsp), %r15d                             #
..LN1698:
        addq      %r11, %rdx                                    #172.21
..LN1699:
        movq      2160(%rsp), %r13                              #
..LN1700:
        movl      2184(%rsp), %r14d                             #
..LN1701:
        movq      32(%rbp), %rsi                                #
..LN1702:
        cmpl      %r15d, %ecx                                   #172.16
..LN1703:
        jl        ..B7.78       # Prob 82%                      #172.16
..LN1704:
        jmp       ..B7.107      # Prob 100%                     #172.16
..LN1705:
                                # LOE rax rdx rsi rdi r8 r9 r11 r13 ecx r14d r15d xmm0
..B7.83:                        # Preds ..B7.80                 # Infreq
..LN1706:
	.loc    1  176  is_stmt 1
        xorl      %ecx, %ecx                                    #176.9
..LN1707:
        xorl      %r10d, %r10d                                  #176.12
..LN1708:
	.loc    1  174  is_stmt 1
        vmovsd    (%r15,%r12,8), %xmm5                          #174.14
..LN1709:
	.loc    1  176  is_stmt 1
        xorl      %edx, %edx                                    #176.12
..LN1710:
	.loc    1  175  is_stmt 1
        vmovsd    8(%r15,%r12,8), %xmm3                         #175.14
..LN1711:
	.loc    1  174  is_stmt 1
        vmovsd    (%r14,%rax,8), %xmm4                          #174.37
..LN1712:
	.loc    1  175  is_stmt 1
        vmovsd    8(%r14,%rax,8), %xmm2                         #175.37
..LN1713:
	.loc    1  176  is_stmt 1
        testl     %r13d, %r13d                                  #176.18
..LN1714:
        jle       ..B7.81       # Prob 10%                      #176.18
..LN1715:
                                # LOE rax rbx rsi rdi r8 r9 r10 r11 r12 r14 r15 edx ecx r13d xmm0 xmm2 xmm3 xmm4 xmm5
..B7.84:                        # Preds ..B7.83                 # Infreq
..LN1716:
	.loc    1  193  is_stmt 1
        movq      %rax, 2616(%rsp)                              #193.53
..LN1717:
        vaddsd    %xmm3, %xmm5, %xmm1                           #193.45
..LN1718:
        vmulsd    %xmm1, %xmm0, %xmm1                           #193.53
..LN1719:
        vmovsd    %xmm1, 2728(%rsp)                             #193.53
..LN1720:
        vmovsd    %xmm2, 2744(%rsp)                             #193.53
..LN1721:
        vmovsd    %xmm3, 2720(%rsp)                             #193.53
..LN1722:
        vmovsd    %xmm4, 2760(%rsp)                             #193.53
..LN1723:
        vmovsd    %xmm5, 2736(%rsp)                             #193.53
..LN1724:
        movq      %rbx, 2696(%rsp)                              #193.53
..LN1725:
        movq      %r12, 2712(%rsp)                              #193.53
..LN1726:
        movl      2648(%rsp), %eax                              #193.53
..LN1727:
                                # LOE rsi rdi r8 r9 r10 eax edx ecx
..B7.85:                        # Preds ..B7.102 ..B7.105 ..B7.84 # Infreq
..L222:         # optimization report
                # %s was not vectorized: vector dependence prevents vectorization%s
                # VECTOR TRIP COUNT IS ESTIMATED CONSTANT
..LN1728:
	.loc    1  176  is_stmt 1
        xorl      %r13d, %r13d                                  #176.33
..LN1729:
        testl     %eax, %eax                                    #176.42
..LN1730:
        jle       ..B7.105      # Prob 10%                      #176.42
..LN1731:
                                # LOE rsi rdi r8 r9 r10 r13 eax edx ecx
..B7.86:                        # Preds ..B7.85                 # Infreq
..LN1732:
	.loc    1  197  is_stmt 1
        movq      %r10, 2672(%rsp)                              #197.13
..LN1733:
	.loc    1  182  is_stmt 1
        lea       (%rax,%rdx), %ebx                             #182.32
..LN1734:
        movslq    %ebx, %rbx                                    #182.17
..LN1735:
	.loc    1  197  is_stmt 1
        lea       (%rdi,%r10,8), %r11                           #197.13
..LN1736:
	.loc    1  180  is_stmt 1
        movslq    %edx, %rdx                                    #180.17
..LN1737:
	.loc    1  197  is_stmt 1
        movq      %r11, 2704(%rsp)                              #197.13
..LN1738:
        movl      %edx, 2664(%rsp)                              #197.13
..LN1739:
        movl      %ecx, 2680(%rsp)                              #197.13
..LN1740:
	.loc    1  182  is_stmt 1
        lea       (%r9,%rbx,8), %r14                            #182.17
..LN1741:
	.loc    1  197  is_stmt 1
        movq      %rdi, 2656(%rsp)                              #197.13
..LN1742:
	.loc    1  191  is_stmt 1
        lea       (%r8,%rbx,8), %r12                            #191.17
..LN1743:
	.loc    1  189  is_stmt 1
        lea       (%r8,%rdx,8), %rbx                            #189.17
..LN1744:
	.loc    1  180  is_stmt 1
        lea       (%r9,%rdx,8), %r15                            #180.17
..LN1745:
                                # LOE rbx r12 r13 r14 r15
..B7.87:                        # Preds ..B7.101 ..B7.86        # Infreq
..L223:         # optimization report
                # %s was not vectorized: vector dependence prevents vectorization%s
                # VECTOR TRIP COUNT IS ESTIMATED CONSTANT
..LN1746:
        vmovsd    (%r15,%r13,8), %xmm4                          #180.17
..LN1747:
	.loc    1  184  is_stmt 1
        vmovsd    2760(%rsp), %xmm0                             #184.23
..LN1748:
	.loc    1  181  is_stmt 1
        vmovsd    8(%r15,%r13,8), %xmm3                         #181.17
..LN1749:
	.loc    1  182  is_stmt 1
        vmovsd    16(%r14,%r13,8), %xmm2                        #182.17
..LN1750:
	.loc    1  183  is_stmt 1
        vmovsd    8(%r14,%r13,8), %xmm1                         #183.17
..LN1751:
	.loc    1  180  is_stmt 1
        vmovsd    %xmm4, 2192(%rsp)                             #180.7
..LN1752:
	.loc    1  181  is_stmt 1
        vmovsd    %xmm3, 2200(%rsp)                             #181.7
..LN1753:
	.loc    1  182  is_stmt 1
        vmovsd    %xmm2, 2208(%rsp)                             #182.7
..LN1754:
	.loc    1  183  is_stmt 1
        vmovsd    %xmm1, 2216(%rsp)                             #183.7
..LN1755:
	.loc    1  184  is_stmt 1
        vcomisd   %xmm4, %xmm0                                  #184.23
..LN1756:
        jb        ..B7.91       # Prob 50%                      #184.23
..LN1757:
                                # LOE rbx r12 r13 r14 r15 xmm0 xmm1 xmm2 xmm3 xmm4 ymm0 zmm0
..B7.88:                        # Preds ..B7.87                 # Infreq
..LN1758:
        vcomisd   %xmm3, %xmm0                                  #184.44
..LN1759:
        jb        ..B7.91       # Prob 50%                      #184.44
..LN1760:
                                # LOE rbx r12 r13 r14 r15 xmm0 xmm1 xmm2 xmm3 xmm4 ymm0 zmm0
..B7.89:                        # Preds ..B7.88                 # Infreq
..LN1761:
	.loc    1  185  is_stmt 1
        vcomisd   %xmm2, %xmm0                                  #185.19
..LN1762:
        jb        ..B7.91       # Prob 50%                      #185.19
..LN1763:
                                # LOE rbx r12 r13 r14 r15 xmm0 xmm1 xmm2 xmm3 xmm4 ymm0 zmm0
..B7.90:                        # Preds ..B7.89                 # Infreq
..LN1764:
        vcomisd   %xmm1, %xmm0                                  #185.40
..LN1765:
        jae       ..B7.101      # Prob 50%                      #185.40
..LN1766:
                                # LOE rbx r12 r13 r14 r15 xmm1 xmm2 xmm3 xmm4
..B7.91:                        # Preds ..B7.90 ..B7.89 ..B7.88 ..B7.87 # Infreq
..LN1767:
	.loc    1  186  is_stmt 1
        vcomisd   2744(%rsp), %xmm4                             #186.23
..LN1768:
        jb        ..B7.95       # Prob 22%                      #186.23
..LN1769:
                                # LOE rbx r12 r13 r14 r15 xmm1 xmm2 xmm3
..B7.92:                        # Preds ..B7.91                 # Infreq
..LN1770:
        vcomisd   2744(%rsp), %xmm3                             #186.44
..LN1771:
        jb        ..B7.95       # Prob 22%                      #186.44
..LN1772:
                                # LOE rbx r12 r13 r14 r15 xmm1 xmm2
..B7.93:                        # Preds ..B7.92                 # Infreq
..LN1773:
	.loc    1  187  is_stmt 1
        vcomisd   2744(%rsp), %xmm2                             #187.19
..LN1774:
        jb        ..B7.95       # Prob 22%                      #187.19
..LN1775:
                                # LOE rbx r12 r13 r14 r15 xmm1
..B7.94:                        # Preds ..B7.93                 # Infreq
..LN1776:
        vcomisd   2744(%rsp), %xmm1                             #187.40
..LN1777:
        jae       ..B7.101      # Prob 78%                      #187.40
..LN1778:
                                # LOE rbx r12 r13 r14 r15
..B7.95:                        # Preds ..B7.94 ..B7.93 ..B7.92 ..B7.91 # Infreq
..LN1779:
	.loc    1  193  is_stmt 1
        lea       960(%rsp), %rdi                               #193.14
..LN1780:
	.loc    1  189  is_stmt 1
        movq      (%rbx,%r13,8), %rax                           #189.17
..LN1781:
	.loc    1  193  is_stmt 1
        lea       2192(%rsp), %rsi                              #193.14
..LN1782:
	.loc    1  190  is_stmt 1
        movq      8(%rbx,%r13,8), %rcx                          #190.17
..LN1783:
	.loc    1  193  is_stmt 1
        movl      $4, %edx                                      #193.14
..LN1784:
	.loc    1  191  is_stmt 1
        movq      16(%r12,%r13,8), %r8                          #191.17
..LN1785:
	.loc    1  192  is_stmt 1
        movq      8(%r12,%r13,8), %r9                           #192.17
..LN1786:
	.loc    1  193  is_stmt 1
        vmovsd    536(%rsi), %xmm0                              #193.14
..LN1787:
	.loc    1  189  is_stmt 1
        movq      %rax, -1232(%rsi)                             #189.7
..LN1788:
	.loc    1  190  is_stmt 1
        movq      %rcx, -1224(%rsi)                             #190.7
..LN1789:
	.loc    1  191  is_stmt 1
        movq      %r8, -1216(%rsi)                              #191.7
..LN1790:
	.loc    1  192  is_stmt 1
        movq      %r9, -1208(%rsi)                              #192.7
..___tag_value_create_xgrid_1dx2d_order1.224:
..LN1791:
	.loc    1  193  is_stmt 1
#       fix_lon(double *, double *, int, double)
        call      fix_lon                                       #193.14
..___tag_value_create_xgrid_1dx2d_order1.225:
..LN1792:
                                # LOE rbx r12 r13 r14 r15 eax
..B7.96:                        # Preds ..B7.95                 # Infreq
..LN1793:
	.loc    1  195  is_stmt 1
        lea       960(%rsp), %rdi                               #195.21
..LN1794:
        vmovsd    1776(%rdi), %xmm0                             #195.21
..LN1795:
        lea       2192(%rsp), %rsi                              #195.21
..LN1796:
        vmovsd    568(%rsi), %xmm1                              #195.21
..LN1797:
        lea       1360(%rsp), %rcx                              #195.21
..LN1798:
        vmovsd    1360(%rcx), %xmm2                             #195.21
..LN1799:
        lea       1760(%rsp), %r8                               #195.21
..LN1800:
        vmovsd    1384(%rcx), %xmm3                             #195.21
..LN1801:
        movl      %eax, %edx                                    #195.21
..___tag_value_create_xgrid_1dx2d_order1.226:
..LN1802:
#       clip(const double *, const double *, int, double, double, double, double, double *, double *)
        call      clip                                          #195.21
..___tag_value_create_xgrid_1dx2d_order1.227:
..LN1803:
                                # LOE rbx r12 r13 r14 r15 eax
..B7.97:                        # Preds ..B7.96                 # Infreq
..LN1804:
        testl     %eax, %eax                                    #195.96
..LN1805:
        jle       ..B7.101      # Prob 40%                      #195.96
..LN1806:
                                # LOE rbx r12 r13 r14 r15 eax
..B7.98:                        # Preds ..B7.97                 # Infreq
..LN1807:
	.loc    1  196  is_stmt 1
        movl      %eax, %edx                                    #196.10
..LN1808:
        lea       1360(%rsp), %rdi                              #196.10
..LN1809:
        lea       1760(%rsp), %rsi                              #196.10
..___tag_value_create_xgrid_1dx2d_order1.228:
..LN1810:
#       poly_area(const double *, const double *, int)
        call      poly_area                                     #196.10
..___tag_value_create_xgrid_1dx2d_order1.229:
..LN1811:
                                # LOE rbx r12 r13 r14 r15 xmm0
..B7.99:                        # Preds ..B7.98                 # Infreq
..LN1812:
        movq      2696(%rsp), %rax                              #196.45
..LN1813:
        movq      2712(%rsp), %rcx                              #196.45
..LN1814:
	.loc    1  197  is_stmt 1
        movq      2688(%rsp), %rdx                              #197.13
..LN1815:
	.loc    1  198  is_stmt 1
        movq      2704(%rsp), %rsi                              #198.2
..LN1816:
	.loc    1  196  is_stmt 1
        vmulsd    (%rax,%rcx,8), %xmm0, %xmm2                   #196.45
..LN1817:
	.loc    1  197  is_stmt 1
        vmovsd    (%rdx,%rcx,8), %xmm0                          #197.13
..LN1818:
	.loc    1  198  is_stmt 1
        vminsd    (%rsi,%r13,8), %xmm0, %xmm0                   #198.2
..LN1819:
        vdivsd    %xmm0, %xmm2, %xmm1                           #198.12
..LN1820:
        vcomisd   .L_2il0floatpacket.2(%rip), %xmm1             #198.23
..LN1821:
        jbe       ..B7.101      # Prob 50%                      #198.23
..LN1822:
                                # LOE rbx r12 r13 r14 r15 xmm2
..B7.100:                       # Preds ..B7.99                 # Infreq
..LN1823:
	.loc    1  199  is_stmt 1
        movq      2624(%rsp), %r11                              #199.10
..LN1824:
	.loc    1  200  is_stmt 1
        movq      40(%rbp), %rcx                                #200.4
..LN1825:
	.loc    1  201  is_stmt 1
        movq      48(%rbp), %rdi                                #201.4
..LN1826:
	.loc    1  202  is_stmt 1
        movq      56(%rbp), %r8                                 #202.4
..LN1827:
	.loc    1  199  is_stmt 1
        movq      72(%rbp), %rax                                #199.10
..LN1828:
	.loc    1  203  is_stmt 1
        movq      64(%rbp), %r10                                #203.4
..LN1829:
	.loc    1  200  is_stmt 1
        movq      2712(%rsp), %rdx                              #200.4
..LN1830:
	.loc    1  201  is_stmt 1
        movl      2632(%rsp), %esi                              #201.4
..LN1831:
	.loc    1  203  is_stmt 1
        movl      2680(%rsp), %r9d                              #203.4
..LN1832:
	.loc    1  200  is_stmt 1
        movl      %edx, (%rcx,%r11,4)                           #200.4
..LN1833:
	.loc    1  201  is_stmt 1
        movl      %esi, (%rdi,%r11,4)                           #201.4
..LN1834:
	.loc    1  202  is_stmt 1
        movl      %r13d, (%r8,%r11,4)                           #202.4
..LN1835:
	.loc    1  199  is_stmt 1
        vmovsd    %xmm2, (%rax,%r11,8)                          #199.10
..LN1836:
	.loc    1  203  is_stmt 1
        movl      %r9d, (%r10,%r11,4)                           #203.4
..LN1837:
	.loc    1  204  is_stmt 1
        incq      %r11                                          #204.6
..LN1838:
        movq      %r11, 2624(%rsp)                              #204.6
..LN1839:
	.loc    1  205  is_stmt 1
        cmpq      $10000000, %r11                               #205.16
..LN1840:
        jg        ..B7.104      # Prob 0%                       #205.16
..LN1841:
                                # LOE rbx r12 r13 r14 r15
..B7.101:                       # Preds ..B7.94 ..B7.90 ..B7.104 ..B7.100 ..B7.99
                                #       ..B7.97                 # Infreq
..LN1842:
	.loc    1  176  is_stmt 1
        incq      %r13                                          #176.47
..LN1843:
        cmpq      2752(%rsp), %r13                              #176.42
..LN1844:
        jl        ..B7.87       # Prob 82%                      #176.42
..LN1845:
                                # LOE rbx r12 r13 r14 r15
..B7.102:                       # Preds ..B7.101                # Infreq
..LN1846:
        movl      2680(%rsp), %ecx                              #
..LN1847:
        incl      %ecx                                          #176.23
..LN1848:
        movq      2672(%rsp), %r10                              #
..LN1849:
        movq      2752(%rsp), %rsi                              #
..LN1850:
        addq      %rsi, %r10                                    #176.23
..LN1851:
        movl      2664(%rsp), %edx                              #
..LN1852:
        movl      2648(%rsp), %eax                              #
..LN1853:
        lea       1(%rdx,%rax), %edx                            #176.23
..LN1854:
        movq      2656(%rsp), %rdi                              #
..LN1855:
        movq      24(%rbp), %r9                                 #
..LN1856:
        movq      16(%rbp), %r8                                 #
..LN1857:
        cmpl      2640(%rsp), %ecx                              #176.18
..LN1858:
        jl        ..B7.85       # Prob 82%                      #176.18
..LN1859:
                                # LOE rsi rdi r8 r9 r10 eax edx ecx esi edi sil dil
..B7.103:                       # Preds ..B7.102                # Infreq
..LN1860:
        vmovsd    .L_2il0floatpacket.1(%rip), %xmm0             #
..LN1861:
        movq      2696(%rsp), %rbx                              #
..LN1862:
        movq      2712(%rsp), %r12                              #
..LN1863:
        movq      2616(%rsp), %rax                              #
..LN1864:
        movl      2640(%rsp), %r13d                             #
..LN1865:
        movq      2608(%rsp), %r11                              #
..LN1866:
        movq      2600(%rsp), %r15                              #
..LN1867:
        movq      2592(%rsp), %r14                              #
..LN1868:
        jmp       ..B7.81       # Prob 100%                     #
..LN1869:
                                # LOE rax rbx rsi rdi r8 r9 r11 r12 r14 r15 r13d xmm0
..B7.104:                       # Preds ..B7.100                # Infreq
..LN1870:
	.loc    1  205  is_stmt 1
        movl      $.L_2__STRING.0, %edi                         #205.26
..___tag_value_create_xgrid_1dx2d_order1.230:
..LN1871:
#       error_handler(const char *)
        call      error_handler                                 #205.26
..___tag_value_create_xgrid_1dx2d_order1.231:
..LN1872:
        jmp       ..B7.101      # Prob 100%                     #205.26
..LN1873:
                                # LOE rbx r12 r13 r14 r15
..B7.105:                       # Preds ..B7.85                 # Infreq
..LN1874:
	.loc    1  176  is_stmt 1
        incl      %ecx                                          #176.23
..LN1875:
        addq      %rsi, %r10                                    #176.23
..LN1876:
        lea       1(%rdx,%rax), %edx                            #176.23
..LN1877:
        cmpl      2640(%rsp), %ecx                              #176.18
..LN1878:
        jl        ..B7.85       # Prob 82%                      #176.18
..LN1879:
                                # LOE rsi rdi r8 r9 r10 eax edx ecx
..B7.106:                       # Preds ..B7.105                # Infreq
..LN1880:
        vmovsd    .L_2il0floatpacket.1(%rip), %xmm0             #
..LN1881:
        movq      2696(%rsp), %rbx                              #
..LN1882:
        movq      2712(%rsp), %r12                              #
..LN1883:
        movq      2616(%rsp), %rax                              #
..LN1884:
        movl      2640(%rsp), %r13d                             #
..LN1885:
        movq      2608(%rsp), %r11                              #
..LN1886:
        movq      2600(%rsp), %r15                              #
..LN1887:
        movq      2592(%rsp), %r14                              #
..LN1888:
        jmp       ..B7.81       # Prob 100%                     #
..LN1889:
                                # LOE rax rbx rsi rdi r8 r9 r11 r12 r14 r15 r13d xmm0
..B7.107:                       # Preds ..B7.111 ..B7.82        # Infreq
..LN1890:
        movq      %rdi, %r14                                    #
..LN1891:
                                # LOE r14
..B7.108:                       # Preds ..B7.107 ..B7.76        # Infreq
..LN1892:
	.loc    1  211  is_stmt 1
        movq      2160(%rsp), %rdi                              #211.3
..LN1893:
#       free(void *)
        call      free                                          #211.3
..LN1894:
                                # LOE r14
..B7.109:                       # Preds ..B7.108                # Infreq
..LN1895:
	.loc    1  212  is_stmt 1
        movq      %r14, %rdi                                    #212.3
..LN1896:
#       free(void *)
        call      free                                          #212.3
..LN1897:
                                # LOE
..B7.110:                       # Preds ..B7.109                # Infreq
..LN1898:
	.loc    1  214  is_stmt 1
        movq      2624(%rsp), %rax                              #214.10
..LN1899:
	.loc    1  214  epilogue_begin  is_stmt 1
        addq      $2776, %rsp                                   #214.10
	.cfi_restore 3
..LN1900:
        popq      %rbx                                          #214.10
	.cfi_restore 15
..LN1901:
        popq      %r15                                          #214.10
	.cfi_restore 14
..LN1902:
        popq      %r14                                          #214.10
	.cfi_restore 13
..LN1903:
        popq      %r13                                          #214.10
	.cfi_restore 12
..LN1904:
        popq      %r12                                          #214.10
..LN1905:
        movq      %rbp, %rsp                                    #214.10
..LN1906:
        popq      %rbp                                          #214.10
	.cfi_def_cfa 7, 8
	.cfi_restore 6
..LN1907:
        ret                                                     #214.10
	.cfi_def_cfa 6, 16
	.cfi_escape 0x10, 0x03, 0x0e, 0x38, 0x1c, 0x0d, 0xe0, 0xff, 0xff, 0xff, 0x1a, 0x0d, 0xd8, 0xff, 0xff, 0xff, 0x22
	.cfi_offset 6, -16
	.cfi_escape 0x10, 0x0c, 0x0e, 0x38, 0x1c, 0x0d, 0xe0, 0xff, 0xff, 0xff, 0x1a, 0x0d, 0xf8, 0xff, 0xff, 0xff, 0x22
	.cfi_escape 0x10, 0x0d, 0x0e, 0x38, 0x1c, 0x0d, 0xe0, 0xff, 0xff, 0xff, 0x1a, 0x0d, 0xf0, 0xff, 0xff, 0xff, 0x22
	.cfi_escape 0x10, 0x0e, 0x0e, 0x38, 0x1c, 0x0d, 0xe0, 0xff, 0xff, 0xff, 0x1a, 0x0d, 0xe8, 0xff, 0xff, 0xff, 0x22
	.cfi_escape 0x10, 0x0f, 0x0e, 0x38, 0x1c, 0x0d, 0xe0, 0xff, 0xff, 0xff, 0x1a, 0x0d, 0xe0, 0xff, 0xff, 0xff, 0x22
..LN1908:
                                # LOE
..B7.111:                       # Preds ..B7.78                 # Infreq
..LN1909:
	.loc    1  172  is_stmt 1
        incl      %ecx                                          #172.21
..LN1910:
        addq      %r11, %rdx                                    #172.21
..LN1911:
        incq      %rax                                          #172.21
..LN1912:
        cmpl      %r15d, %ecx                                   #172.16
..LN1913:
        jl        ..B7.78       # Prob 82%                      #172.16
..LN1914:
        jmp       ..B7.107      # Prob 100%                     #172.16
..LN1915:
                                # LOE rax rdx rsi rdi r8 r9 r11 r13 ecx r14d r15d xmm0
..B7.113:                       # Preds ..B7.67                 # Infreq
..LN1916:
	.loc    1  75  is_stmt 1
        incl      %r9d                                          #75.18
..LN1917:
        addq      %r8, %r10                                     #75.18
..LN1918:
        lea       1(%rsi,%rax), %esi                            #75.18
..LN1919:
        cmpl      984(%rsp), %r9d                               #75.14
..LN1920:
        jl        ..B7.67       # Prob 82%                      #75.14
..LN1921:
        jmp       ..B7.73       # Prob 100%                     #75.14
..LN1922:
                                # LOE rdx rcx rdi r8 r10 eax esi r9d
..B7.115:                       # Preds ..B7.51                 # Infreq
..LN1923:
        incl      %ecx                                          #75.18
..LN1924:
        addq      %rsi, %rdx                                    #75.18
..LN1925:
        lea       1(%rax,%r8), %eax                             #75.18
..LN1926:
        cmpl      328(%rsp), %ecx                               #75.14
..LN1927:
        jl        ..B7.51       # Prob 82%                      #75.14
..LN1928:
        jmp       ..B7.64       # Prob 100%                     #75.14
..LN1929:
                                # LOE rdx rsi rdi r9 r10 eax ecx r8d
..B7.117:                       # Preds ..B7.59                 # Infreq
..LN1930:
	.loc    1  100  is_stmt 1
        incl      %ecx                                          #100.18
..LN1931:
        addq      %rsi, %rdx                                    #100.18
..LN1932:
        lea       1(%rax,%r8), %eax                             #100.18
..LN1933:
        cmpl      8(%rsp), %ecx                                 #100.14
..LN1934:
        jl        ..B7.59       # Prob 82%                      #100.14
..LN1935:
        jmp       ..B7.64       # Prob 100%                     #100.14
..LN1936:
                                # LOE rdx rsi rdi r9 r10 eax ecx r8d
..B7.120:                       # Preds ..B7.38                 # Infreq
..LN1937:
	.loc    1  158  is_stmt 1
        xorl      %r12d, %r12d                                  #158.28
..LN1938:
        jmp       ..B7.42       # Prob 100%                     #158.28
..LN1939:
                                # LOE rax rdx rcx r9 r10 r11 r12 r13 ebx esi r8d r14d
..B7.121:                       # Preds ..B7.25 ..B7.27 ..B7.29 # Infreq
..LN1940:
        xorl      %r14d, %r14d                                  #158.28
..LN1941:
        jmp       ..B7.37       # Prob 100%                     #158.28
..LN1942:
                                # LOE rax rdx rcx r9 r10 r11 ebx esi r8d r14d
..B7.124:                       # Preds ..B7.8 ..B7.11 ..B7.13  # Infreq
..LN1943:
        xorl      %r14d, %r14d                                  #158.28
..LN1944:
        jmp       ..B7.21       # Prob 100%                     #158.28
..LN1945:
                                # LOE rax rdx rcx r9 r10 r11 r14 ebx esi r8d
..B7.126:                       # Preds ..B7.9                  # Infreq
..LN1946:
        movq      (%rsp), %r14                                  #158.28
..LN1947:
        xorl      %r12d, %r12d                                  #158.28
..LN1948:
        jmp       ..B7.18       # Prob 100%                     #158.28
..LN1949:
        .align    16,0x90
	.cfi_endproc
..LN1950:
                                # LOE rax rdx rcx r9 r10 r11 r12 r13 r14 ebx esi r8d
..LN1951:
# mark_end;
	.type	create_xgrid_1dx2d_order1,@function
	.size	create_xgrid_1dx2d_order1,.-create_xgrid_1dx2d_order1
..LNcreate_xgrid_1dx2d_order1.1952:
.LNcreate_xgrid_1dx2d_order1:
	.data
# -- End  create_xgrid_1dx2d_order1
	.text
.L_2__routine_start_clip_7:
# -- Begin  clip
	.text
# mark_begin;
       .align    16,0x90
	.globl clip
# --- clip(const double *, const double *, int, double, double, double, double, double *, double *)
clip:
# parameter 1(lon_in): %rdi
# parameter 2(lat_in): %rsi
# parameter 3(n_in): %edx
# parameter 4(ll_lon): %xmm0
# parameter 5(ll_lat): %xmm1
# parameter 6(ur_lon): %xmm2
# parameter 7(ur_lat): %xmm3
# parameter 8(lon_out): %rcx
# parameter 9(lat_out): %r8
..B8.1:                         # Preds ..B8.0
	.cfi_startproc
..___tag_value_clip.251:
..L252:
                                                        #745.1
..LN1953:
	.loc    1  745  is_stmt 1
        subq      $808, %rsp                                    #745.1
	.cfi_def_cfa_offset 816
..LN1954:
        movq      %rdi, %r10                                    #745.1
..LN1955:
        movslq    %edx, %r9                                     #745.1
..LN1956:
        vmovapd   %xmm0, %xmm5                                  #745.1
..LN1957:
	.loc    1  753  prologue_end  is_stmt 1
        xorl      %edx, %edx                                    #753.8
..LN1958:
        xorl      %eax, %eax                                    #753.15
..LN1959:
	.loc    1  750  is_stmt 1
        vmovsd    -8(%r10,%r9,8), %xmm4                         #750.12
..LN1960:
	.loc    1  751  is_stmt 1
        vmovsd    -8(%rsi,%r9,8), %xmm0                         #751.12
..LN1961:
	.loc    1  752  is_stmt 1
        vcmpgesd  %xmm5, %xmm4, %xmm6                           #752.3
..LN1962:
        vmovd     %xmm6, %edi                                   #752.3
..LN1963:
        negl      %edi                                          #752.3
..LN1964:
	.loc    1  753  is_stmt 1
        testq     %r9, %r9                                      #753.28
..LN1965:
        jle       ..B8.12       # Prob 10%                      #753.28
..LN1966:
                                # LOE rax rdx rcx rbx rbp rsi r8 r9 r10 r12 r13 r14 r15 edi xmm0 xmm1 xmm2 xmm3 xmm4 xmm5
..B8.3:                         # Preds ..B8.1 ..B8.10
..L255:         # optimization report
                # %s was not vectorized: vector dependence prevents vectorization%s
                # VECTOR TRIP COUNT IS ESTIMATED CONSTANT
..LN1967:
	.loc    1  756  is_stmt 1
        vmovsd    (%r10,%rdx,8), %xmm10                         #756.18
..LN1968:
        vcomisd   %xmm5, %xmm10                                 #756.34
..LN1969:
        jb        ..B8.6        # Prob 50%                      #756.34
..LN1970:
                                # LOE rax rdx rcx rbx rbp rsi r8 r9 r10 r12 r13 r14 r15 edi xmm0 xmm1 xmm2 xmm3 xmm4 xmm5 xmm10
..B8.4:                         # Preds ..B8.3
..LN1971:
        cmpl      $1, %edi                                      #756.44
..LN1972:
        movl      $1, %edi                                      #756.10
..LN1973:
        jne       ..B8.7        # Prob 50%                      #756.44
..LN1974:
                                # LOE rax rdx rcx rbx rbp rsi r8 r9 r10 r12 r13 r14 r15 edi xmm0 xmm1 xmm2 xmm3 xmm4 xmm5 xmm10
..B8.5:                         # Preds ..B8.4
..LN1975:
	.loc    1  764  is_stmt 1
        vmovsd    (%rsi,%rdx,8), %xmm11                         #764.24
..LN1976:
        jmp       ..B8.8        # Prob 100%                     #764.24
..LN1977:
                                # LOE rax rdx rcx rbx rbp rsi r8 r9 r10 r12 r13 r14 r15 edi xmm1 xmm2 xmm3 xmm5 xmm10 xmm11
..B8.6:                         # Preds ..B8.3
..LN1978:
	.loc    1  756  is_stmt 1
        testl     %edi, %edi                                    #756.44
..LN1979:
        movl      $0, %edi                                      #756.10
..LN1980:
        je        ..B8.9        # Prob 50%                      #756.44
..LN1981:
                                # LOE rax rdx rcx rbx rbp rsi r8 r9 r10 r12 r13 r14 r15 edi xmm0 xmm1 xmm2 xmm3 xmm4 xmm5 xmm10
..B8.7:                         # Preds ..B8.4 ..B8.6
..LN1982:
	.loc    1  758  is_stmt 1
        vmovsd    (%rsi,%rdx,8), %xmm11                         #758.54
..LN1983:
        vsubsd    %xmm4, %xmm5, %xmm6                           #758.43
..LN1984:
        vsubsd    %xmm0, %xmm11, %xmm7                          #758.69
..LN1985:
        vsubsd    %xmm4, %xmm10, %xmm4                          #758.95
..LN1986:
        vmulsd    %xmm7, %xmm6, %xmm8                           #758.69
..LN1987:
        vdivsd    %xmm4, %xmm8, %xmm9                           #758.95
..LN1988:
	.loc    1  757  is_stmt 1
        vmovsd    %xmm5, 400(%rsp,%rax,8)                       #757.7
..LN1989:
	.loc    1  758  is_stmt 1
        vaddsd    %xmm9, %xmm0, %xmm0                           #758.95
..LN1990:
        vmovsd    %xmm0, (%rsp,%rax,8)                          #758.7
..LN1991:
        incq      %rax                                          #758.13
..LN1992:
	.loc    1  762  is_stmt 1
        testl     %edi, %edi                                    #762.9
..LN1993:
        je        ..B8.10       # Prob 50%                      #762.9
..LN1994:
                                # LOE rax rdx rcx rbx rbp rsi r8 r9 r10 r12 r13 r14 r15 edi xmm1 xmm2 xmm3 xmm5 xmm10 xmm11
..B8.8:                         # Preds ..B8.5 ..B8.7
..LN1995:
	.loc    1  763  is_stmt 1
        vmovsd    %xmm10, 400(%rsp,%rax,8)                      #763.7
..LN1996:
	.loc    1  764  is_stmt 1
        vmovsd    %xmm11, (%rsp,%rax,8)                         #764.7
..LN1997:
        incq      %rax                                          #764.13
..LN1998:
        jmp       ..B8.10       # Prob 100%                     #764.13
..LN1999:
                                # LOE rax rdx rcx rbx rbp rsi r8 r9 r10 r12 r13 r14 r15 edi xmm1 xmm2 xmm3 xmm5 xmm10 xmm11
..B8.9:                         # Preds ..B8.6
..LN2000:
	.loc    1  767  is_stmt 1
        vmovsd    (%rsi,%rdx,8), %xmm11                         #767.14
..LN2001:
                                # LOE rax rdx rcx rbx rbp rsi r8 r9 r10 r12 r13 r14 r15 edi xmm1 xmm2 xmm3 xmm5 xmm10 xmm11
..B8.10:                        # Preds ..B8.7 ..B8.9 ..B8.8
..LN2002:
	.loc    1  753  is_stmt 1
        incq      %rdx                                          #753.33
..LN2003:
	.loc    1  766  is_stmt 1
        vmovapd   %xmm10, %xmm4                                 #766.5
..LN2004:
	.loc    1  767  is_stmt 1
        vmovapd   %xmm11, %xmm0                                 #767.5
..LN2005:
	.loc    1  753  is_stmt 1
        cmpq      %r9, %rdx                                     #753.28
..LN2006:
        jl        ..B8.3        # Prob 82%                      #753.28
..LN2007:
                                # LOE rax rdx rcx rbx rbp rsi r8 r9 r10 r12 r13 r14 r15 edi xmm0 xmm1 xmm2 xmm3 xmm4 xmm5
..B8.12:                        # Preds ..B8.10 ..B8.1
..LN2008:
	.loc    1  770  is_stmt 1
        movslq    %eax, %rdi                                    #770.9
..LN2009:
        testq     %rax, %rax                                    #770.9
..LN2010:
        je        ..B8.49       # Prob 28%                      #770.9
..LN2011:
                                # LOE rax rcx rbx rbp rdi r8 r12 r13 r14 r15 xmm1 xmm2 xmm3
..B8.13:                        # Preds ..B8.12
..LN2012:
	.loc    1  773  is_stmt 1
        vmovsd    392(%rsp,%rax,8), %xmm4                       #773.12
..LN2013:
	.loc    1  776  is_stmt 1
        xorl      %edx, %edx                                    #776.8
..LN2014:
        xorl      %r9d, %r9d                                    #776.15
..LN2015:
	.loc    1  775  is_stmt 1
        vcmpgesd  %xmm4, %xmm2, %xmm5                           #775.3
..LN2016:
        vmovd     %xmm5, %esi                                   #775.3
..LN2017:
	.loc    1  774  is_stmt 1
        vmovsd    -8(%rsp,%rax,8), %xmm0                        #774.12
..LN2018:
	.loc    1  775  is_stmt 1
        negl      %esi                                          #775.3
..LN2019:
	.loc    1  776  is_stmt 1
        xorl      %eax, %eax                                    #776.15
..LN2020:
        testq     %rdi, %rdi                                    #776.28
..LN2021:
        jle       ..B8.24       # Prob 10%                      #776.28
..LN2022:
                                # LOE rax rdx rcx rbx rbp rdi r8 r9 r12 r13 r14 r15 esi xmm0 xmm1 xmm2 xmm3 xmm4
..B8.15:                        # Preds ..B8.13 ..B8.22
..L256:         # optimization report
                # %s was not vectorized: vector dependence prevents vectorization%s
                # VECTOR TRIP COUNT IS ESTIMATED CONSTANT
..LN2023:
	.loc    1  779  is_stmt 1
        vmovsd    400(%rsp,%rdx,8), %xmm9                       #779.18
..LN2024:
        vcomisd   %xmm9, %xmm2                                  #779.33
..LN2025:
        jb        ..B8.18       # Prob 50%                      #779.33
..LN2026:
                                # LOE rax rdx rcx rbx rbp rdi r8 r9 r12 r13 r14 r15 esi xmm0 xmm1 xmm2 xmm3 xmm4 xmm9
..B8.16:                        # Preds ..B8.15
..LN2027:
        movl      $1, %r10d                                     #779.10
..LN2028:
        cmpl      $1, %esi                                      #779.43
..LN2029:
        jne       ..B8.19       # Prob 50%                      #779.43
..LN2030:
                                # LOE rax rdx rcx rbx rbp rdi r8 r9 r12 r13 r14 r15 r10d xmm0 xmm1 xmm2 xmm3 xmm4 xmm9
..B8.17:                        # Preds ..B8.16
..LN2031:
	.loc    1  788  is_stmt 1
        vmovsd    (%rsp,%rdx,8), %xmm10                         #788.26
..LN2032:
        jmp       ..B8.20       # Prob 100%                     #788.26
..LN2033:
                                # LOE rax rdx rcx rbx rbp rdi r8 r9 r12 r13 r14 r15 r10d xmm1 xmm2 xmm3 xmm9 xmm10
..B8.18:                        # Preds ..B8.15
..LN2034:
	.loc    1  779  is_stmt 1
        xorl      %r10d, %r10d                                  #779.10
..LN2035:
        testl     %esi, %esi                                    #779.43
..LN2036:
        je        ..B8.21       # Prob 50%                      #779.43
..LN2037:
                                # LOE rax rdx rcx rbx rbp rdi r8 r9 r12 r13 r14 r15 r10d xmm0 xmm1 xmm2 xmm3 xmm4 xmm9
..B8.19:                        # Preds ..B8.16 ..B8.18
..LN2038:
	.loc    1  781  is_stmt 1
        vmovsd    (%rsp,%rdx,8), %xmm10                         #781.56
..LN2039:
        incq      %r9                                           #781.15
..LN2040:
	.loc    1  780  is_stmt 1
        vmovsd    %xmm2, (%rax,%rcx)                            #780.7
..LN2041:
	.loc    1  781  is_stmt 1
        vsubsd    %xmm4, %xmm2, %xmm5                           #781.45
..LN2042:
        vsubsd    %xmm0, %xmm10, %xmm6                          #781.70
..LN2043:
	.loc    1  782  is_stmt 1
        vsubsd    %xmm4, %xmm9, %xmm4                           #782.67
..LN2044:
	.loc    1  781  is_stmt 1
        vmulsd    %xmm6, %xmm5, %xmm7                           #781.70
..LN2045:
	.loc    1  782  is_stmt 1
        vdivsd    %xmm4, %xmm7, %xmm8                           #782.67
..LN2046:
        vaddsd    %xmm8, %xmm0, %xmm0                           #782.67
..LN2047:
	.loc    1  781  is_stmt 1
        vmovsd    %xmm0, (%rax,%r8)                             #781.7
..LN2048:
        addq      $8, %rax                                      #781.15
..LN2049:
	.loc    1  786  is_stmt 1
        testl     %r10d, %r10d                                  #786.9
..LN2050:
        je        ..B8.22       # Prob 50%                      #786.9
..LN2051:
                                # LOE rax rdx rcx rbx rbp rdi r8 r9 r12 r13 r14 r15 r10d xmm1 xmm2 xmm3 xmm9 xmm10
..B8.20:                        # Preds ..B8.17 ..B8.19
..LN2052:
	.loc    1  787  is_stmt 1
        vmovsd    %xmm9, (%rax,%rcx)                            #787.7
..LN2053:
	.loc    1  788  is_stmt 1
        incq      %r9                                           #788.15
..LN2054:
        vmovsd    %xmm10, (%rax,%r8)                            #788.7
..LN2055:
        addq      $8, %rax                                      #788.15
..LN2056:
        jmp       ..B8.22       # Prob 100%                     #788.15
..LN2057:
                                # LOE rax rdx rcx rbx rbp rdi r8 r9 r12 r13 r14 r15 r10d xmm1 xmm2 xmm3 xmm9 xmm10
..B8.21:                        # Preds ..B8.18
..LN2058:
	.loc    1  792  is_stmt 1
        vmovsd    (%rsp,%rdx,8), %xmm10                         #792.14
..LN2059:
                                # LOE rax rdx rcx rbx rbp rdi r8 r9 r12 r13 r14 r15 r10d xmm1 xmm2 xmm3 xmm9 xmm10
..B8.22:                        # Preds ..B8.19 ..B8.21 ..B8.20
..LN2060:
	.loc    1  776  is_stmt 1
        incq      %rdx                                          #776.34
..LN2061:
	.loc    1  793  is_stmt 1
        movl      %r10d, %esi                                   #793.5
..LN2062:
	.loc    1  791  is_stmt 1
        vmovapd   %xmm9, %xmm4                                  #791.5
..LN2063:
	.loc    1  792  is_stmt 1
        vmovapd   %xmm10, %xmm0                                 #792.5
..LN2064:
	.loc    1  776  is_stmt 1
        cmpq      %rdi, %rdx                                    #776.28
..LN2065:
        jl        ..B8.15       # Prob 98%                      #776.28
..LN2066:
                                # LOE rax rdx rcx rbx rbp rdi r8 r9 r12 r13 r14 r15 esi xmm0 xmm1 xmm2 xmm3 xmm4
..B8.24:                        # Preds ..B8.22 ..B8.13
..LN2067:
	.loc    1  795  is_stmt 1
        movslq    %r9d, %rsi                                    #795.9
..LN2068:
        testq     %r9, %r9                                      #795.9
..LN2069:
        je        ..B8.49       # Prob 28%                      #795.9
..LN2070:
                                # LOE rcx rbx rbp rsi r8 r9 r12 r13 r14 r15 xmm1 xmm3
..B8.25:                        # Preds ..B8.24
..LN2071:
	.loc    1  799  is_stmt 1
        vmovsd    -8(%r8,%r9,8), %xmm0                          #799.12
..LN2072:
	.loc    1  801  is_stmt 1
        xorl      %eax, %eax                                    #801.8
..LN2073:
	.loc    1  798  is_stmt 1
        vmovsd    -8(%rcx,%r9,8), %xmm2                         #798.12
..LN2074:
	.loc    1  801  is_stmt 1
        xorl      %edi, %edi                                    #801.15
..LN2075:
	.loc    1  800  is_stmt 1
        vcmpgesd  %xmm1, %xmm0, %xmm4                           #800.3
..LN2076:
        vmovd     %xmm4, %edx                                   #800.3
..LN2077:
        negl      %edx                                          #800.3
..LN2078:
	.loc    1  801  is_stmt 1
        testq     %rsi, %rsi                                    #801.28
..LN2079:
        jle       ..B8.36       # Prob 10%                      #801.28
..LN2080:
                                # LOE rax rcx rbx rbp rsi rdi r8 r12 r13 r14 r15 edx xmm0 xmm1 xmm2 xmm3
..B8.27:                        # Preds ..B8.25 ..B8.34
..L257:         # optimization report
                # %s was not vectorized: vector dependence prevents vectorization%s
                # VECTOR TRIP COUNT IS ESTIMATED CONSTANT
..LN2081:
	.loc    1  804  is_stmt 1
        vmovsd    (%r8,%rax,8), %xmm9                           #804.18
..LN2082:
        vcomisd   %xmm1, %xmm9                                  #804.35
..LN2083:
        jb        ..B8.30       # Prob 50%                      #804.35
..LN2084:
                                # LOE rax rcx rbx rbp rsi rdi r8 r12 r13 r14 r15 edx xmm0 xmm1 xmm2 xmm3 xmm9
..B8.28:                        # Preds ..B8.27
..LN2085:
        movl      $1, %r9d                                      #804.10
..LN2086:
        cmpl      $1, %edx                                      #804.45
..LN2087:
        jne       ..B8.31       # Prob 50%                      #804.45
..LN2088:
                                # LOE rax rcx rbx rbp rsi rdi r8 r12 r13 r14 r15 r9d xmm0 xmm1 xmm2 xmm3 xmm9
..B8.29:                        # Preds ..B8.28
..LN2089:
	.loc    1  811  is_stmt 1
        vmovsd    (%rcx,%rax,8), %xmm8                          #811.24
..LN2090:
        jmp       ..B8.32       # Prob 100%                     #811.24
..LN2091:
                                # LOE rax rcx rbx rbp rsi rdi r8 r12 r13 r14 r15 r9d xmm1 xmm3 xmm8 xmm9
..B8.30:                        # Preds ..B8.27
..LN2092:
	.loc    1  804  is_stmt 1
        xorl      %r9d, %r9d                                    #804.10
..LN2093:
        testl     %edx, %edx                                    #804.45
..LN2094:
        je        ..B8.33       # Prob 50%                      #804.45
..LN2095:
                                # LOE rax rcx rbx rbp rsi rdi r8 r12 r13 r14 r15 r9d xmm0 xmm1 xmm2 xmm3 xmm9
..B8.31:                        # Preds ..B8.28 ..B8.30
..LN2096:
	.loc    1  806  is_stmt 1
        vmovsd    (%rcx,%rax,8), %xmm8                          #806.54
..LN2097:
        vsubsd    %xmm0, %xmm1, %xmm5                           #806.43
..LN2098:
        vsubsd    %xmm2, %xmm8, %xmm4                           #806.70
..LN2099:
        vsubsd    %xmm0, %xmm9, %xmm0                           #806.97
..LN2100:
        vmulsd    %xmm5, %xmm4, %xmm6                           #806.70
..LN2101:
        vdivsd    %xmm0, %xmm6, %xmm7                           #806.97
..LN2102:
	.loc    1  805  is_stmt 1
        vmovsd    %xmm1, (%rsp,%rdi,8)                          #805.7
..LN2103:
	.loc    1  806  is_stmt 1
        vaddsd    %xmm7, %xmm2, %xmm2                           #806.97
..LN2104:
        vmovsd    %xmm2, 400(%rsp,%rdi,8)                       #806.7
..LN2105:
        incq      %rdi                                          #806.13
..LN2106:
	.loc    1  810  is_stmt 1
        testl     %r9d, %r9d                                    #810.9
..LN2107:
        je        ..B8.34       # Prob 50%                      #810.9
..LN2108:
                                # LOE rax rcx rbx rbp rsi rdi r8 r12 r13 r14 r15 r9d xmm1 xmm3 xmm8 xmm9
..B8.32:                        # Preds ..B8.29 ..B8.31
..LN2109:
	.loc    1  811  is_stmt 1
        vmovsd    %xmm8, 400(%rsp,%rdi,8)                       #811.7
..LN2110:
	.loc    1  812  is_stmt 1
        vmovsd    %xmm9, (%rsp,%rdi,8)                          #812.7
..LN2111:
        incq      %rdi                                          #812.13
..LN2112:
        jmp       ..B8.34       # Prob 100%                     #812.13
..LN2113:
                                # LOE rax rcx rbx rbp rsi rdi r8 r12 r13 r14 r15 r9d xmm1 xmm3 xmm8 xmm9
..B8.33:                        # Preds ..B8.30
..LN2114:
	.loc    1  814  is_stmt 1
        vmovsd    (%rcx,%rax,8), %xmm8                          #814.14
..LN2115:
                                # LOE rax rcx rbx rbp rsi rdi r8 r12 r13 r14 r15 r9d xmm1 xmm3 xmm8 xmm9
..B8.34:                        # Preds ..B8.31 ..B8.33 ..B8.32
..LN2116:
	.loc    1  801  is_stmt 1
        incq      %rax                                          #801.34
..LN2117:
	.loc    1  816  is_stmt 1
        movl      %r9d, %edx                                    #816.5
..LN2118:
	.loc    1  814  is_stmt 1
        vmovapd   %xmm8, %xmm2                                  #814.5
..LN2119:
	.loc    1  815  is_stmt 1
        vmovapd   %xmm9, %xmm0                                  #815.5
..LN2120:
	.loc    1  801  is_stmt 1
        cmpq      %rsi, %rax                                    #801.28
..LN2121:
        jl        ..B8.27       # Prob 82%                      #801.28
..LN2122:
                                # LOE rax rcx rbx rbp rsi rdi r8 r12 r13 r14 r15 edx xmm0 xmm1 xmm2 xmm3
..B8.36:                        # Preds ..B8.34 ..B8.25
..LN2123:
	.loc    1  818  is_stmt 1
        movslq    %edi, %r9                                     #818.9
..LN2124:
        testq     %rdi, %rdi                                    #818.9
..LN2125:
        je        ..B8.49       # Prob 28%                      #818.9
..LN2126:
                                # LOE rcx rbx rbp rdi r8 r9 r12 r13 r14 r15 xmm3
..B8.37:                        # Preds ..B8.36
..LN2127:
	.loc    1  822  is_stmt 1
        vmovsd    -8(%rsp,%rdi,8), %xmm0                        #822.12
..LN2128:
	.loc    1  824  is_stmt 1
        xorl      %esi, %esi                                    #824.8
..LN2129:
	.loc    1  821  is_stmt 1
        vmovsd    392(%rsp,%rdi,8), %xmm1                       #821.12
..LN2130:
	.loc    1  824  is_stmt 1
        xorl      %eax, %eax                                    #824.15
..LN2131:
        xorl      %edx, %edx                                    #824.15
..LN2132:
	.loc    1  823  is_stmt 1
        vcmpgesd  %xmm0, %xmm3, %xmm2                           #823.3
..LN2133:
        vmovd     %xmm2, %edi                                   #823.3
..LN2134:
        negl      %edi                                          #823.3
..LN2135:
	.loc    1  824  is_stmt 1
        testq     %r9, %r9                                      #824.28
..LN2136:
        jle       ..B8.48       # Prob 10%                      #824.28
..LN2137:
                                # LOE rdx rcx rbx rbp rsi r8 r9 r12 r13 r14 r15 eax edi xmm0 xmm1 xmm3
..B8.39:                        # Preds ..B8.37 ..B8.46
..L258:         # optimization report
                # %s was not vectorized: vector dependence prevents vectorization%s
                # VECTOR TRIP COUNT IS ESTIMATED CONSTANT
..LN2138:
	.loc    1  827  is_stmt 1
        vmovsd    (%rsp,%rsi,8), %xmm8                          #827.18
..LN2139:
        vcomisd   %xmm8, %xmm3                                  #827.33
..LN2140:
        jb        ..B8.42       # Prob 50%                      #827.33
..LN2141:
                                # LOE rdx rcx rbx rbp rsi r8 r9 r12 r13 r14 r15 eax edi xmm0 xmm1 xmm3 xmm8
..B8.40:                        # Preds ..B8.39
..LN2142:
        movl      $1, %r10d                                     #827.10
..LN2143:
        cmpl      $1, %edi                                      #827.43
..LN2144:
        jne       ..B8.43       # Prob 50%                      #827.43
..LN2145:
                                # LOE rdx rcx rbx rbp rsi r8 r9 r12 r13 r14 r15 eax r10d xmm0 xmm1 xmm3 xmm8
..B8.41:                        # Preds ..B8.40
..LN2146:
	.loc    1  834  is_stmt 1
        vmovsd    400(%rsp,%rsi,8), %xmm7                       #834.26
..LN2147:
        jmp       ..B8.44       # Prob 100%                     #834.26
..LN2148:
                                # LOE rdx rcx rbx rbp rsi r8 r9 r12 r13 r14 r15 eax r10d xmm3 xmm7 xmm8
..B8.42:                        # Preds ..B8.39
..LN2149:
	.loc    1  827  is_stmt 1
        xorl      %r10d, %r10d                                  #827.10
..LN2150:
        testl     %edi, %edi                                    #827.43
..LN2151:
        je        ..B8.45       # Prob 50%                      #827.43
..LN2152:
                                # LOE rdx rcx rbx rbp rsi r8 r9 r12 r13 r14 r15 eax r10d xmm0 xmm1 xmm3 xmm8
..B8.43:                        # Preds ..B8.40 ..B8.42
..LN2153:
	.loc    1  829  is_stmt 1
        vmovsd    400(%rsp,%rsi,8), %xmm7                       #829.56
..LN2154:
        incl      %eax                                          #829.15
..LN2155:
	.loc    1  828  is_stmt 1
        vmovsd    %xmm3, (%rdx,%r8)                             #828.7
..LN2156:
	.loc    1  829  is_stmt 1
        vsubsd    %xmm1, %xmm7, %xmm2                           #829.70
..LN2157:
        vsubsd    %xmm0, %xmm3, %xmm4                           #829.45
..LN2158:
        vsubsd    %xmm0, %xmm8, %xmm0                           #829.95
..LN2159:
        vmulsd    %xmm4, %xmm2, %xmm5                           #829.70
..LN2160:
        vdivsd    %xmm0, %xmm5, %xmm6                           #829.95
..LN2161:
        vaddsd    %xmm6, %xmm1, %xmm1                           #829.95
..LN2162:
        vmovsd    %xmm1, (%rdx,%rcx)                            #829.7
..LN2163:
        addq      $8, %rdx                                      #829.15
..LN2164:
	.loc    1  833  is_stmt 1
        testl     %r10d, %r10d                                  #833.9
..LN2165:
        je        ..B8.46       # Prob 50%                      #833.9
..LN2166:
                                # LOE rdx rcx rbx rbp rsi r8 r9 r12 r13 r14 r15 eax r10d xmm3 xmm7 xmm8
..B8.44:                        # Preds ..B8.41 ..B8.43
..LN2167:
	.loc    1  834  is_stmt 1
        vmovsd    %xmm7, (%rdx,%rcx)                            #834.7
..LN2168:
	.loc    1  835  is_stmt 1
        incl      %eax                                          #835.15
..LN2169:
        vmovsd    %xmm8, (%rdx,%r8)                             #835.7
..LN2170:
        addq      $8, %rdx                                      #835.15
..LN2171:
        jmp       ..B8.46       # Prob 100%                     #835.15
..LN2172:
                                # LOE rdx rcx rbx rbp rsi r8 r9 r12 r13 r14 r15 eax r10d xmm3 xmm7 xmm8
..B8.45:                        # Preds ..B8.42
..LN2173:
	.loc    1  837  is_stmt 1
        vmovsd    400(%rsp,%rsi,8), %xmm7                       #837.14
..LN2174:
                                # LOE rdx rcx rbx rbp rsi r8 r9 r12 r13 r14 r15 eax r10d xmm3 xmm7 xmm8
..B8.46:                        # Preds ..B8.43 ..B8.45 ..B8.44
..LN2175:
	.loc    1  824  is_stmt 1
        incq      %rsi                                          #824.34
..LN2176:
	.loc    1  839  is_stmt 1
        movl      %r10d, %edi                                   #839.5
..LN2177:
	.loc    1  837  is_stmt 1
        vmovapd   %xmm7, %xmm1                                  #837.5
..LN2178:
	.loc    1  838  is_stmt 1
        vmovapd   %xmm8, %xmm0                                  #838.5
..LN2179:
	.loc    1  824  is_stmt 1
        cmpq      %r9, %rsi                                     #824.28
..LN2180:
        jl        ..B8.39       # Prob 98%                      #824.28
..LN2181:
                                # LOE rdx rcx rbx rbp rsi r8 r9 r12 r13 r14 r15 eax edi xmm0 xmm1 xmm3
..B8.48:                        # Preds ..B8.46 ..B8.37
..LN2182:
	.loc    1  841  epilogue_begin  is_stmt 1
        addq      $808, %rsp                                    #841.9
	.cfi_def_cfa_offset 8
..LN2183:
        ret                                                     #841.9
	.cfi_def_cfa_offset 816
..LN2184:
                                # LOE
..B8.49:                        # Preds ..B8.12 ..B8.24 ..B8.36
..LN2185:
	.loc    1  818  is_stmt 1
        xorl      %eax, %eax                                    #818.29
..LN2186:
	.loc    1  818  epilogue_begin  is_stmt 1
        addq      $808, %rsp                                    #818.29
	.cfi_def_cfa_offset 8
..LN2187:
        ret                                                     #818.29
..LN2188:
        .align    16,0x90
	.cfi_endproc
..LN2189:
                                # LOE
..LN2190:
# mark_end;
	.type	clip,@function
	.size	clip,.-clip
..LNclip.2191:
.LNclip:
	.data
# -- End  clip
	.text
.L_2__routine_start_create_xgrid_1dx2d_order2__8:
# -- Begin  create_xgrid_1dx2d_order2_
	.text
# mark_begin;
       .align    16,0x90
	.globl create_xgrid_1dx2d_order2_
# --- create_xgrid_1dx2d_order2_(const int *, const int *, const int *, const int *, const double *, const double *, const double *, const double *, const double *, int *, int *, int *, int *, double *, double *, double *)
create_xgrid_1dx2d_order2_:
# parameter 1(nlon_in): %rdi
# parameter 2(nlat_in): %rsi
# parameter 3(nlon_out): %rdx
# parameter 4(nlat_out): %rcx
# parameter 5(lon_in): %r8
# parameter 6(lat_in): %r9
# parameter 7(lon_out): 16 + %rbp
# parameter 8(lat_out): 24 + %rbp
# parameter 9(mask_in): 32 + %rbp
# parameter 10(i_in): 40 + %rbp
# parameter 11(j_in): 48 + %rbp
# parameter 12(i_out): 56 + %rbp
# parameter 13(j_out): 64 + %rbp
# parameter 14(xgrid_area): 72 + %rbp
# parameter 15(xgrid_clon): 80 + %rbp
# parameter 16(xgrid_clat): 88 + %rbp
..B9.1:                         # Preds ..B9.0
	.cfi_startproc
..___tag_value_create_xgrid_1dx2d_order2_.268:
..L269:
                                                        #229.1
..LN2192:
	.loc    1  229  is_stmt 1
        pushq     %rbp                                          #229.1
	.cfi_def_cfa_offset 16
..LN2193:
        movq      %rsp, %rbp                                    #229.1
	.cfi_def_cfa 6, 16
	.cfi_offset 6, -16
..LN2194:
        andq      $-32, %rsp                                    #229.1
..LN2195:
        pushq     %r12                                          #229.1
..LN2196:
        pushq     %r13                                          #229.1
..LN2197:
        pushq     %r14                                          #229.1
..LN2198:
        pushq     %r15                                          #229.1
..LN2199:
        pushq     %rbx                                          #229.1
..LN2200:
        subq      $3512, %rsp                                   #229.1
	.cfi_escape 0x10, 0x03, 0x0e, 0x38, 0x1c, 0x0d, 0xe0, 0xff, 0xff, 0xff, 0x1a, 0x0d, 0xd8, 0xff, 0xff, 0xff, 0x22
	.cfi_escape 0x10, 0x0c, 0x0e, 0x38, 0x1c, 0x0d, 0xe0, 0xff, 0xff, 0xff, 0x1a, 0x0d, 0xf8, 0xff, 0xff, 0xff, 0x22
	.cfi_escape 0x10, 0x0d, 0x0e, 0x38, 0x1c, 0x0d, 0xe0, 0xff, 0xff, 0xff, 0x1a, 0x0d, 0xf0, 0xff, 0xff, 0xff, 0x22
	.cfi_escape 0x10, 0x0e, 0x0e, 0x38, 0x1c, 0x0d, 0xe0, 0xff, 0xff, 0xff, 0x1a, 0x0d, 0xe8, 0xff, 0xff, 0xff, 0x22
	.cfi_escape 0x10, 0x0f, 0x0e, 0x38, 0x1c, 0x0d, 0xe0, 0xff, 0xff, 0xff, 0x1a, 0x0d, 0xe0, 0xff, 0xff, 0xff, 0x22
..LN2201:
        movq      %rdi, %r12                                    #229.1
..LN2202:
        movq      %rsi, %r13                                    #229.1
..LN2203:
        movq      %rdx, %r14                                    #229.1
..LN2204:
        movq      %rcx, %r15                                    #229.1
..LN2205:
        movq      %r9, 3120(%rsp)                               #229.1
..LN2206:
	.loc    1  248  prologue_end  is_stmt 1
        movl      (%r12), %edi                                  #248.10
..LN2207:
        movl      %edi, 2384(%rsp)                              #248.10
..LN2208:
	.loc    1  270  is_stmt 1
        movslq    %edi, %rdi                                    #270.31
..LN2209:
        movq      %rdi, 3128(%rsp)                              #270.31
..LN2210:
	.loc    1  249  is_stmt 1
        movl      (%r13), %r11d                                 #249.10
..LN2211:
	.loc    1  257  is_stmt 1
        imull     %r11d, %edi                                   #257.28
..LN2212:
        movslq    %edi, %rdi                                    #257.28
..LN2213:
	.loc    1  250  is_stmt 1
        movl      (%r14), %eax                                  #250.10
..LN2214:
	.loc    1  251  is_stmt 1
        movl      (%r15), %r10d                                 #251.10
..LN2215:
	.loc    1  257  is_stmt 1
        shlq      $3, %rdi                                      #257.28
..LN2216:
	.loc    1  250  is_stmt 1
        movl      %eax, 3272(%rsp)                              #250.10
..LN2217:
	.loc    1  274  is_stmt 1
        movslq    %eax, %rax                                    #274.33
..LN2218:
	.loc    1  229  is_stmt 1
        movq      %r8, 2392(%rsp)                               #229.1
..LN2219:
	.loc    1  249  is_stmt 1
        movl      %r11d, 656(%rsp)                              #249.10
..LN2220:
	.loc    1  274  is_stmt 1
        movq      %rax, 3488(%rsp)                              #274.33
..LN2221:
	.loc    1  251  is_stmt 1
        movl      %r10d, 3264(%rsp)                             #251.10
..LN2222:
	.loc    1  253  is_stmt 1
        movq      $0, 3160(%rsp)                                #253.3
..LN2223:
	.loc    1  257  is_stmt 1
#       malloc(size_t)
        call      malloc                                        #257.28
..LN2224:
                                # LOE rax r12 r13 r14 r15
..B9.159:                       # Preds ..B9.1
..LN2225:
        movq      %rax, 664(%rsp)                               #257.28
..LN2226:
                                # LOE r12 r13 r14 r15
..B9.2:                         # Preds ..B9.159
..LN2227:
	.loc    1  258  is_stmt 1
        movl      3272(%rsp), %edi                              #258.28
..LN2228:
        imull     3264(%rsp), %edi                              #258.28
..LN2229:
        movslq    %edi, %rdi                                    #258.28
..LN2230:
        shlq      $3, %rdi                                      #258.28
..LN2231:
#       malloc(size_t)
        call      malloc                                        #258.28
..LN2232:
                                # LOE rax r12 r13 r14 r15
..B9.160:                       # Preds ..B9.2
..LN2233:
        movq      %rax, %rbx                                    #258.28
..LN2234:
                                # LOE rbx r12 r13 r14 r15
..B9.3:                         # Preds ..B9.160
..LN2235:
	.loc    1  259  is_stmt 1
        movl      2384(%rsp), %eax                              #259.32
..LN2236:
        movl      656(%rsp), %edx                               #259.40
..LN2237:
        lea       1(%rax), %edi                                 #259.32
..LN2238:
        movl      %edi, 48(%rsp)                                #259.32
..LN2239:
        lea       1(%rdx), %ecx                                 #259.40
..LN2240:
	.loc    1  261  is_stmt 1
        movslq    %edi, %rdi                                    #261.32
..LN2241:
        movq      %rdi, 40(%rsp)                                #261.32
..LN2242:
	.loc    1  259  is_stmt 1
        imull     %ecx, %edi                                    #259.40
..LN2243:
        movslq    %edi, %rdi                                    #259.40
..LN2244:
        shlq      $3, %rdi                                      #259.43
..LN2245:
        movl      %ecx, 56(%rsp)                                #259.40
..LN2246:
        movq      %rdi, (%rsp)                                  #259.43
..LN2247:
#       malloc(size_t)
        call      malloc                                        #259.20
..LN2248:
                                # LOE rax rbx r12 r13 r14 r15
..B9.161:                       # Preds ..B9.3
..LN2249:
        movq      %rax, 672(%rsp)                               #259.20
..LN2250:
                                # LOE rbx r12 r13 r14 r15
..B9.4:                         # Preds ..B9.161
..LN2251:
	.loc    1  260  is_stmt 1
        movq      (%rsp), %rdi                                  #260.20
..LN2252:
#       malloc(size_t)
        call      malloc                                        #260.20
..LN2253:
                                # LOE rax rbx r12 r13 r14 r15
..B9.162:                       # Preds ..B9.4
..LN2254:
        movq      %rax, 680(%rsp)                               #260.20
..LN2255:
                                # LOE rax rbx r12 r13 r14 r15 eax al ah
..B9.5:                         # Preds ..B9.162
..LN2256:
	.loc    1  261  is_stmt 1
        movq      %rax, %r10                                    #261.32
..LN2257:
        xorl      %r11d, %r11d                                  #261.3
..LN2258:
        movq      672(%rsp), %r9                                #261.32
..LN2259:
        xorl      %r8d, %r8d                                    #261.32
..LN2260:
        cmpl      $0, 656(%rsp)                                 #261.17
..LN2261:
        jl        ..B9.48       # Prob 9%                       #261.17
..LN2262:
                                # LOE rbx r8 r9 r10 r12 r13 r14 r15 r9d r10d r11d r9b r10b
..B9.6:                         # Preds ..B9.5
..LN2263:
        movq      3128(%rsp), %rsi                              #261.28
..LN2264:
        movq      40(%rsp), %rdx                                #261.28
..LN2265:
