	.section .text
.LNDBG_TX:
# mark_description "Intel(R) C Intel(R) 64 Compiler for applications running on Intel(R) 64, Version 16.0.3.210 Build 20160415";
# mark_description "-I/home/CMIP/prajeesh/IITM-ESMv2/src/mom4p1/exec/lib_fms -I/opt/cray/pe/libsci/17.09.1/INTEL/16.0/x86_64/inc";
# mark_description "lude -I/opt/cray/pe/netcdf/4.4.1.1.3/INTEL/16.0/include -I/opt/cray/pe/mpt/7.6.3/gni/mpich-intel/16.0/includ";
# mark_description "e -I/opt/cray/pe/hdf5/1.10.0.3/INTEL/16.0/include -I/opt/cray/rca/2.2.11-6.0.4.0_13.2__g84de67a.ari/include ";
# mark_description "-I/opt/cray/alps/6.4.3-6.0.4.1_2.1__g92a2fc0.ari/include -I/opt/cray/xpmem/2.2.2-6.0.4.1_18.1__g43b0535.ari/";
# mark_description "include -I/opt/cray/gni-headers/5.0.11-6.0.4.0_7.2__g7136988.ari/include -I/opt/cray/pe/pmi/5.0.12/include -";
# mark_description "I/opt/cray/ugni/6.0.14-6.0.4.0_14.1__ge7db4a2.ari/include -I/opt/cray/udreg/2.3.2-6.0.4.0_12.2__g2f9c3ee.ari";
# mark_description "/include -I/opt/cray/wlm_detect/1.2.1-6.0.4.0_22.1__gd26a3dc.ari/include -I/opt/cray/krca/2.2.2-6.0.4.1_18.3";
# mark_description "__g4614cf3.ari/include -I/opt/cray-hss-devel/8.0.0/include -xCORE-AVX2 -D__CRAYXC -D__CRAY_BROADWELL -D__CRA";
# mark_description "YXT_COMPUTE_LINUX_TARGET -Dlib_mppnccp2r -Duse_libMPI -g -O3 -save-temps -c";
	.file "mppnccombinep2r.c"
	.text
..TXTST0:
.L_2__routine_start_nccp2r_0:
# -- Begin  nccp2r
	.text
# mark_begin;
       .align    16,0x90
	.globl nccp2r
# --- nccp2r(int, char **)
nccp2r:
# parameter 1(argc): %edi
# parameter 2(argv): %rsi
..B1.1:                         # Preds ..B1.0
	.cfi_startproc
..___tag_value_nccp2r.2:
..L3:
                                                          #215.3
..LN0:
	.file   1 "/home/CMIP/prajeesh/IITM-ESMv2/src/mom4p1/src/postprocessing/run_mppncc/mppnccombinep2r.c"
	.loc    1  215  is_stmt 1
        pushq     %r12                                          #215.3
	.cfi_def_cfa_offset 16
	.cfi_offset 12, -16
..LN1:
        pushq     %r13                                          #215.3
	.cfi_def_cfa_offset 24
	.cfi_offset 13, -24
..LN2:
        pushq     %r14                                          #215.3
	.cfi_def_cfa_offset 32
	.cfi_offset 14, -32
..LN3:
        pushq     %r15                                          #215.3
	.cfi_def_cfa_offset 40
	.cfi_offset 15, -40
..LN4:
        pushq     %rbx                                          #215.3
	.cfi_def_cfa_offset 48
	.cfi_offset 3, -48
..LN5:
        pushq     %rbp                                          #215.3
	.cfi_def_cfa_offset 56
	.cfi_offset 6, -56
..LN6:
        subq      $20856, %rsp                                  #215.3
	.cfi_def_cfa_offset 20912
..LN7:
	.loc    1  216  prologue_end  is_stmt 1
        xorl      %r14d, %r14d                                  #216.25
..LN8:
	.loc    1  217  is_stmt 1
        xorl      %r12d, %r12d                                  #217.26
..LN9:
	.loc    1  218  is_stmt 1
        xorb      %r13b, %r13b                                  #218.26
..LN10:
	.loc    1  220  is_stmt 1
        movl      $-1, %r10d                                    #220.12
..LN11:
	.loc    1  224  is_stmt 1
        movl      %r12d, 20808(%rsp)                            #224.25
..LN12:
	.loc    1  222  is_stmt 1
        movl      $16384, %eax                                  #222.17
..LN13:
	.loc    1  223  is_stmt 1
        movl      $4, %edx                                      #223.14
..LN14:
	.loc    1  239  is_stmt 1
        movl      $1, %r9d                                      #239.13
..LN15:
	.loc    1  215  is_stmt 1
        movl      %edi, 20792(%rsp)                             #215.3
..LN16:
        movq      %rsi, %rbp                                    #215.3
..LN17:
	.loc    1  219  is_stmt 1
        movl      %r12d, 20736(%rsp)                            #219.14
..LN18:
	.loc    1  220  is_stmt 1
        movl      %r10d, 20744(%rsp)                            #220.12
..LN19:
	.loc    1  236  is_stmt 1
        movl      $-1, 20836(%rsp)                              #236.14
..LN20:
	.loc    1  243  is_stmt 1
        movq      $65536, 20720(%rsp)                           #243.16
..LN21:
	.loc    1  221  is_stmt 1
        movb      %r13b, 20784(%rsp)                            #221.13
..LN22:
	.loc    1  222  is_stmt 1
        movl      %eax, 20800(%rsp)                             #222.17
..LN23:
	.loc    1  223  is_stmt 1
        movl      %edx, 8(%rsp)                                 #223.14
..LN24:
	.loc    1  234  is_stmt 1
        movl      %r12d, 20768(%rsp)                            #234.30
..LN25:
	.loc    1  235  is_stmt 1
        movl      %r12d, 20760(%rsp)                            #235.31
..LN26:
	.loc    1  239  is_stmt 1
        movl      %r9d, 20840(%rsp)                             #239.13
..LN27:
	.loc    1  240  is_stmt 1
        movl      %r9d, 20844(%rsp)                             #240.10
..LN28:
	.loc    1  241  is_stmt 1
        movl      %r9d, 20832(%rsp)                             #241.15
..LN29:
	.loc    1  242  is_stmt 1
        movl      %r10d, 20728(%rsp)                            #242.16
..LN30:
	.loc    1  246  is_stmt 1
        cmpl      $2, %edi                                      #246.15
..LN31:
        jl        ..B1.45       # Prob 9%                       #246.15
..LN32:
                                # LOE rbp r12 r13 r12d r13d r14d r12b r13b
..B1.2:                         # Preds ..B1.1
..LN33:
	.loc    1  250  is_stmt 1
        movslq    20792(%rsp), %r15                             #250.4
..LN34:
        movl      $1, %ebx                                      #250.9
..LN35:
                                # LOE rbx rbp r15 r12d r14d r13b
..B1.3:                         # Preds ..B1.2 ..B1.43
..L18:          # optimization report
                # %s was not vectorized: loop control variable was not identified. Explicitly compute the iteration count before executing the loop or try using canonical loop form
..LN36:
	.loc    1  252  is_stmt 1
        movl      $.L_2__STRING.24, %esi                        #252.12
..LN37:
        movq      (%rbp,%rbx,8), %rcx                           #252.19
..LN38:
        movq      %rcx, %rdi                                    #252.12
..L19:                                                          #252.12
..LN39:
        movb      (%rdi), %dl                                   #252.12
..LN40:
        cmpb      (%rsi), %dl                                   #252.12
..LN41:
        jne       ..L21         # Prob 50%                      #252.12
..LN42:
        testb     %dl, %dl                                      #252.12
..LN43:
        je        ..L20         # Prob 50%                      #252.12
..LN44:
        movb      1(%rdi), %dl                                  #252.12
..LN45:
        cmpb      1(%rsi), %dl                                  #252.12
..LN46:
        jne       ..L21         # Prob 50%                      #252.12
..LN47:
        addq      $2, %rdi                                      #252.12
..LN48:
        addq      $2, %rsi                                      #252.12
..LN49:
        testb     %dl, %dl                                      #252.12
..LN50:
        jne       ..L19         # Prob 50%                      #252.12
..L20:                                                          #
..LN51:
        xorl      %eax, %eax                                    #252.12
..LN52:
        jmp       ..L22         # Prob 100%                     #252.12
..L21:                                                          #
..LN53:
        sbbl      %eax, %eax                                    #252.12
..LN54:
        orl       $1, %eax                                      #252.12
..L22:                                                          #
..LN55:
                                # LOE rcx rbx rbp r15 eax r12d r14d r13b
..B1.372:                       # Preds ..B1.3
..LN56:
        testl     %eax, %eax                                    #252.12
..LN57:
        jne       ..B1.5        # Prob 50%                      #252.12
..LN58:
                                # LOE rcx rbx rbp r15 r12d r14d r13b
..B1.4:                         # Preds ..B1.372
..LN59:
        movl      $1, %r14d                                     #252.34
..LN60:
        jmp       ..B1.43       # Prob 100%                     #252.34
..LN61:
                                # LOE rbx rbp r15 r12d r14d r13b
..B1.5:                         # Preds ..B1.372
..LN62:
	.loc    1  253  is_stmt 1
        movq      %rcx, %rdi                                    #253.17
..LN63:
        movl      $.L_2__STRING.23, %esi                        #253.17
..L23:                                                          #253.17
..LN64:
        movb      (%rdi), %dl                                   #253.17
..LN65:
        cmpb      (%rsi), %dl                                   #253.17
..LN66:
        jne       ..L25         # Prob 50%                      #253.17
..LN67:
        testb     %dl, %dl                                      #253.17
..LN68:
        je        ..L24         # Prob 50%                      #253.17
..LN69:
        movb      1(%rdi), %dl                                  #253.17
..LN70:
        cmpb      1(%rsi), %dl                                  #253.17
..LN71:
        jne       ..L25         # Prob 50%                      #253.17
..LN72:
        addq      $2, %rdi                                      #253.17
..LN73:
        addq      $2, %rsi                                      #253.17
..LN74:
        testb     %dl, %dl                                      #253.17
..LN75:
        jne       ..L23         # Prob 50%                      #253.17
..L24:                                                          #
..LN76:
        xorl      %eax, %eax                                    #253.17
..LN77:
        jmp       ..L26         # Prob 100%                     #253.17
..L25:                                                          #
..LN78:
        sbbl      %eax, %eax                                    #253.17
..LN79:
        orl       $1, %eax                                      #253.17
..L26:                                                          #
..LN80:
                                # LOE rcx rbx rbp r15 eax r12d r14d r13b
..B1.373:                       # Preds ..B1.5
..LN81:
        testl     %eax, %eax                                    #253.17
..LN82:
        jne       ..B1.7        # Prob 50%                      #253.17
..LN83:
                                # LOE rcx rbx rbp r15 r12d r14d r13b
..B1.6:                         # Preds ..B1.373
..LN84:
        movl      $2, %r14d                                     #253.40
..LN85:
        jmp       ..B1.43       # Prob 100%                     #253.40
..LN86:
                                # LOE rbx rbp r15 r12d r14d r13b
..B1.7:                         # Preds ..B1.373
..LN87:
	.loc    1  254  is_stmt 1
        movq      %rcx, %rdi                                    #254.17
..LN88:
        movl      $.L_2__STRING.22, %esi                        #254.17
..L27:                                                          #254.17
..LN89:
        movb      (%rdi), %dl                                   #254.17
..LN90:
        cmpb      (%rsi), %dl                                   #254.17
..LN91:
        jne       ..L29         # Prob 50%                      #254.17
..LN92:
        testb     %dl, %dl                                      #254.17
..LN93:
        je        ..L28         # Prob 50%                      #254.17
..LN94:
        movb      1(%rdi), %dl                                  #254.17
..LN95:
        cmpb      1(%rsi), %dl                                  #254.17
..LN96:
        jne       ..L29         # Prob 50%                      #254.17
..LN97:
        addq      $2, %rdi                                      #254.17
..LN98:
        addq      $2, %rsi                                      #254.17
..LN99:
        testb     %dl, %dl                                      #254.17
..LN100:
        jne       ..L27         # Prob 50%                      #254.17
..L28:                                                          #
..LN101:
        xorl      %eax, %eax                                    #254.17
..LN102:
        jmp       ..L30         # Prob 100%                     #254.17
..L29:                                                          #
..LN103:
        sbbl      %eax, %eax                                    #254.17
..LN104:
        orl       $1, %eax                                      #254.17
..L30:                                                          #
..LN105:
                                # LOE rcx rbx rbp r15 eax r12d r14d r13b
..B1.374:                       # Preds ..B1.7
..LN106:
        testl     %eax, %eax                                    #254.17
..LN107:
        je        ..B1.359      # Prob 20%                      #254.17
..LN108:
                                # LOE rcx rbx rbp r15 r12d r14d r13b
..B1.8:                         # Preds ..B1.374
..LN109:
	.loc    1  259  is_stmt 1
        movq      %rcx, %rdi                                    #259.17
..LN110:
        movl      $.L_2__STRING.21, %esi                        #259.17
..L31:                                                          #259.17
..LN111:
        movb      (%rdi), %dl                                   #259.17
..LN112:
        cmpb      (%rsi), %dl                                   #259.17
..LN113:
        jne       ..L33         # Prob 50%                      #259.17
..LN114:
        testb     %dl, %dl                                      #259.17
..LN115:
        je        ..L32         # Prob 50%                      #259.17
..LN116:
        movb      1(%rdi), %dl                                  #259.17
..LN117:
        cmpb      1(%rsi), %dl                                  #259.17
..LN118:
        jne       ..L33         # Prob 50%                      #259.17
..LN119:
        addq      $2, %rdi                                      #259.17
..LN120:
        addq      $2, %rsi                                      #259.17
..LN121:
        testb     %dl, %dl                                      #259.17
..LN122:
        jne       ..L31         # Prob 50%                      #259.17
..L32:                                                          #
..LN123:
        xorl      %eax, %eax                                    #259.17
..LN124:
        jmp       ..L34         # Prob 100%                     #259.17
..L33:                                                          #
..LN125:
        sbbl      %eax, %eax                                    #259.17
..LN126:
        orl       $1, %eax                                      #259.17
..L34:                                                          #
..LN127:
                                # LOE rcx rbx rbp r15 eax r12d r14d r13b
..B1.375:                       # Preds ..B1.8
..LN128:
        testl     %eax, %eax                                    #259.17
..LN129:
        jne       ..B1.10       # Prob 50%                      #259.17
..LN130:
                                # LOE rcx rbx rbp r15 r12d r14d r13b
..B1.9:                         # Preds ..B1.375
..LN131:
        movl      $1, print_mem_usage(%rip)                     #259.39
..LN132:
        jmp       ..B1.43       # Prob 100%                     #259.39
..LN133:
                                # LOE rbx rbp r15 r12d r14d r13b
..B1.10:                        # Preds ..B1.375
..LN134:
	.loc    1  260  is_stmt 1
        movq      %rcx, %rdi                                    #260.17
..LN135:
        movl      $.L_2__STRING.20, %esi                        #260.17
..L35:                                                          #260.17
..LN136:
        movb      (%rdi), %dl                                   #260.17
..LN137:
        cmpb      (%rsi), %dl                                   #260.17
..LN138:
        jne       ..L37         # Prob 50%                      #260.17
..LN139:
        testb     %dl, %dl                                      #260.17
..LN140:
        je        ..L36         # Prob 50%                      #260.17
..LN141:
        movb      1(%rdi), %dl                                  #260.17
..LN142:
        cmpb      1(%rsi), %dl                                  #260.17
..LN143:
        jne       ..L37         # Prob 50%                      #260.17
..LN144:
        addq      $2, %rdi                                      #260.17
..LN145:
        addq      $2, %rsi                                      #260.17
..LN146:
        testb     %dl, %dl                                      #260.17
..LN147:
        jne       ..L35         # Prob 50%                      #260.17
..L36:                                                          #
..LN148:
        xorl      %eax, %eax                                    #260.17
..LN149:
        jmp       ..L38         # Prob 100%                     #260.17
..L37:                                                          #
..LN150:
        sbbl      %eax, %eax                                    #260.17
..LN151:
        orl       $1, %eax                                      #260.17
..L38:                                                          #
..LN152:
                                # LOE rcx rbx rbp r15 eax r12d r14d r13b
..B1.376:                       # Preds ..B1.10
..LN153:
        testl     %eax, %eax                                    #260.17
..LN154:
        jne       ..B1.12       # Prob 50%                      #260.17
..LN155:
                                # LOE rcx rbx rbp r15 r12d r14d r13b
..B1.11:                        # Preds ..B1.376
..LN156:
	.loc    1  261  is_stmt 1
        movl      $1, mem_dry_run(%rip)                         #261.9
..LN157:
        jmp       ..B1.43       # Prob 100%                     #261.9
..LN158:
                                # LOE rbx rbp r15 r12d r14d r13b
..B1.12:                        # Preds ..B1.376
..LN159:
	.loc    1  263  is_stmt 1
        movq      %rcx, %rdi                                    #263.17
..LN160:
        movl      $.L_2__STRING.19, %esi                        #263.17
..L39:                                                          #263.17
..LN161:
        movb      (%rdi), %dl                                   #263.17
..LN162:
        cmpb      (%rsi), %dl                                   #263.17
..LN163:
        jne       ..L41         # Prob 50%                      #263.17
..LN164:
        testb     %dl, %dl                                      #263.17
..LN165:
        je        ..L40         # Prob 50%                      #263.17
..LN166:
        movb      1(%rdi), %dl                                  #263.17
..LN167:
        cmpb      1(%rsi), %dl                                  #263.17
..LN168:
        jne       ..L41         # Prob 50%                      #263.17
..LN169:
        addq      $2, %rdi                                      #263.17
..LN170:
        addq      $2, %rsi                                      #263.17
..LN171:
        testb     %dl, %dl                                      #263.17
..LN172:
        jne       ..L39         # Prob 50%                      #263.17
..L40:                                                          #
..LN173:
        xorl      %eax, %eax                                    #263.17
..LN174:
        jmp       ..L42         # Prob 100%                     #263.17
..L41:                                                          #
..LN175:
        sbbl      %eax, %eax                                    #263.17
..LN176:
        orl       $1, %eax                                      #263.17
..L42:                                                          #
..LN177:
                                # LOE rcx rbx rbp r15 eax r12d r14d r13b
..B1.377:                       # Preds ..B1.12
..LN178:
        testl     %eax, %eax                                    #263.17
..LN179:
        jne       ..B1.14       # Prob 50%                      #263.17
..LN180:
                                # LOE rcx rbx rbp r15 r12d r14d r13b
..B1.13:                        # Preds ..B1.377
..LN181:
        movl      $1, %r12d                                     #263.39
..LN182:
        jmp       ..B1.43       # Prob 100%                     #263.39
..LN183:
                                # LOE rbx rbp r15 r12d r14d r13b
..B1.14:                        # Preds ..B1.377
..LN184:
	.loc    1  264  is_stmt 1
        movq      %rcx, %rdi                                    #264.17
..LN185:
        movl      $.L_2__STRING.18, %esi                        #264.17
..L43:                                                          #264.17
..LN186:
        movb      (%rdi), %dl                                   #264.17
..LN187:
        cmpb      (%rsi), %dl                                   #264.17
..LN188:
        jne       ..L45         # Prob 50%                      #264.17
..LN189:
        testb     %dl, %dl                                      #264.17
..LN190:
        je        ..L44         # Prob 50%                      #264.17
..LN191:
        movb      1(%rdi), %dl                                  #264.17
..LN192:
        cmpb      1(%rsi), %dl                                  #264.17
..LN193:
        jne       ..L45         # Prob 50%                      #264.17
..LN194:
        addq      $2, %rdi                                      #264.17
..LN195:
        addq      $2, %rsi                                      #264.17
..LN196:
        testb     %dl, %dl                                      #264.17
..LN197:
        jne       ..L43         # Prob 50%                      #264.17
..L44:                                                          #
..LN198:
        xorl      %eax, %eax                                    #264.17
..LN199:
        jmp       ..L46         # Prob 100%                     #264.17
..L45:                                                          #
..LN200:
        sbbl      %eax, %eax                                    #264.17
..LN201:
        orl       $1, %eax                                      #264.17
..L46:                                                          #
..LN202:
                                # LOE rcx rbx rbp r15 eax r12d r14d r13b
..B1.378:                       # Preds ..B1.14
..LN203:
        testl     %eax, %eax                                    #264.17
..LN204:
        jne       ..B1.16       # Prob 50%                      #264.17
..LN205:
                                # LOE rcx rbx rbp r15 r12d r14d r13b
..B1.15:                        # Preds ..B1.378
..LN206:
        movb      $1, %r13b                                     #264.39
..LN207:
        jmp       ..B1.43       # Prob 100%                     #264.39
..LN208:
                                # LOE rbx rbp r15 r12d r14d r13b
..B1.16:                        # Preds ..B1.378
..LN209:
	.loc    1  265  is_stmt 1
        movq      %rcx, %rdi                                    #265.17
..LN210:
        movl      $.L_2__STRING.17, %esi                        #265.17
..L47:                                                          #265.17
..LN211:
        movb      (%rdi), %dl                                   #265.17
..LN212:
        cmpb      (%rsi), %dl                                   #265.17
..LN213:
        jne       ..L49         # Prob 50%                      #265.17
..LN214:
        testb     %dl, %dl                                      #265.17
..LN215:
        je        ..L48         # Prob 50%                      #265.17
..LN216:
        movb      1(%rdi), %dl                                  #265.17
..LN217:
        cmpb      1(%rsi), %dl                                  #265.17
..LN218:
        jne       ..L49         # Prob 50%                      #265.17
..LN219:
        addq      $2, %rdi                                      #265.17
..LN220:
        addq      $2, %rsi                                      #265.17
..LN221:
        testb     %dl, %dl                                      #265.17
..LN222:
        jne       ..L47         # Prob 50%                      #265.17
..L48:                                                          #
..LN223:
        xorl      %eax, %eax                                    #265.17
..LN224:
        jmp       ..L50         # Prob 100%                     #265.17
..L49:                                                          #
..LN225:
        sbbl      %eax, %eax                                    #265.17
..LN226:
        orl       $1, %eax                                      #265.17
..L50:                                                          #
..LN227:
                                # LOE rcx rbx rbp r15 eax r12d r14d r13b
..B1.379:                       # Preds ..B1.16
..LN228:
        testl     %eax, %eax                                    #265.17
..LN229:
        jne       ..B1.18       # Prob 50%                      #265.17
..LN230:
                                # LOE rcx rbx rbp r15 r12d r14d r13b
..B1.17:                        # Preds ..B1.379
..LN231:
        movb      $1, 20784(%rsp)                               #265.39
..LN232:
        jmp       ..B1.43       # Prob 100%                     #265.39
..LN233:
                                # LOE rbx rbp r15 r12d r14d r13b
..B1.18:                        # Preds ..B1.379
..LN234:
	.loc    1  266  is_stmt 1
        movq      %rcx, %rdi                                    #266.17
..LN235:
        movl      $.L_2__STRING.16, %esi                        #266.17
..L51:                                                          #266.17
..LN236:
        movb      (%rdi), %dl                                   #266.17
..LN237:
        cmpb      (%rsi), %dl                                   #266.17
..LN238:
        jne       ..L53         # Prob 50%                      #266.17
..LN239:
        testb     %dl, %dl                                      #266.17
..LN240:
        je        ..L52         # Prob 50%                      #266.17
..LN241:
        movb      1(%rdi), %dl                                  #266.17
..LN242:
        cmpb      1(%rsi), %dl                                  #266.17
..LN243:
        jne       ..L53         # Prob 50%                      #266.17
..LN244:
        addq      $2, %rdi                                      #266.17
..LN245:
        addq      $2, %rsi                                      #266.17
..LN246:
        testb     %dl, %dl                                      #266.17
..LN247:
        jne       ..L51         # Prob 50%                      #266.17
..L52:                                                          #
..LN248:
        xorl      %eax, %eax                                    #266.17
..LN249:
        jmp       ..L54         # Prob 100%                     #266.17
..L53:                                                          #
..LN250:
        sbbl      %eax, %eax                                    #266.17
..LN251:
        orl       $1, %eax                                      #266.17
..L54:                                                          #
..LN252:
                                # LOE rcx rbx rbp r15 eax r12d r14d r13b
..B1.380:                       # Preds ..B1.18
..LN253:
        testl     %eax, %eax                                    #266.17
..LN254:
        jne       ..B1.22       # Prob 50%                      #266.17
..LN255:
                                # LOE rcx rbx rbp r15 r12d r14d r13b
..B1.19:                        # Preds ..B1.380
..LN256:
	.loc    1  268  is_stmt 1
        incq      %rbx                                          #268.10
..LN257:
	.loc    1  269  is_stmt 1
        cmpq      %r15, %rbx                                    #269.18
..LN258:
        jge       ..B1.45       # Prob 20%                      #269.18
..LN259:
                                # LOE rbx rbp r15 r12d r14d r13b
..B1.20:                        # Preds ..B1.19
..LN260:
	.file   2 "/usr/include/stdlib.h"
	.loc    2  280  is_stmt 1
        movq      (%rbp,%rbx,8), %rcx                           #280.16
..LN261:
        call      __intel_sse4_atol                             #280.16
..LN262:
                                # LOE rax rbx rbp r15 r12d r14d r13b
..B1.21:                        # Preds ..B1.20
..LN263:
        movl      %eax, 20736(%rsp)                             #280.16
..LN264:
        jmp       ..B1.43       # Prob 100%                     #280.16
..LN265:
                                # LOE rbx rbp r15 r12d r14d r13b
..B1.22:                        # Preds ..B1.380
..LN266:
	.loc    1  275  is_stmt 1
        movq      %rcx, %rdi                                    #275.17
..LN267:
        movl      $.L_2__STRING.15, %esi                        #275.17
..L55:                                                          #275.17
..LN268:
        movb      (%rdi), %dl                                   #275.17
..LN269:
        cmpb      (%rsi), %dl                                   #275.17
..LN270:
        jne       ..L57         # Prob 50%                      #275.17
..LN271:
        testb     %dl, %dl                                      #275.17
..LN272:
        je        ..L56         # Prob 50%                      #275.17
..LN273:
        movb      1(%rdi), %dl                                  #275.17
..LN274:
        cmpb      1(%rsi), %dl                                  #275.17
..LN275:
        jne       ..L57         # Prob 50%                      #275.17
..LN276:
        addq      $2, %rdi                                      #275.17
..LN277:
        addq      $2, %rsi                                      #275.17
..LN278:
        testb     %dl, %dl                                      #275.17
..LN279:
        jne       ..L55         # Prob 50%                      #275.17
..L56:                                                          #
..LN280:
        xorl      %eax, %eax                                    #275.17
..LN281:
        jmp       ..L58         # Prob 100%                     #275.17
..L57:                                                          #
..LN282:
        sbbl      %eax, %eax                                    #275.17
..LN283:
        orl       $1, %eax                                      #275.17
..L58:                                                          #
..LN284:
                                # LOE rcx rbx rbp r15 eax r12d r14d r13b
..B1.382:                       # Preds ..B1.22
..LN285:
        testl     %eax, %eax                                    #275.17
..LN286:
        jne       ..B1.29       # Prob 50%                      #275.17
..LN287:
                                # LOE rcx rbx rbp r15 r12d r14d r13b
..B1.23:                        # Preds ..B1.382
..LN288:
	.loc    1  277  is_stmt 1
        incq      %rbx                                          #277.10
..LN289:
	.loc    1  278  is_stmt 1
        cmpq      %r15, %rbx                                    #278.18
..LN290:
        jge       ..B1.45       # Prob 20%                      #278.18
..LN291:
                                # LOE rbx rbp r15 r12d r14d r13b
..B1.24:                        # Preds ..B1.23
..LN292:
	.loc    2  280  is_stmt 1
        movq      (%rbp,%rbx,8), %rcx                           #280.16
..LN293:
        call      __intel_sse4_atol                             #280.16
..LN294:
                                # LOE rax rbx rbp r15 r12d r14d r13b
..B1.25:                        # Preds ..B1.24
..LN295:
	.loc    1  278  is_stmt 1
        movl      %eax, 20844(%rsp)                             #278.24
..LN296:
	.loc    1  283  is_stmt 1
        cmpl      $0, mem_dry_run(%rip)                         #283.14
..LN297:
        jne       ..B1.43       # Prob 50%                      #283.14
..LN298:
                                # LOE rbx rbp r15 eax r12d r14d r13b
..B1.26:                        # Preds ..B1.25
..LN299:
	.loc    1  284  is_stmt 1
        cmpl      $100, %eax                                    #284.19
..LN300:
        jle       ..B1.43       # Prob 78%                      #284.19
..LN301:
                                # LOE rbx rbp r15 r12d r14d r13b
..B1.27:                        # Preds ..B1.26
..LN302:
	.loc    1  286  is_stmt 1
        movl      $.L_2__STRING.9, %esi                         #286.14
..LN303:
        movl      $100, %edx                                    #286.14
..LN304:
        xorl      %eax, %eax                                    #286.14
..LN305:
        movq      stderr(%rip), %rdi                            #286.14
..LN306:
#       fprintf(FILE *__restrict__, const char *__restrict__, ...)
        call      fprintf                                       #286.14
..LN307:
                                # LOE rbx rbp r15 r12d r14d r13b
..B1.28:                        # Preds ..B1.27
..LN308:
	.loc    1  287  is_stmt 1
        movl      $100, 20844(%rsp)                             #287.14
..LN309:
        jmp       ..B1.43       # Prob 100%                     #287.14
..LN310:
                                # LOE rbx rbp r15 r12d r14d r13b
..B1.29:                        # Preds ..B1.382
..LN311:
	.loc    1  290  is_stmt 1
        movq      %rcx, %rdi                                    #290.17
..LN312:
        movl      $.L_2__STRING.14, %esi                        #290.17
..L59:                                                          #290.17
..LN313:
        movb      (%rdi), %dl                                   #290.17
..LN314:
        cmpb      (%rsi), %dl                                   #290.17
..LN315:
        jne       ..L61         # Prob 50%                      #290.17
..LN316:
        testb     %dl, %dl                                      #290.17
..LN317:
        je        ..L60         # Prob 50%                      #290.17
..LN318:
        movb      1(%rdi), %dl                                  #290.17
..LN319:
        cmpb      1(%rsi), %dl                                  #290.17
..LN320:
        jne       ..L61         # Prob 50%                      #290.17
..LN321:
        addq      $2, %rdi                                      #290.17
..LN322:
        addq      $2, %rsi                                      #290.17
..LN323:
        testb     %dl, %dl                                      #290.17
..LN324:
        jne       ..L59         # Prob 50%                      #290.17
..L60:                                                          #
..LN325:
        xorl      %eax, %eax                                    #290.17
..LN326:
        jmp       ..L62         # Prob 100%                     #290.17
..L61:                                                          #
..LN327:
        sbbl      %eax, %eax                                    #290.17
..LN328:
        orl       $1, %eax                                      #290.17
..L62:                                                          #
..LN329:
                                # LOE rcx rbx rbp r15 eax r12d r14d r13b
..B1.384:                       # Preds ..B1.29
..LN330:
        testl     %eax, %eax                                    #290.17
..LN331:
        jne       ..B1.33       # Prob 50%                      #290.17
..LN332:
                                # LOE rcx rbx rbp r15 r12d r14d r13b
..B1.30:                        # Preds ..B1.384
..LN333:
	.loc    1  292  is_stmt 1
        incq      %rbx                                          #292.10
..LN334:
	.loc    1  293  is_stmt 1
        cmpq      %r15, %rbx                                    #293.18
..LN335:
        jge       ..B1.45       # Prob 20%                      #293.18
..LN336:
                                # LOE rbx rbp r15 r12d r14d r13b
..B1.31:                        # Preds ..B1.30
..LN337:
	.loc    2  280  is_stmt 1
        movq      (%rbp,%rbx,8), %rcx                           #280.16
..LN338:
        call      __intel_sse4_atol                             #280.16
..LN339:
                                # LOE rax rbx rbp r15 r12d r14d r13b
..B1.32:                        # Preds ..B1.31
..LN340:
        movl      %eax, 20744(%rsp)                             #280.16
..LN341:
        jmp       ..B1.43       # Prob 100%                     #280.16
..LN342:
                                # LOE rbx rbp r15 r12d r14d r13b
..B1.33:                        # Preds ..B1.384
..LN343:
	.loc    1  299  is_stmt 1
        movq      %rcx, %rdi                                    #299.17
..LN344:
        movl      $.L_2__STRING.13, %esi                        #299.17
..L63:                                                          #299.17
..LN345:
        movb      (%rdi), %dl                                   #299.17
..LN346:
        cmpb      (%rsi), %dl                                   #299.17
..LN347:
        jne       ..L65         # Prob 50%                      #299.17
..LN348:
        testb     %dl, %dl                                      #299.17
..LN349:
        je        ..L64         # Prob 50%                      #299.17
..LN350:
        movb      1(%rdi), %dl                                  #299.17
..LN351:
        cmpb      1(%rsi), %dl                                  #299.17
..LN352:
        jne       ..L65         # Prob 50%                      #299.17
..LN353:
        addq      $2, %rdi                                      #299.17
..LN354:
        addq      $2, %rsi                                      #299.17
..LN355:
        testb     %dl, %dl                                      #299.17
..LN356:
        jne       ..L63         # Prob 50%                      #299.17
..L64:                                                          #
..LN357:
        xorl      %eax, %eax                                    #299.17
..LN358:
        jmp       ..L66         # Prob 100%                     #299.17
..L65:                                                          #
..LN359:
        sbbl      %eax, %eax                                    #299.17
..LN360:
        orl       $1, %eax                                      #299.17
..L66:                                                          #
..LN361:
                                # LOE rcx rbx rbp r15 eax r12d r14d r13b
..B1.386:                       # Preds ..B1.33
..LN362:
        testl     %eax, %eax                                    #299.17
..LN363:
        jne       ..B1.37       # Prob 50%                      #299.17
..LN364:
                                # LOE rcx rbx rbp r15 r12d r14d r13b
..B1.34:                        # Preds ..B1.386
..LN365:
	.loc    1  301  is_stmt 1
        incq      %rbx                                          #301.10
..LN366:
	.loc    1  302  is_stmt 1
        cmpq      %r15, %rbx                                    #302.18
..LN367:
        jge       ..B1.45       # Prob 20%                      #302.18
..LN368:
                                # LOE rbx rbp r15 r12d r14d r13b
..B1.35:                        # Preds ..B1.34
..LN369:
	.loc    2  280  is_stmt 1
        movq      (%rbp,%rbx,8), %rcx                           #280.16
..LN370:
        call      __intel_sse4_atol                             #280.16
..LN371:
                                # LOE rax rbx rbp r15 r12d r14d r13b
..B1.36:                        # Preds ..B1.35
..LN372:
        movl      %eax, 20800(%rsp)                             #280.16
..LN373:
        jmp       ..B1.43       # Prob 100%                     #280.16
..LN374:
                                # LOE rbx rbp r15 r12d r14d r13b
..B1.37:                        # Preds ..B1.386
..LN375:
	.loc    1  308  is_stmt 1
        movq      %rcx, %rdi                                    #308.17
..LN376:
        movl      $.L_2__STRING.12, %esi                        #308.17
..L67:                                                          #308.17
..LN377:
        movb      (%rdi), %dl                                   #308.17
..LN378:
        cmpb      (%rsi), %dl                                   #308.17
..LN379:
        jne       ..L69         # Prob 50%                      #308.17
..LN380:
        testb     %dl, %dl                                      #308.17
..LN381:
        je        ..L68         # Prob 50%                      #308.17
..LN382:
        movb      1(%rdi), %dl                                  #308.17
..LN383:
        cmpb      1(%rsi), %dl                                  #308.17
..LN384:
        jne       ..L69         # Prob 50%                      #308.17
..LN385:
        addq      $2, %rdi                                      #308.17
..LN386:
        addq      $2, %rsi                                      #308.17
..LN387:
        testb     %dl, %dl                                      #308.17
..LN388:
        jne       ..L67         # Prob 50%                      #308.17
..L68:                                                          #
..LN389:
        xorl      %eax, %eax                                    #308.17
..LN390:
        jmp       ..L70         # Prob 100%                     #308.17
..L69:                                                          #
..LN391:
        sbbl      %eax, %eax                                    #308.17
..LN392:
        orl       $1, %eax                                      #308.17
..L70:                                                          #
..LN393:
                                # LOE rcx rbx rbp r15 eax r12d r14d r13b
..B1.388:                       # Preds ..B1.37
..LN394:
        testl     %eax, %eax                                    #308.17
..LN395:
        jne       ..B1.39       # Prob 50%                      #308.17
..LN396:
                                # LOE rcx rbx rbp r15 r12d r14d r13b
..B1.38:                        # Preds ..B1.388
..LN397:
	.loc    1  309  is_stmt 1
        movl      $516, 8(%rsp)                                 #309.9
..LN398:
        jmp       ..B1.43       # Prob 100%                     #309.9
..LN399:
                                # LOE rbx rbp r15 r12d r14d r13b
..B1.39:                        # Preds ..B1.388
..LN400:
	.loc    1  310  is_stmt 1
        movq      %rcx, %rdi                                    #310.17
..LN401:
        movl      $.L_2__STRING.11, %esi                        #310.17
..L71:                                                          #310.17
..LN402:
        movb      (%rdi), %dl                                   #310.17
..LN403:
        cmpb      (%rsi), %dl                                   #310.17
..LN404:
        jne       ..L73         # Prob 50%                      #310.17
..LN405:
        testb     %dl, %dl                                      #310.17
..LN406:
        je        ..L72         # Prob 50%                      #310.17
..LN407:
        movb      1(%rdi), %dl                                  #310.17
..LN408:
        cmpb      1(%rsi), %dl                                  #310.17
..LN409:
        jne       ..L73         # Prob 50%                      #310.17
..LN410:
        addq      $2, %rdi                                      #310.17
..LN411:
        addq      $2, %rsi                                      #310.17
..LN412:
        testb     %dl, %dl                                      #310.17
..LN413:
        jne       ..L71         # Prob 50%                      #310.17
..L72:                                                          #
..LN414:
        xorl      %eax, %eax                                    #310.17
..LN415:
        jmp       ..L74         # Prob 100%                     #310.17
..L73:                                                          #
..LN416:
        sbbl      %eax, %eax                                    #310.17
..LN417:
        orl       $1, %eax                                      #310.17
..L74:                                                          #
..LN418:
                                # LOE rcx rbx rbp r15 eax r12d r14d r13b
..B1.389:                       # Preds ..B1.39
..LN419:
        testl     %eax, %eax                                    #310.17
..LN420:
        jne       ..B1.41       # Prob 50%                      #310.17
..LN421:
                                # LOE rcx rbx rbp r15 r12d r14d r13b
..B1.40:                        # Preds ..B1.389
..LN422:
	.loc    1  311  is_stmt 1
        movl      $4356, 8(%rsp)                                #311.2
..LN423:
        jmp       ..B1.43       # Prob 100%                     #311.2
..LN424:
                                # LOE rbx rbp r15 r12d r14d r13b
..B1.41:                        # Preds ..B1.389
..LN425:
	.loc    1  312  is_stmt 1
        movq      %rcx, %rdi                                    #312.17
..LN426:
        movl      $.L_2__STRING.10, %esi                        #312.17
..L75:                                                          #312.17
..LN427:
        movb      (%rdi), %dl                                   #312.17
..LN428:
        cmpb      (%rsi), %dl                                   #312.17
..LN429:
        jne       ..L77         # Prob 50%                      #312.17
..LN430:
        testb     %dl, %dl                                      #312.17
..LN431:
        je        ..L76         # Prob 50%                      #312.17
..LN432:
        movb      1(%rdi), %dl                                  #312.17
..LN433:
        cmpb      1(%rsi), %dl                                  #312.17
..LN434:
        jne       ..L77         # Prob 50%                      #312.17
..LN435:
        addq      $2, %rdi                                      #312.17
..LN436:
        addq      $2, %rsi                                      #312.17
..LN437:
        testb     %dl, %dl                                      #312.17
..LN438:
        jne       ..L75         # Prob 50%                      #312.17
..L76:                                                          #
..LN439:
        xorl      %eax, %eax                                    #312.17
..LN440:
        jmp       ..L78         # Prob 100%                     #312.17
..L77:                                                          #
..LN441:
        sbbl      %eax, %eax                                    #312.17
..LN442:
        orl       $1, %eax                                      #312.17
..L78:                                                          #
..LN443:
                                # LOE rbx rbp r15 eax r12d r14d r13b
..B1.390:                       # Preds ..B1.41
..LN444:
        testl     %eax, %eax                                    #312.17
..LN445:
        jne       ..B1.55       # Prob 20%                      #312.17
..LN446:
                                # LOE rbx rbp r15 r12d r14d r13b
..B1.42:                        # Preds ..B1.390
..LN447:
        movl      $1, 20808(%rsp)                               #312.39
..LN448:
                                # LOE rbx rbp r15 r12d r14d r13b
..B1.43:                        # Preds ..B1.4 ..B1.6 ..B1.9 ..B1.11 ..B1.13
                                #       ..B1.15 ..B1.17 ..B1.21 ..B1.28 ..B1.26
                                #       ..B1.25 ..B1.32 ..B1.36 ..B1.38 ..B1.40
                                #       ..B1.42
..LN449:
	.loc    1  250  is_stmt 1
        incq      %rbx                                          #250.24
..LN450:
        cmpq      %r15, %rbx                                    #250.18
..LN451:
        jl        ..B1.3        # Prob 82%                      #250.18
..LN452:
                                # LOE rbx rbp r15 r12d r14d r13b
..B1.45:                        # Preds ..B1.1 ..B1.34 ..B1.30 ..B1.23 ..B1.19
                                #       ..B1.43 ..B1.55
..___tag_value_nccp2r.79:
..LN453:
	.loc    1  321  is_stmt 1
#       usage()
        call      usage                                         #321.7
..___tag_value_nccp2r.80:
..LN454:
                                # LOE
..B1.46:                        # Preds ..B1.45
..LN455:
        movl      $1, %eax                                      #321.22
..LN456:
	.loc    1  321  epilogue_begin  is_stmt 1
        addq      $20856, %rsp                                  #321.22
	.cfi_def_cfa_offset 56
	.cfi_restore 6
..LN457:
        popq      %rbp                                          #321.22
	.cfi_def_cfa_offset 48
	.cfi_restore 3
..LN458:
        popq      %rbx                                          #321.22
	.cfi_def_cfa_offset 40
	.cfi_restore 15
..LN459:
        popq      %r15                                          #321.22
	.cfi_def_cfa_offset 32
	.cfi_restore 14
..LN460:
        popq      %r14                                          #321.22
	.cfi_def_cfa_offset 24
	.cfi_restore 13
..LN461:
        popq      %r13                                          #321.22
	.cfi_def_cfa_offset 16
	.cfi_restore 12
..LN462:
        popq      %r12                                          #321.22
	.cfi_def_cfa_offset 8
..LN463:
        ret                                                     #321.22
	.cfi_def_cfa_offset 20912
	.cfi_offset 3, -48
	.cfi_offset 6, -56
	.cfi_offset 12, -16
	.cfi_offset 13, -24
	.cfi_offset 14, -32
	.cfi_offset 15, -40
..LN464:
                                # LOE
..B1.55:                        # Preds ..B1.390                # Infreq
..LN465:
	.loc    1  316  is_stmt 1
        movl      %ebx, %eax                                    #316.10
..LN466:
	.loc    1  319  is_stmt 1
        cmpl      $-1, %eax                                     #319.19
..LN467:
        je        ..B1.45       # Prob 2%                       #319.19
..LN468:
                                # LOE rbx rbp r15 eax r12d r14d r13b
..B1.56:                        # Preds ..B1.55                 # Infreq
..LN469:
	.loc    1  324  is_stmt 1
        movslq    %ebx, %r10                                    #324.4
..LN470:
	.loc    1  323  is_stmt 1
        movl      $-1, %r9d                                     #323.28
..LN471:
        movl      20792(%rsp), %ebx                             #323.13
..LN472:
	.loc    1  324  is_stmt 1
        lea       2048(%rsp), %rdi                              #324.4
..LN473:
        movq      (%rbp,%r10,8), %rsi                           #324.4
..LN474:
	.loc    1  323  is_stmt 1
        lea       -1(%rbx), %edx                                #323.13
..LN475:
        cmpl      %edx, %eax                                    #323.28
..LN476:
        lea       1(%rax), %ebx                                 #323.47
..LN477:
        movl      %edx, 16(%rsp)                                #323.13
..LN478:
        cmovge    %r9d, %ebx                                    #323.28
..LN479:
        xorl      %eax, %eax                                    #323.28
..LN480:
	.loc    1  324  is_stmt 1
#       sprintf(char *__restrict__, const char *__restrict__, ...)
        call      sprintf                                       #324.4
..LN481:
                                # LOE rbp r15 ebx r12d r14d r13b
..B1.57:                        # Preds ..B1.56                 # Infreq
..LN482:
        lea       2048(%rsp), %rdx                              #324.49
..LN483:
        movq      %rdx, %rcx                                    #324.49
..LN484:
        andq      $-16, %rdx                                    #324.49
..LN485:
        vpxor     %xmm0, %xmm0, %xmm0                           #324.49
..LN486:
        vpcmpeqb  (%rdx), %xmm0, %xmm0                          #324.49
..LN487:
        vpmovmskb %xmm0, %eax                                   #324.49
..LN488:
        andl      $15, %ecx                                     #324.49
..LN489:
        shrl      %cl, %eax                                     #324.49
..LN490:
        bsf       %eax, %eax                                    #324.49
..LN491:
        jne       ..L102        # Prob 60%                      #324.49
..LN492:
        movq      %rdx, %rax                                    #324.49
..LN493:
        addq      %rcx, %rdx                                    #324.49
..LN494:
        call      __intel_sse4_strlen                           #324.49
..L102:                                                         #
..LN495:
                                # LOE rax rbp r15 ebx r12d r14d r13b
..B1.391:                       # Preds ..B1.57                 # Infreq
..LN496:
	.loc    1  325  is_stmt 1
        cmpl      $4, %eax                                      #325.17
..LN497:
        jle       ..B1.60       # Prob 50%                      #325.17
..LN498:
                                # LOE rax rbp r15 ebx r12d r14d r13b
..B1.58:                        # Preds ..B1.391                # Infreq
..LN499:
	.loc    1  327  is_stmt 1
        movslq    %eax, %rax                                    #327.14
..LN500:
	.loc    1  328  is_stmt 1
        movl      $.L_2__STRING.25, %esi                        #328.12
..LN501:
	.loc    1  327  is_stmt 1
        lea       2048(%rsp,%rax), %r9                          #327.14
..LN502:
	.loc    1  328  is_stmt 1
        lea       -5(%r9), %rdi                                 #328.12
..L103:                                                         #328.12
..LN503:
        movb      (%rdi), %dl                                   #328.12
..LN504:
        cmpb      (%rsi), %dl                                   #328.12
..LN505:
        jne       ..L105        # Prob 50%                      #328.12
..LN506:
        testb     %dl, %dl                                      #328.12
..LN507:
        je        ..L104        # Prob 50%                      #328.12
..LN508:
        movb      1(%rdi), %dl                                  #328.12
..LN509:
        cmpb      1(%rsi), %dl                                  #328.12
..LN510:
        jne       ..L105        # Prob 50%                      #328.12
..LN511:
        addq      $2, %rdi                                      #328.12
..LN512:
        addq      $2, %rsi                                      #328.12
..LN513:
        testb     %dl, %dl                                      #328.12
..LN514:
        jne       ..L103        # Prob 50%                      #328.12
..L104:                                                         #
..LN515:
        xorl      %eax, %eax                                    #328.12
..LN516:
        jmp       ..L106        # Prob 100%                     #328.12
..L105:                                                         #
..LN517:
        sbbl      %eax, %eax                                    #328.12
..LN518:
        orl       $1, %eax                                      #328.12
..L106:                                                         #
..LN519:
                                # LOE rbp r9 r15 eax ebx r12d r14d r13b
..B1.392:                       # Preds ..B1.58                 # Infreq
..LN520:
        testl     %eax, %eax                                    #328.12
..LN521:
        jne       ..B1.60       # Prob 50%                      #328.12
..LN522:
                                # LOE rbp r9 r15 ebx r12d r14d r13b
..B1.59:                        # Preds ..B1.392                # Infreq
..LN523:
        movb      $0, -5(%r9)                                   #328.36
..LN524:
                                # LOE rbp r15 ebx r12d r14d r13b
..B1.60:                        # Preds ..B1.391 ..B1.392 ..B1.59 # Infreq
..LN525:
	.loc    1  333  is_stmt 1
        movl      mem_dry_run(%rip), %eax                       #333.8
..LN526:
        testl     %eax, %eax                                    #333.8
..LN527:
        je        ..B1.66       # Prob 50%                      #333.8
..LN528:
                                # LOE rbp r15 eax ebx r12d r14d r13b
..B1.61:                        # Preds ..B1.60                 # Infreq
..LN529:
	.loc    1  334  is_stmt 1
        cmpl      $1, 20844(%rsp)                               #334.16
..LN530:
        je        ..B1.63       # Prob 52%                      #334.16
..LN531:
                                # LOE rbp r15 eax ebx r12d r14d r13b
..B1.62:                        # Preds ..B1.61                 # Infreq
..LN532:
        movl      $il0_peep_printf_format_0, %edi               #334.19
..LN533:
        movq      stderr(%rip), %rsi                            #334.19
..LN534:
        movl      %eax, (%rsp)                                  #334.19
..LN535:
        call      fputs                                         #334.19
..LN536:
                                # LOE rbp r15 ebx r12d r14d r13b
..B1.418:                       # Preds ..B1.62                 # Infreq
..LN537:
        movl      (%rsp), %eax                                  #
..LN538:
                                # LOE rbp r15 eax ebx r12d r14d r13b
..B1.63:                        # Preds ..B1.418 ..B1.61        # Infreq
..LN539:
	.loc    1  335  is_stmt 1
        movl      $1, 20844(%rsp)                               #335.6
..LN540:
	.loc    1  336  is_stmt 1
        testl     %r14d, %r14d                                  #336.10
..LN541:
        jne       ..B1.64       # Prob 22%                      #336.10
..LN542:
                                # LOE rbp r15 eax ebx r12d r14d r13b
..B1.414:                       # Preds ..B1.63                 # Infreq
..LN543:
	.loc    1  333  is_stmt 1
        testl     %eax, %eax                                    #333.8
..LN544:
        jmp       ..B1.66       # Prob 100%                     #333.8
..LN545:
                                # LOE rbp r15 ebx r12d r14d r13b
..B1.64:                        # Preds ..B1.63                 # Infreq
..LN546:
	.loc    1  336  is_stmt 1
        movl      $il0_peep_printf_format_5, %edi               #336.19
..LN547:
        call      puts                                          #336.19
..LN548:
                                # LOE rbp r15 ebx r12d r14d r13b
..B1.65:                        # Preds ..B1.64                 # Infreq
..LN549:
	.loc    1  340  is_stmt 1
        movl      $0, ncopts(%rip)                              #340.4
..LN550:
        jmp       ..B1.80       # Prob 100%                     #340.4
..LN551:
                                # LOE rbp r15 ebx r12d r14d r13b
..B1.66:                        # Preds ..B1.60 ..B1.414        # Infreq
..LN552:
        movl      $0, ncopts(%rip)                              #340.4
..LN553:
	.loc    1  342  is_stmt 1
        jne       ..B1.80       # Prob 78%                      #342.9
..LN554:
                                # LOE rbp r15 ebx r12d r14d r13b
..B1.67:                        # Preds ..B1.66                 # Infreq
..LN555:
	.loc    1  344  is_stmt 1
        movl      $36126744, %edi                               #344.39
..LN556:
#       malloc(size_t)
        call      malloc                                        #344.39
..LN557:
                                # LOE rax rbp r15 ebx r12d r14d r13b
..B1.393:                       # Preds ..B1.67                 # Infreq
..LN558:
        movq      %rax, 20816(%rsp)                             #344.39
..LN559:
                                # LOE rbp r15 ebx r12d r14d r13b
..B1.68:                        # Preds ..B1.393                # Infreq
..LN560:
        cmpq      $0, 20816(%rsp)                               #344.73
..LN561:
        je        ..B1.357      # Prob 1%                       #344.73
..LN562:
                                # LOE rbp r15 ebx r12d r14d r13b
..B1.69:                        # Preds ..B1.68                 # Infreq
..LN563:
	.loc    1  348  is_stmt 1
        testl     %r12d, %r12d                                  #348.10
..LN564:
        jne       ..B1.78       # Prob 50%                      #348.10
..LN565:
                                # LOE rbp r15 ebx r12d r14d r13b
..B1.70:                        # Preds ..B1.69                 # Infreq
..LN566:
	.file   3 "/usr/include/sys/stat.h"
	.loc    3  454  is_stmt 1
        movl      $1, %edi                                      #454.10
..LN567:
        lea       2048(%rsp), %rsi                              #454.10
..LN568:
        lea       12320(%rsp), %rdx                             #454.10
..LN569:
#       __xstat(int, const char *, struct stat *)
        call      __xstat                                       #454.10
..LN570:
                                # LOE rbp r15 eax ebx r12d r14d r13b
..B1.71:                        # Preds ..B1.70                 # Infreq
..LN571:
	.loc    1  350  is_stmt 1
        testl     %eax, %eax                                    #350.40
..LN572:
        je        ..B1.75       # Prob 28%                      #350.40
..LN573:
                                # LOE rbp r15 ebx r12d r14d r13b
..B1.72:                        # Preds ..B1.71                 # Infreq
..LN574:
	.loc    1  355  is_stmt 1
        xorl      %edx, %edx                                    #355.17
..LN575:
        lea       2048(%rsp), %rdi                              #355.17
..LN576:
        movl      8(%rsp), %esi                                 #355.17
..LN577:
        lea       20720(%rsp), %rcx                             #355.17
..LN578:
        movq      96(%rcx), %r8                                 #355.17
..___tag_value_nccp2r.107:
..LN579:
#       nc__create(const char *, int, size_t, size_t *, int *)
        call      nc__create                                    #355.17
..___tag_value_nccp2r.108:
..LN580:
                                # LOE rbp r15 eax ebx r12d r14d r13b
..B1.73:                        # Preds ..B1.72                 # Infreq
..LN581:
	.loc    1  356  is_stmt 1
        cmpl      $-1, %eax                                     #356.20
..LN582:
        je        ..B1.112      # Prob 6%                       #356.20
..LN583:
                                # LOE rbp r15 ebx r12d r14d r13b
..B1.74:                        # Preds ..B1.73                 # Infreq
..LN584:
	.loc    1  361  is_stmt 1
        movq      20816(%rsp), %rax                             #361.8
..LN585:
        movl      $256, %esi                                    #361.8
..LN586:
        movl      (%rax), %edi                                  #361.8
..___tag_value_nccp2r.109:
..LN587:
#       ncsetfill(int, int)
        call      ncsetfill                                     #361.8
..___tag_value_nccp2r.110:
..LN588:
        jmp       ..B1.80       # Prob 100%                     #361.8
..LN589:
                                # LOE rbp r15 ebx r12d r14d r13b
..B1.75:                        # Preds ..B1.71                 # Infreq
..LN590:
	.loc    1  352  is_stmt 1
        movl      $il0_peep_printf_format_3, %edi               #352.4
..LN591:
        movq      stderr(%rip), %rsi                            #352.4
..LN592:
        call      fputs                                         #352.4
..LN593:
                                # LOE
..B1.76:                        # Preds ..B1.75                 # Infreq
..LN594:
	.loc    1  353  is_stmt 1
        movq      20816(%rsp), %rdi                             #353.4
..LN595:
#       free(void *)
        call      free                                          #353.4
..LN596:
                                # LOE
..B1.77:                        # Preds ..B1.76                 # Infreq
..LN597:
        movl      $1, %eax                                      #353.27
..LN598:
	.loc    1  353  epilogue_begin  is_stmt 1
        addq      $20856, %rsp                                  #353.27
	.cfi_def_cfa_offset 56
	.cfi_restore 6
..LN599:
        popq      %rbp                                          #353.27
	.cfi_def_cfa_offset 48
	.cfi_restore 3
..LN600:
        popq      %rbx                                          #353.27
	.cfi_def_cfa_offset 40
	.cfi_restore 15
..LN601:
        popq      %r15                                          #353.27
	.cfi_def_cfa_offset 32
	.cfi_restore 14
..LN602:
        popq      %r14                                          #353.27
	.cfi_def_cfa_offset 24
	.cfi_restore 13
..LN603:
        popq      %r13                                          #353.27
	.cfi_def_cfa_offset 16
	.cfi_restore 12
..LN604:
        popq      %r12                                          #353.27
	.cfi_def_cfa_offset 8
..LN605:
        ret                                                     #353.27
	.cfi_def_cfa_offset 20912
	.cfi_offset 3, -48
	.cfi_offset 6, -56
	.cfi_offset 12, -16
	.cfi_offset 13, -24
	.cfi_offset 14, -32
	.cfi_offset 15, -40
..LN606:
                                # LOE
..B1.78:                        # Preds ..B1.69                 # Infreq
..LN607:
	.loc    1  366  is_stmt 1
        movl      $1, %esi                                      #366.30
..LN608:
        lea       2048(%rsp), %rdi                              #366.30
..___tag_value_nccp2r.132:
..LN609:
#       ncopen(const char *, int)
        call      ncopen                                        #366.30
..___tag_value_nccp2r.133:
..LN610:
                                # LOE rbp r15 eax ebx r12d r14d r13b
..B1.396:                       # Preds ..B1.78                 # Infreq
..LN611:
        movl      %eax, %edx                                    #366.30
..LN612:
                                # LOE rbp r15 edx ebx r12d r14d r13b
..B1.79:                        # Preds ..B1.396                # Infreq
..LN613:
        movq      20816(%rsp), %rax                             #366.13
..LN614:
        movl      %edx, (%rax)                                  #366.13
..LN615:
        cmpl      $-1, %edx                                     #366.61
..LN616:
        je        ..B1.354      # Prob 2%                       #366.61
..LN617:
                                # LOE rbp r15 ebx r12d r14d r13b
..B1.80:                        # Preds ..B1.65 ..B1.74 ..B1.79 ..B1.66 # Infreq
..LN618:
	.loc    1  375  is_stmt 1
        cmpl      $-1, %ebx                                     #375.18
..LN619:
        je        ..B1.182      # Prob 16%                      #375.18
..LN620:
                                # LOE rbp r15 ebx r12d r14d r13b
..B1.81:                        # Preds ..B1.80                 # Infreq
..LN621:
	.loc    1  532  is_stmt 1
        movl      20832(%rsp), %eax                             #532.28
..LN622:
        xorl      %esi, %esi                                    #532.11
..LN623:
        testl     %eax, %eax                                    #532.28
..LN624:
        jle       ..B1.128      # Prob 10%                      #532.28
..LN625:
                                # LOE rbp r15 eax ebx esi r12d r14d r13b
..B1.82:                        # Preds ..B1.81                 # Infreq
..LN626:
        movq      %rbp, 20824(%rsp)                             #
..LN627:
        movb      %r13b, 20696(%rsp)                            #
..LN628:
        movl      %esi, %r13d                                   #
..LN629:
        movq      %r15, 20704(%rsp)                             #
..LN630:
        movl      %eax, %r15d                                   #
..LN631:
        movl      20792(%rsp), %ebp                             #
..LN632:
                                # LOE ebx ebp r12d r13d r14d r15d
..B1.83:                        # Preds ..B1.126 ..B1.82        # Infreq
..L134:         # optimization report
                # %s was not vectorized: loop control flow is too complex. Try using canonical loop form
..LN633:
	.loc    1  534  is_stmt 1
        testl     %r14d, %r14d                                  #534.13
..LN634:
        jne       ..B1.86       # Prob 22%                      #534.13
..LN635:
                                # LOE ebx ebp r12d r13d r14d r15d
..B1.84:                        # Preds ..B1.83                 # Infreq
..LN636:
	.loc    1  535  is_stmt 1
        xorl      %esi, %esi                                    #535.9
..LN637:
	.loc    1  536  is_stmt 1
        movl      %ebx, %eax                                    #536.14
..LN638:
        cmpl      %ebp, %ebx                                    #536.30
..LN639:
        jge       ..B1.115      # Prob 10%                      #536.30
..LN640:
                                # LOE eax ebx ebp esi r12d r13d r14d r15d
..B1.85:                        # Preds ..B1.84                 # Infreq
..LN641:
        movl      %r14d, 20752(%rsp)                            #
..LN642:
        movl      %eax, %r15d                                   #
..LN643:
        movl      %ebx, 20712(%rsp)                             #
..LN644:
        movl      %ebp, %ebx                                    #
..LN645:
        movq      20824(%rsp), %r14                             #
..LN646:
        movl      %esi, %ebp                                    #
..LN647:
        jmp       ..B1.92       # Prob 100%                     #
..LN648:
                                # LOE r14 ebx ebp r12d r13d r15d
..B1.86:                        # Preds ..B1.83                 # Infreq
..LN649:
	.loc    1  534  is_stmt 1
        movl      $.L_2__STRING.32, %edi                        #534.22
..LN650:
        movl      %r13d, %esi                                   #534.22
..LN651:
        xorl      %eax, %eax                                    #534.22
..___tag_value_nccp2r.135:
..LN652:
#       printf(const char *__restrict__, ...)
        call      printf                                        #534.22
..___tag_value_nccp2r.136:
..LN653:
                                # LOE ebx ebp r12d r13d r14d r15d
..B1.87:                        # Preds ..B1.86                 # Infreq
..LN654:
	.loc    1  535  is_stmt 1
        xorl      %esi, %esi                                    #535.9
..LN655:
	.loc    1  536  is_stmt 1
        movl      %ebx, %eax                                    #536.14
..LN656:
        cmpl      %ebp, %ebx                                    #536.30
..LN657:
        jge       ..B1.181      # Prob 10%                      #536.30
..LN658:
                                # LOE eax ebx ebp esi r12d r13d r14d r15d
..B1.88:                        # Preds ..B1.87                 # Infreq
..LN659:
        movl      %r14d, 20752(%rsp)                            #
..LN660:
        movl      %eax, %r15d                                   #
..LN661:
        movl      %ebx, 20712(%rsp)                             #
..LN662:
        movl      %ebp, %ebx                                    #
..LN663:
        movq      20824(%rsp), %r14                             #
..LN664:
        movl      %esi, %ebp                                    #
..LN665:
                                # LOE r14 ebx ebp r12d r13d r14d r15d r14b
..B1.89:                        # Preds ..B1.111 ..B1.88        # Infreq
..LN666:
	.loc    1  540  is_stmt 1
        movl      %ebx, %esi                                    #540.20
..LN667:
        subl      %r15d, %esi                                   #540.20
..LN668:
        cmpl      $1, %esi                                      #540.29
..LN669:
        je        ..B1.180      # Prob 16%                      #540.29
..LN670:
                                # LOE r14 ebx ebp esi r12d r13d r14d r15d r14b
..B1.90:                        # Preds ..B1.89                 # Infreq
..LN671:
	.loc    1  541  is_stmt 1
        movl      $.L_2__STRING.38, %edi                        #541.20
..LN672:
        xorl      %eax, %eax                                    #541.20
..___tag_value_nccp2r.137:
..LN673:
#       printf(const char *__restrict__, ...)
        call      printf                                        #541.20
..___tag_value_nccp2r.138:
..LN674:
                                # LOE r14 ebx ebp r12d r13d r14d r15d r14b
..B1.91:                        # Preds ..B1.180 ..B1.90        # Infreq
..LN675:
	.loc    1  542  is_stmt 1
        movslq    %r15d, %r15                                   #542.15
..LN676:
        movl      $.L_2__STRING.39, %edi                        #542.15
..LN677:
        xorl      %eax, %eax                                    #542.15
..LN678:
        movq      (%r14,%r15,8), %rsi                           #542.15
..___tag_value_nccp2r.139:
..LN679:
#       printf(const char *__restrict__, ...)
        call      printf                                        #542.15
..___tag_value_nccp2r.140:
..LN680:
                                # LOE r14 ebx ebp r12d r13d r15d
..B1.92:                        # Preds ..B1.85 ..B1.91         # Infreq
..LN681:
	.loc    1  566  is_stmt 1
        movl      %ebx, 20792(%rsp)                             #566.45
..LN682:
        lea       1(%r13), %edx                                 #566.45
..LN683:
        movq      %r14, 20824(%rsp)                             #566.45
..LN684:
        movl      %edx, (%rsp)                                  #566.45
..LN685:
        movl      %r13d, 8(%rsp)                                #566.45
..LN686:
        movl      20752(%rsp), %r14d                            #566.45
..LN687:
        movl      20768(%rsp), %ebx                             #566.45
..LN688:
                                # LOE ebx ebp r12d r14d r15d
..B1.93:                        # Preds ..B1.110 ..B1.92        # Infreq
..LN689:
	.loc    1  544  is_stmt 1
        movslq    %r15d, %r13                                   #544.21
..LN690:
	.loc    3  454  is_stmt 1
        movl      $1, %edi                                      #454.10
..LN691:
        movq      20824(%rsp), %r9                              #454.10
..LN692:
        lea       12320(%rsp), %rdx                             #454.10
..LN693:
        movq      (%r9,%r13,8), %rsi                            #454.10
..LN694:
#       __xstat(int, const char *, struct stat *)
        call      __xstat                                       #454.10
..LN695:
                                # LOE r13 eax ebx ebp r12d r14d r15d
..B1.94:                        # Preds ..B1.93                 # Infreq
..LN696:
	.loc    1  544  is_stmt 1
        testl     %eax, %eax                                    #544.40
..LN697:
        je        ..B1.97       # Prob 22%                      #544.40
..LN698:
                                # LOE r13 ebx ebp r12d r14d r15d
..B1.95:                        # Preds ..B1.94                 # Infreq
..LN699:
	.loc    1  545  is_stmt 1
        movb      20784(%rsp), %dl                              #545.25
..LN700:
        testb     %dl, %dl                                      #545.25
..LN701:
        je        ..B1.169      # Prob 4%                       #545.25
..LN702:
                                # LOE r13 ebp r12d r14d r15d
..B1.96:                        # Preds ..B1.95                 # Infreq
..LN703:
	.loc    1  550  is_stmt 1
        movl      $1, %ebx                                      #550.16
..LN704:
                                # LOE r13 ebx ebp r12d r14d r15d
..B1.97:                        # Preds ..B1.96 ..B1.94         # Infreq
..LN705:
	.loc    1  553  is_stmt 1
        addq      $-64, %rsp                                    #553.24
	.cfi_def_cfa_offset 20976
..LN706:
        movl      %r12d, %esi                                   #553.24
..LN707:
        lea       20896(%rsp), %r10                             #553.24
..LN708:
        lea       20908(%rsp), %r11                             #553.24
..LN709:
        lea       2112(%rsp), %rcx                              #553.24
..LN710:
        movq      %r10, (%rsp)                                  #553.24
..LN711:
        lea       20900(%rsp), %r8                              #553.24
..LN712:
        movq      %r11, 8(%rsp)                                 #553.24
..LN713:
        lea       20904(%rsp), %r9                              #553.24
..LN714:
        movl      72(%rsp), %edx                                #553.24
..LN715:
        movl      %edx, 16(%rsp)                                #553.24
..LN716:
        movl      %ebp, 24(%rsp)                                #553.24
..LN717:
        movl      18752(%rcx), %edx                             #553.24
..LN718:
        movl      %edx, 32(%rsp)                                #553.24
..LN719:
        movl      %r14d, 40(%rsp)                               #553.24
..LN720:
        movl      18760(%rcx), %edx                             #553.24
..LN721:
        movl      %edx, 48(%rsp)                                #553.24
..LN722:
        movq      18776(%rcx), %rdx                             #553.24
..LN723:
        movq      (%rdx,%r13,8), %rdi                           #553.24
..LN724:
        movq      18768(%rcx), %rdx                             #553.24
..___tag_value_nccp2r.142:
..LN725:
#       process_file(char *, unsigned char, struct fileinfo *, char *, int *, int *, int *, int *, int, int, int, unsigned char, unsigned char)
        call      process_file                                  #553.24
..___tag_value_nccp2r.143:
..LN726:
                                # LOE eax ebx ebp r14d r15d
..B1.398:                       # Preds ..B1.97                 # Infreq
..LN727:
        addq      $64, %rsp                                     #553.24
	.cfi_def_cfa_offset 20912
..LN728:
                                # LOE eax ebx ebp r14d r15d
..B1.98:                        # Preds ..B1.398                # Infreq
..LN729:
	.loc    1  556  is_stmt 1
        movl      $1, %r12d                                     #556.29
..LN730:
        testb     %al, %al                                      #556.29
..LN731:
        cmovne    %r12d, %ebx                                   #556.29
..LN732:
	.loc    1  557  is_stmt 1
        incl      %ebp                                          #557.24
..LN733:
	.loc    1  558  is_stmt 1
        cmpl      20836(%rsp), %ebp                             #558.19
..LN734:
        je        ..B1.100      # Prob 50%                      #558.19
..LN735:
                                # LOE ebx ebp r12d r14d r15d
..B1.99:                        # Preds ..B1.98                 # Infreq
..LN736:
        cmpl      16(%rsp), %r15d                               #558.38
..LN737:
        jne       ..B1.109      # Prob 62%                      #558.38
..LN738:
                                # LOE ebx ebp r12d r14d r15d
..B1.100:                       # Preds ..B1.98 ..B1.99         # Infreq
..LN739:
	.loc    1  560  is_stmt 1
        cmpl      $0, mem_dry_run(%rip)                         #560.19
..LN740:
        jne       ..B1.175      # Prob 4%                       #560.19
..LN741:
                                # LOE ebx ebp r12d r14d r15d
..B1.101:                       # Preds ..B1.100                # Infreq
..LN742:
	.loc    1  564  is_stmt 1
        cmpl      $1, %r14d                                     #564.29
..LN743:
        jle       ..B1.103      # Prob 78%                      #564.29
..LN744:
                                # LOE ebx ebp r12d r14d r15d
..B1.102:                       # Preds ..B1.101                # Infreq
..LN745:
	.loc    1  565  is_stmt 1
        movl      $.L_2__STRING.40, %edi                        #565.17
..LN746:
        movl      %ebp, %esi                                    #565.17
..LN747:
        xorl      %eax, %eax                                    #565.17
..___tag_value_nccp2r.145:
..LN748:
#       printf(const char *__restrict__, ...)
        call      printf                                        #565.17
..___tag_value_nccp2r.146:
..LN749:
                                # LOE ebx r12d r14d r15d
..B1.103:                       # Preds ..B1.102 ..B1.101       # Infreq
..LN750:
	.loc    1  566  is_stmt 1
        movl      20844(%rsp), %ecx                             #566.28
..LN751:
        movl      (%rsp), %edi                                  #566.48
..LN752:
        imull     %ecx, %edi                                    #566.48
..LN753:
        movl      8(%rsp), %ebp                                 #566.28
..LN754:
        imull     %ecx, %ebp                                    #566.28
..LN755:
        movl      20840(%rsp), %r9d                             #566.52
..LN756:
        cmpl      %r9d, %edi                                    #566.34
..LN757:
        cmovl     %edi, %r9d                                    #566.34
..LN758:
        cmpl      %r9d, %ebp                                    #566.34
..LN759:
        jge       ..B1.108      # Prob 10%                      #566.34
..LN760:
                                # LOE ecx ebx ebp r12d r14d r15d
..B1.104:                       # Preds ..B1.103                # Infreq
..LN761:
        movl      %r12d, 20776(%rsp)                            #
..LN762:
        movl      %ebx, 20768(%rsp)                             #
..LN763:
        movl      (%rsp), %r12d                                 #
..LN764:
        movq      20816(%rsp), %r13                             #
..LN765:
        movl      20760(%rsp), %ebx                             #
..LN766:
                                # LOE r13 ecx ebx ebp r12d r14d r15d
..B1.105:                       # Preds ..B1.106 ..B1.104       # Infreq
..L147:         # optimization report
                # %s was not vectorized: loop control variable %s was found, but loop iteration count cannot be computed before executing the loop
..LN767:
	.loc    1  567  is_stmt 1
        movq      %r13, %rdi                                    #567.34
..LN768:
        movl      %ebp, %edx                                    #567.34
..LN769:
        movl      %r14d, %r8d                                   #567.34
..LN770:
        movl      20836(%rsp), %esi                             #567.34
..___tag_value_nccp2r.148:
..LN771:
#       flush_decomp(struct fileinfo *, int, int, int, unsigned char)
        call      flush_decomp                                  #567.34
..___tag_value_nccp2r.149:
..LN772:
                                # LOE r13 eax ebx ebp r12d r14d r15d
..B1.106:                       # Preds ..B1.105                # Infreq
..LN773:
	.loc    1  566  is_stmt 1
        movl      %r12d, %esi                                   #566.48
..LN774:
        incl      %ebp                                          #566.60
..LN775:
        movl      20844(%rsp), %ecx                             #566.48
..LN776:
	.loc    1  567  is_stmt 1
        addl      %ebx, %eax                                    #567.17
..LN777:
	.loc    1  566  is_stmt 1
        imull     %ecx, %esi                                    #566.48
..LN778:
        movl      20840(%rsp), %r9d                             #566.52
..LN779:
        cmpl      %r9d, %esi                                    #566.34
..LN780:
	.loc    1  567  is_stmt 1
        movzbl    %al, %ebx                                     #567.17
..LN781:
	.loc    1  566  is_stmt 1
        cmovl     %esi, %r9d                                    #566.34
..LN782:
        cmpl      %r9d, %ebp                                    #566.34
..LN783:
        jl        ..B1.105      # Prob 82%                      #566.34
..LN784:
                                # LOE r13 ecx ebx ebp r12d r14d r15d
..B1.107:                       # Preds ..B1.106                # Infreq
..LN785:
        movl      %ebx, 20760(%rsp)                             #
..LN786:
        movl      20776(%rsp), %r12d                            #
..LN787:
        movl      20768(%rsp), %ebx                             #
..LN788:
                                # LOE ebx r12d r14d r15d
..B1.108:                       # Preds ..B1.107 ..B1.103       # Infreq
..LN789:
	.loc    1  568  is_stmt 1
        xorl      %ebp, %ebp                                    #568.15
..LN790:
                                # LOE ebx ebp r12d r14d r15d
..B1.109:                       # Preds ..B1.99 ..B1.108        # Infreq
..LN791:
	.loc    1  536  is_stmt 1
        incl      %r15d                                         #536.36
..LN792:
        cmpl      20792(%rsp), %r15d                            #536.30
..LN793:
        jge       ..B1.172      # Prob 18%                      #536.30
..LN794:
                                # LOE ebx ebp r12d r14d r15d
..B1.110:                       # Preds ..B1.109                # Infreq
..L150:         # optimization report
                # %s was not vectorized: loop with multiple exits cannot be vectorized unless it meets search loop idiom criteria
                # VECTOR TRIP COUNT IS ESTIMATED CONSTANT
..LN795:
	.loc    1  538  is_stmt 1
        testl     %r14d, %r14d                                  #538.16
..LN796:
        je        ..B1.93       # Prob 50%                      #538.16
..LN797:
                                # LOE ebx ebp r12d r14d r15d
..B1.111:                       # Preds ..B1.110                # Infreq
..LN798:
        movl      %r14d, 20752(%rsp)                            #
..LN799:
        movl      %ebx, 20768(%rsp)                             #
..LN800:
        movl      8(%rsp), %r13d                                #
..LN801:
        movl      20792(%rsp), %ebx                             #
..LN802:
        movq      20824(%rsp), %r14                             #
..LN803:
        jmp       ..B1.89       # Prob 100%                     #
..LN804:
                                # LOE r14 ebx ebp r12d r13d r14d r15d r14b
..B1.112:                       # Preds ..B1.73                 # Infreq
..LN805:
	.loc    1  358  is_stmt 1
        movl      $il0_peep_printf_format_2, %edi               #358.4
..LN806:
        movq      stderr(%rip), %rsi                            #358.4
..LN807:
        call      fputs                                         #358.4
..LN808:
                                # LOE
..B1.113:                       # Preds ..B1.112                # Infreq
..LN809:
	.loc    1  359  is_stmt 1
        movq      20816(%rsp), %rdi                             #359.4
..LN810:
#       free(void *)
        call      free                                          #359.4
..LN811:
                                # LOE
..B1.114:                       # Preds ..B1.113                # Infreq
..LN812:
        movl      $1, %eax                                      #359.27
..LN813:
	.loc    1  359  epilogue_begin  is_stmt 1
        addq      $20856, %rsp                                  #359.27
	.cfi_def_cfa_offset 56
	.cfi_restore 6
..LN814:
        popq      %rbp                                          #359.27
	.cfi_def_cfa_offset 48
	.cfi_restore 3
..LN815:
        popq      %rbx                                          #359.27
	.cfi_def_cfa_offset 40
	.cfi_restore 15
..LN816:
        popq      %r15                                          #359.27
	.cfi_def_cfa_offset 32
	.cfi_restore 14
..LN817:
        popq      %r14                                          #359.27
	.cfi_def_cfa_offset 24
	.cfi_restore 13
..LN818:
        popq      %r13                                          #359.27
	.cfi_def_cfa_offset 16
	.cfi_restore 12
..LN819:
        popq      %r12                                          #359.27
	.cfi_def_cfa_offset 8
..LN820:
        ret                                                     #359.27
	.cfi_def_cfa_offset 20912
	.cfi_offset 3, -48
	.cfi_offset 6, -56
	.cfi_offset 12, -16
	.cfi_offset 13, -24
	.cfi_offset 14, -32
	.cfi_offset 15, -40
..LN821:
                                # LOE
..B1.115:                       # Preds ..B1.84                 # Infreq
..LN822:
	.loc    1  532  is_stmt 1
        lea       1(%r13), %r13d                                #532.37
..LN823:
                                # LOE ebx ebp r12d r13d r14d r15d
..B1.116:                       # Preds ..B1.115 ..B1.174 ..B1.173 ..B1.172 # Infreq
..LN824:
	.loc    1  573  is_stmt 1
        movslq    20844(%rsp), %rcx                             #573.22
..LN825:
        xorl      %eax, %eax                                    #573.9
..LN826:
        testq     %rcx, %rcx                                    #573.22
..LN827:
        jle       ..B1.126      # Prob 9%                       #573.22
..LN828:
                                # LOE rax rcx ebx ebp r12d r13d r14d r15d
..B1.117:                       # Preds ..B1.116                # Infreq
..LN829:
	.loc    1  575  is_stmt 1
        movq      varbuf(%rip), %rdx                            #575.17
..LN830:
        testq     %rdx, %rdx                                    #575.17
..LN831:
        je        ..B1.126      # Prob 12%                      #575.17
..LN832:
                                # LOE rax rdx rcx ebx ebp r12d r13d r14d r15d
..B1.118:                       # Preds ..B1.117                # Infreq
..LN833:
        movl      %ebx, 20712(%rsp)                             #
..LN834:
        movq      %rax, %rbx                                    #
..LN835:
        movl      %r12d, 20776(%rsp)                            #
..LN836:
        movl      %r14d, 20752(%rsp)                            #
..LN837:
        movq      %rdx, %r14                                    #
..LN838:
        movl      %ebp, 20792(%rsp)                             #
..LN839:
        movq      %rcx, %rbp                                    #
..LN840:
                                # LOE rbx rbp r14 r13d r15d
..B1.119:                       # Preds ..B1.124 ..B1.118       # Infreq
..LN841:
	.loc    1  574  is_stmt 1
        xorl      %r12d, %r12d                                  #574.11
..LN842:
                                # LOE rbx rbp r12 r14 r13d r15d
..B1.120:                       # Preds ..B1.123 ..B1.119       # Infreq
..L172:         # optimization report
                # %s was not vectorized: vector dependence prevents vectorization%s
                # VECTOR TRIP COUNT IS KNOWN CONSTANT
..LN843:
	.loc    1  575  is_stmt 1
        movq      (%r14,%rbx,8), %rdi                           #575.28
..LN844:
        cmpq      $0, (%rdi,%r12,8)                             #575.42
..LN845:
        je        ..B1.123      # Prob 32%                      #575.42
..LN846:
                                # LOE rbx rbp rdi r12 r14 r13d r15d
..B1.121:                       # Preds ..B1.120                # Infreq
..LN847:
	.loc    1  577  is_stmt 1
        movq      (%rdi,%r12,8), %rdi                           #577.18
..LN848:
#       free(void *)
        call      free                                          #577.18
..LN849:
                                # LOE rbx rbp r12 r14 r13d r15d
..B1.122:                       # Preds ..B1.121                # Infreq
..LN850:
        movq      (%r14,%rbx,8), %rdi                           #577.38
..LN851:
        movq      $0, (%rdi,%r12,8)                             #577.38
..LN852:
                                # LOE rbx rbp r12 r14 r13d r15d
..B1.123:                       # Preds ..B1.120 ..B1.122       # Infreq
..LN853:
	.loc    1  574  is_stmt 1
        incq      %r12                                          #574.11
..LN854:
        cmpq      $8192, %r12                                   #574.11
..LN855:
        jb        ..B1.120      # Prob 99%                      #574.11
..LN856:
                                # LOE rbx rbp r12 r14 r13d r15d
..B1.124:                       # Preds ..B1.123                # Infreq
..LN857:
	.loc    1  573  is_stmt 1
        .byte     15                                            #573.9
..LN858:
        .byte     31                                            #573.9
..LN859:
        .byte     132                                           #573.9
..LN860:
        .byte     0                                             #573.9
..LN861:
        .byte     0                                             #573.9
..LN862:
        .byte     0                                             #573.9
..LN863:
        .byte     0                                             #573.9
..LN864:
        .byte     0                                             #573.9
..LN865:
        incq      %rbx                                          #573.9
..LN866:
        cmpq      %rbp, %rbx                                    #573.9
..LN867:
        jb        ..B1.119      # Prob 81%                      #573.9
..LN868:
                                # LOE rbx rbp r14 r13d r15d
..B1.125:                       # Preds ..B1.124                # Infreq
..LN869:
        movl      20712(%rsp), %ebx                             #
..LN870:
        movl      20776(%rsp), %r12d                            #
..LN871:
        movl      20752(%rsp), %r14d                            #
..LN872:
        movl      20792(%rsp), %ebp                             #
..LN873:
                                # LOE ebx ebp r12d r13d r14d r15d
..B1.126:                       # Preds ..B1.125 ..B1.116 ..B1.117 # Infreq
..LN874:
	.loc    1  532  is_stmt 1
        cmpl      %r15d, %r13d                                  #532.28
..LN875:
        jl        ..B1.83       # Prob 82%                      #532.28
..LN876:
                                # LOE ebx ebp r12d r13d r14d r15d
..B1.127:                       # Preds ..B1.126                # Infreq
..LN877:
        movl      %ebp, 20792(%rsp)                             #
..LN878:
        movb      20696(%rsp), %r13b                            #
..LN879:
        movq      20704(%rsp), %r15                             #
..LN880:
        movq      20824(%rsp), %rbp                             #
..LN881:
                                # LOE rbp r15 ebx r14d r13b
..B1.128:                       # Preds ..B1.220 ..B1.183 ..B1.270 ..B1.221 ..B1.127
                                #       ..B1.81                 # Infreq
..LN882:
	.loc    1  581  is_stmt 1
        movq      20816(%rsp), %rax                             #581.4
..LN883:
        movl      (%rax), %edi                                  #581.4
..___tag_value_nccp2r.173:
..LN884:
#       ncclose(int)
        call      ncclose                                       #581.4
..___tag_value_nccp2r.174:
..LN885:
                                # LOE rbp r15 ebx r14d r13b
..B1.129:                       # Preds ..B1.128                # Infreq
..LN886:
        movq      20816(%rsp), %rdi                             #581.31
..LN887:
#       free(void *)
        call      free                                          #581.31
..LN888:
                                # LOE rbp r15 ebx r14d r13b
..B1.130:                       # Preds ..B1.129                # Infreq
..LN889:
	.loc    1  582  is_stmt 1
        cmpl      $0, 20768(%rsp)                               #582.10
..LN890:
        jne       ..B1.143      # Prob 50%                      #582.10
..LN891:
                                # LOE rbp r15 ebx r14d r13b
..B1.131:                       # Preds ..B1.130                # Infreq
..LN892:
        cmpl      $0, 20760(%rsp)                               #582.29
..LN893:
        jne       ..B1.143      # Prob 22%                      #582.29
..LN894:
                                # LOE rbp r15 ebx r14d r13b
..B1.132:                       # Preds ..B1.131                # Infreq
..LN895:
	.loc    1  584  is_stmt 1
        testb     %r13b, %r13b                                  #584.11
..LN896:
        je        ..B1.144      # Prob 50%                      #584.11
..LN897:
                                # LOE rbp r15 ebx r14d
..B1.133:                       # Preds ..B1.132                # Infreq
..LN898:
	.loc    1  587  is_stmt 1
        cmpl      $-1, %ebx                                     #587.24
..LN899:
        je        ..B1.145      # Prob 16%                      #587.24
..LN900:
                                # LOE rbp r15 ebx r14d
..B1.134:                       # Preds ..B1.133                # Infreq
..LN901:
	.loc    1  624  is_stmt 1
        movslq    %ebx, %r12                                    #624.17
..LN902:
        cmpl      20792(%rsp), %ebx                             #624.33
..LN903:
        jge       ..B1.144      # Prob 10%                      #624.33
..LN904:
                                # LOE rbp r12 r15 r14d
..B1.136:                       # Preds ..B1.134 ..B1.141       # Infreq
..L175:         # optimization report
                # %s was not vectorized: vector dependence prevents vectorization%s
                # VECTOR TRIP COUNT IS ESTIMATED CONSTANT
..LN905:
	.loc    3  454  is_stmt 1
        lea       12320(%rsp), %rdx                             #454.10
..LN906:
        movl      $1, %edi                                      #454.10
..LN907:
        movq      (%rbp,%r12,8), %rsi                           #454.10
..LN908:
#       __xstat(int, const char *, struct stat *)
        call      __xstat                                       #454.10
..LN909:
                                # LOE rbp r12 r15 eax r14d
..B1.137:                       # Preds ..B1.136                # Infreq
..LN910:
	.loc    1  626  is_stmt 1
        testl     %eax, %eax                                    #626.43
..LN911:
        jne       ..B1.141      # Prob 50%                      #626.43
..LN912:
                                # LOE rbp r12 r15 r14d
..B1.138:                       # Preds ..B1.137                # Infreq
..LN913:
	.loc    1  627  is_stmt 1
        testl     %r14d, %r14d                                  #627.19
..LN914:
        je        ..B1.140      # Prob 78%                      #627.19
..LN915:
                                # LOE rbp r12 r15 r14d
..B1.139:                       # Preds ..B1.138                # Infreq
..LN916:
        movl      $.L_2__STRING.44, %edi                        #627.28
..LN917:
        xorl      %eax, %eax                                    #627.28
..LN918:
        movq      (%rbp,%r12,8), %rsi                           #627.28
..___tag_value_nccp2r.176:
..LN919:
#       printf(const char *__restrict__, ...)
        call      printf                                        #627.28
..___tag_value_nccp2r.177:
..LN920:
                                # LOE rbp r12 r15 r14d
..B1.140:                       # Preds ..B1.139 ..B1.138       # Infreq
..LN921:
	.loc    1  628  is_stmt 1
        movq      (%rbp,%r12,8), %rdi                           #628.15
..LN922:
#       unlink(const char *)
        call      unlink                                        #628.15
..LN923:
                                # LOE rbp r12 r15 r14d
..B1.141:                       # Preds ..B1.140 ..B1.137       # Infreq
..LN924:
	.loc    1  624  is_stmt 1
        incq      %r12                                          #624.39
..LN925:
        cmpq      %r15, %r12                                    #624.33
..LN926:
        jl        ..B1.136      # Prob 82%                      #624.33
..LN927:
        jmp       ..B1.144      # Prob 100%                     #624.33
..LN928:
                                # LOE rbp r12 r15 r14d
..B1.143:                       # Preds ..B1.131 ..B1.130       # Infreq
..LN929:
	.loc    1  633  is_stmt 1
        movl      $il0_peep_printf_format_12, %edi              #633.6
..LN930:
        movq      stderr(%rip), %rsi                            #633.6
..LN931:
        call      fputs                                         #633.6
..LN932:
                                # LOE
..B1.144:                       # Preds ..B1.165 ..B1.156 ..B1.141 ..B1.143 ..B1.145
                                #       ..B1.134 ..B1.132       # Infreq
..LN933:
	.loc    1  634  is_stmt 1
        movl      20768(%rsp), %eax                             #634.10
..LN934:
	.loc    1  634  epilogue_begin  is_stmt 1
        addq      $20856, %rsp                                  #634.10
	.cfi_def_cfa_offset 56
	.cfi_restore 6
..LN935:
        popq      %rbp                                          #634.10
	.cfi_def_cfa_offset 48
	.cfi_restore 3
..LN936:
        popq      %rbx                                          #634.10
	.cfi_def_cfa_offset 40
	.cfi_restore 15
..LN937:
        popq      %r15                                          #634.10
	.cfi_def_cfa_offset 32
	.cfi_restore 14
..LN938:
        popq      %r14                                          #634.10
	.cfi_def_cfa_offset 24
	.cfi_restore 13
..LN939:
        popq      %r13                                          #634.10
	.cfi_def_cfa_offset 16
	.cfi_restore 12
..LN940:
        popq      %r12                                          #634.10
	.cfi_def_cfa_offset 8
..LN941:
        ret                                                     #634.10
	.cfi_def_cfa_offset 20912
	.cfi_offset 3, -48
	.cfi_offset 6, -56
	.cfi_offset 12, -16
	.cfi_offset 13, -24
	.cfi_offset 14, -32
	.cfi_offset 15, -40
..LN942:
                                # LOE
..B1.145:                       # Preds ..B1.133                # Infreq
..LN943:
	.loc    1  590  is_stmt 1
        movl      20744(%rsp), %eax                             #590.33
..LN944:
        cmpl      20736(%rsp), %eax                             #590.33
..LN945:
        jl        ..B1.144      # Prob 10%                      #590.33
..LN946:
                                # LOE rax eax r14d al ah
..B1.146:                       # Preds ..B1.145                # Infreq
..L199:         # optimization report
                # %s was not vectorized: vector dependence prevents vectorization%s
                # VECTOR TRIP COUNT IS ESTIMATED CONSTANT
..LN947:
	.loc    1  596  is_stmt 1
        cmpl      $0, 20728(%rsp)                               #596.21
..LN948:
        jl        ..B1.158      # Prob 16%                      #596.21
..LN949:
                                # LOE rax eax r14d al ah
..B1.416:                       # Preds ..B1.146 ..B1.168 ..B1.167 # Infreq
..LN950:
        movl      20728(%rsp), %ebx                             #
..LN951:
        movl      20744(%rsp), %ebp                             #
..LN952:
        movl      20736(%rsp), %r12d                            #
..LN953:
                                # LOE ebx ebp r12d r14d
..B1.148:                       # Preds ..B1.416 ..B1.156       # Infreq
..LN954:
	.loc    1  616  is_stmt 1
        movl      $.L_2__STRING.35, %esi                        #616.9
..LN955:
        lea       (%rsp), %rdi                                  #616.9
..LN956:
        movl      %ebx, %ecx                                    #616.9
..LN957:
        lea       2048(%rsp), %rdx                              #616.9
..LN958:
        movl      %r12d, %r8d                                   #616.9
..LN959:
        xorl      %eax, %eax                                    #616.9
..LN960:
#       sprintf(char *__restrict__, const char *__restrict__, ...)
        call      sprintf                                       #616.9
..LN961:
                                # LOE ebx ebp r12d r14d
..B1.149:                       # Preds ..B1.148                # Infreq
..LN962:
	.loc    3  454  is_stmt 1
        movl      $1, %edi                                      #454.10
..LN963:
        lea       (%rsp), %rsi                                  #454.10
..LN964:
        lea       12320(%rsp), %rdx                             #454.10
..LN965:
#       __xstat(int, const char *, struct stat *)
        call      __xstat                                       #454.10
..LN966:
                                # LOE eax ebx ebp r12d r14d
..B1.150:                       # Preds ..B1.149                # Infreq
..LN967:
	.loc    1  617  is_stmt 1
        testl     %eax, %eax                                    #617.47
..LN968:
        jne       ..B1.156      # Prob 50%                      #617.47
..LN969:
                                # LOE ebx ebp r12d r14d
..B1.153:                       # Preds ..B1.150                # Infreq
..LN970:
	.loc    1  618  is_stmt 1
        testl     %r14d, %r14d                                  #618.20
..LN971:
        je        ..B1.155      # Prob 78%                      #618.20
..LN972:
                                # LOE ebx ebp r12d r14d
..B1.154:                       # Preds ..B1.153                # Infreq
..LN973:
        movl      $.L_2__STRING.44, %edi                        #618.29
..LN974:
        lea       (%rsp), %rsi                                  #618.29
..LN975:
        xorl      %eax, %eax                                    #618.29
..___tag_value_nccp2r.200:
..LN976:
#       printf(const char *__restrict__, ...)
        call      printf                                        #618.29
..___tag_value_nccp2r.201:
..LN977:
                                # LOE ebx ebp r12d r14d
..B1.155:                       # Preds ..B1.154 ..B1.153       # Infreq
..LN978:
	.loc    1  619  is_stmt 1
        lea       (%rsp), %rdi                                  #619.16
..LN979:
#       unlink(const char *)
        call      unlink                                        #619.16
..LN980:
                                # LOE ebx ebp r12d r14d
..B1.156:                       # Preds ..B1.150 ..B1.155       # Infreq
..LN981:
	.loc    1  590  is_stmt 1
        incl      %r12d                                         #590.39
..LN982:
        cmpl      %ebp, %r12d                                   #590.33
..LN983:
        jle       ..B1.148      # Prob 82%                      #590.33
..LN984:
        jmp       ..B1.144      # Prob 100%                     #590.33
..LN985:
                                # LOE ebx ebp r12d r14d
..B1.158:                       # Preds ..B1.146                # Infreq
..LN986:
        movl      %eax, %ebx                                    #
..LN987:
        movl      20736(%rsp), %ebp                             #
..LN988:
                                # LOE ebx ebp r14d
..B1.159:                       # Preds ..B1.165 ..B1.158       # Infreq
..LN989:
	.loc    1  598  is_stmt 1
        movl      $.L_2__STRING.33, %esi                        #598.6
..LN990:
        lea       (%rsp), %rdi                                  #598.6
..LN991:
        movl      %ebp, %ecx                                    #598.6
..LN992:
        lea       2048(%rsp), %rdx                              #598.6
..LN993:
        xorl      %eax, %eax                                    #598.6
..LN994:
#       sprintf(char *__restrict__, const char *__restrict__, ...)
        call      sprintf                                       #598.6
..LN995:
                                # LOE ebx ebp r14d
..B1.160:                       # Preds ..B1.159                # Infreq
..LN996:
	.loc    3  454  is_stmt 1
        movl      $1, %edi                                      #454.10
..LN997:
        lea       (%rsp), %rsi                                  #454.10
..LN998:
        lea       12320(%rsp), %rdx                             #454.10
..LN999:
#       __xstat(int, const char *, struct stat *)
        call      __xstat                                       #454.10
..LN1000:
                                # LOE eax ebx ebp r14d
..B1.161:                       # Preds ..B1.160                # Infreq
..LN1001:
	.loc    1  599  is_stmt 1
        testl     %eax, %eax                                    #599.37
..LN1002:
        je        ..B1.168      # Prob 78%                      #599.37
..LN1003:
                                # LOE ebx ebp r14d
..B1.162:                       # Preds ..B1.161                # Infreq
..LN1004:
	.loc    1  605  is_stmt 1
        movl      $.L_2__STRING.34, %esi                        #605.10
..LN1005:
        lea       (%rsp), %rdi                                  #605.10
..LN1006:
        movl      %ebp, %ecx                                    #605.10
..LN1007:
        lea       2048(%rsp), %rdx                              #605.10
..LN1008:
        xorl      %eax, %eax                                    #605.10
..LN1009:
#       sprintf(char *__restrict__, const char *__restrict__, ...)
        call      sprintf                                       #605.10
..LN1010:
                                # LOE ebx ebp r14d
..B1.163:                       # Preds ..B1.162                # Infreq
..LN1011:
	.loc    3  454  is_stmt 1
        movl      $1, %edi                                      #454.10
..LN1012:
        lea       (%rsp), %rsi                                  #454.10
..LN1013:
        lea       12320(%rsp), %rdx                             #454.10
..LN1014:
#       __xstat(int, const char *, struct stat *)
        call      __xstat                                       #454.10
..LN1015:
                                # LOE eax ebx ebp r14d
..B1.164:                       # Preds ..B1.163                # Infreq
..LN1016:
	.loc    1  606  is_stmt 1
        testl     %eax, %eax                                    #606.41
..LN1017:
        je        ..B1.167      # Prob 50%                      #606.41
..LN1018:
                                # LOE ebx ebp r14d
..B1.165:                       # Preds ..B1.164                # Infreq
..LN1019:
	.loc    1  590  is_stmt 1
        incl      %ebp                                          #590.39
..LN1020:
        cmpl      %ebx, %ebp                                    #590.33
..LN1021:
        jle       ..B1.159      # Prob 82%                      #590.33
..LN1022:
        jmp       ..B1.144      # Prob 100%                     #590.33
..LN1023:
                                # LOE ebx ebp r14d
..B1.167:                       # Preds ..B1.164                # Infreq
..LN1024:
        movl      %ebx, 20744(%rsp)                             #
..LN1025:
        movl      %ebp, 20736(%rsp)                             #
..LN1026:
	.loc    1  608  is_stmt 1
        movl      $6, 20728(%rsp)                               #608.7
..LN1027:
        jmp       ..B1.416      # Prob 100%                     #608.7
..LN1028:
                                # LOE r14d
..B1.168:                       # Preds ..B1.161                # Infreq
..LN1029:
        movl      %ebx, 20744(%rsp)                             #
..LN1030:
        movl      %ebp, 20736(%rsp)                             #
..LN1031:
	.loc    1  601  is_stmt 1
        movl      $4, 20728(%rsp)                               #601.10
..LN1032:
        jmp       ..B1.416      # Prob 100%                     #601.10
..LN1033:
                                # LOE r14d
..B1.169:                       # Preds ..B1.95                 # Infreq
..LN1034:
        movq      20824(%rsp), %rbp                             #
..LN1035:
	.loc    1  546  is_stmt 1
        movl      $.L_2__STRING.36, %edi                        #546.16
..LN1036:
        xorl      %eax, %eax                                    #546.16
..LN1037:
        movq      (%rbp,%r13,8), %rsi                           #546.16
..___tag_value_nccp2r.202:
..LN1038:
#       printf(const char *__restrict__, ...)
        call      printf                                        #546.16
..___tag_value_nccp2r.203:
..LN1039:
                                # LOE
..B1.170:                       # Preds ..B1.169                # Infreq
..LN1040:
	.loc    1  547  is_stmt 1
        lea       2048(%rsp), %rdi                              #547.16
..LN1041:
#       unlink(const char *)
        call      unlink                                        #547.16
..LN1042:
                                # LOE
..B1.171:                       # Preds ..B1.170                # Infreq
..LN1043:
	.loc    1  548  is_stmt 1
        movl      $9, %eax                                      #548.23
..LN1044:
	.loc    1  548  epilogue_begin  is_stmt 1
        addq      $20856, %rsp                                  #548.23
	.cfi_def_cfa_offset 56
	.cfi_restore 6
..LN1045:
        popq      %rbp                                          #548.23
	.cfi_def_cfa_offset 48
	.cfi_restore 3
..LN1046:
        popq      %rbx                                          #548.23
	.cfi_def_cfa_offset 40
	.cfi_restore 15
..LN1047:
        popq      %r15                                          #548.23
	.cfi_def_cfa_offset 32
	.cfi_restore 14
..LN1048:
        popq      %r14                                          #548.23
	.cfi_def_cfa_offset 24
	.cfi_restore 13
..LN1049:
        popq      %r13                                          #548.23
	.cfi_def_cfa_offset 16
	.cfi_restore 12
..LN1050:
        popq      %r12                                          #548.23
	.cfi_def_cfa_offset 8
..LN1051:
        ret                                                     #548.23
	.cfi_def_cfa_offset 20912
	.cfi_offset 3, -48
	.cfi_offset 6, -56
	.cfi_offset 12, -16
	.cfi_offset 13, -24
	.cfi_offset 14, -32
	.cfi_offset 15, -40
..LN1052:
                                # LOE
..B1.172:                       # Preds ..B1.109                # Infreq
..LN1053:
        movl      %ebx, 20768(%rsp)                             #
..LN1054:
        movl      (%rsp), %r13d                                 #
..LN1055:
        movl      20712(%rsp), %ebx                             #
..LN1056:
        movl      20792(%rsp), %ebp                             #
..LN1057:
	.loc    1  532  is_stmt 1
        movl      20832(%rsp), %r15d                            #532.28
..LN1058:
	.loc    1  572  is_stmt 1
        testl     %r14d, %r14d                                  #572.13
..LN1059:
        je        ..B1.116      # Prob 50%                      #572.13
..LN1060:
                                # LOE ebx ebp r12d r13d r14d r15d
..B1.173:                       # Preds ..B1.181 ..B1.172       # Infreq
..LN1061:
        cmpl      $0, print_mem_usage(%rip)                     #572.24
..LN1062:
        je        ..B1.116      # Prob 78%                      #572.24
..LN1063:
                                # LOE ebx ebp r12d r13d r14d r15d
..B1.174:                       # Preds ..B1.173                # Infreq
..LN1064:
        movl      $il0_peep_printf_format_6, %edi               #572.41
..LN1065:
        call      puts                                          #572.41
..LN1066:
        jmp       ..B1.116      # Prob 100%                     #572.41
..LN1067:
                                # LOE ebx ebp r12d r13d r14d r15d
..B1.175:                       # Preds ..B1.100                # Infreq
..LN1068:
	.loc    1  199  is_stmt 1
        vxorps    %xmm0, %xmm0, %xmm0                           #199.76
..LN1069:
        movq      estimated_maxrss(%rip), %rax                  #199.76
..LN1070:
        testq     %rax, %rax                                    #199.76
..LN1071:
        vcvtsi2ssq %rax, %xmm0, %xmm0                           #199.76
..LN1072:
        jge       ..B1.366      # Prob 70%                      #199.76
..LN1073:
                                # LOE rax r14d xmm0
..B1.367:                       # Preds ..B1.175                # Infreq
..LN1074:
        movq      %rax, %rdx                                    #199.76
..LN1075:
        vxorps    %xmm0, %xmm0, %xmm0                           #199.76
..LN1076:
        shrq      $1, %rax                                      #199.76
..LN1077:
        andq      $1, %rdx                                      #199.76
..LN1078:
        orq       %rax, %rdx                                    #199.76
..LN1079:
        vcvtsi2ssq %rdx, %xmm0, %xmm0                           #199.76
..LN1080:
        vaddss    %xmm0, %xmm0, %xmm0                           #199.76
..LN1081:
                                # LOE r14d xmm0
..B1.366:                       # Preds ..B1.367 ..B1.175       # Infreq
..LN1082:
        vmulss    .L_2il0floatpacket.3(%rip), %xmm0, %xmm0      #199.93
..LN1083:
        vcvtss2sd %xmm0, %xmm0, %xmm0                           #199.93
..LN1084:
	.loc    1  198  is_stmt 1
        testl     %r14d, %r14d                                  #198.7
..LN1085:
        je        ..B1.178      # Prob 50%                      #198.7
..LN1086:
                                # LOE xmm0
..B1.176:                       # Preds ..B1.366                # Infreq
..LN1087:
	.loc    1  199  is_stmt 1
        movl      $.L_2__STRING.4, %edi                         #199.5
..LN1088:
        movl      $1, %eax                                      #199.5
..___tag_value_nccp2r.225:
..LN1089:
#       printf(const char *__restrict__, ...)
        call      printf                                        #199.5
..___tag_value_nccp2r.226:
..LN1090:
                                # LOE
..B1.177:                       # Preds ..B1.176                # Infreq
..LN1091:
	.loc    1  200  is_stmt 1
        movl      $il0_peep_printf_format_7, %edi               #200.5
..LN1092:
        call      puts                                          #200.5
..LN1093:
        jmp       ..B1.179      # Prob 100%                     #200.5
..LN1094:
                                # LOE
..B1.178:                       # Preds ..B1.366                # Infreq
..LN1095:
	.loc    1  202  is_stmt 1
        vroundsd  $2, %xmm0, %xmm0, %xmm0                       #202.25
..LN1096:
        movl      $.L_2__STRING.6, %edi                         #202.8
..LN1097:
        movl      $1, %eax                                      #202.8
..___tag_value_nccp2r.227:
..LN1098:
#       printf(const char *__restrict__, ...)
        call      printf                                        #202.8
..___tag_value_nccp2r.228:
..LN1099:
                                # LOE
..B1.179:                       # Preds ..B1.360 ..B1.337 ..B1.336 ..B1.313 ..B1.312
                                #       ..B1.177 ..B1.178       # Infreq
..LN1100:
	.loc    1  562  is_stmt 1
        xorl      %edi, %edi                                    #562.17
..LN1101:
#       exit(int)
        call      exit                                          #562.17
..LN1102:
                                # LOE
..B1.180:                       # Preds ..B1.89                 # Infreq
..LN1103:
	.loc    1  540  is_stmt 1
        movl      $.L_2__STRING.43, %edi                        #540.32
..LN1104:
        xorl      %eax, %eax                                    #540.32
..___tag_value_nccp2r.229:
..LN1105:
#       printf(const char *__restrict__, ...)
        call      printf                                        #540.32
..___tag_value_nccp2r.230:
..LN1106:
        jmp       ..B1.91       # Prob 100%                     #540.32
..LN1107:
                                # LOE r14 ebx ebp r12d r13d r14d r15d r14b
..B1.181:                       # Preds ..B1.87                 # Infreq
..LN1108:
	.loc    1  532  is_stmt 1
        lea       1(%r13), %r13d                                #532.37
..LN1109:
        jmp       ..B1.173      # Prob 100%                     #532.37
..LN1110:
                                # LOE ebx ebp r12d r13d r14d r15d
..B1.182:                       # Preds ..B1.80                 # Infreq
..LN1111:
	.loc    1  379  is_stmt 1
        movl      20832(%rsp), %edx                             #379.31
..LN1112:
	.loc    1  377  is_stmt 1
        xorl      %eax, %eax                                    #377.28
..LN1113:
	.loc    1  378  is_stmt 1
        cmpl      $0, 20744(%rsp)                               #378.18
..LN1114:
        jl        ..B1.221      # Prob 62%                      #378.18
..LN1115:
                                # LOE rbp r15 eax edx ebx r12d r14d r13b
..B1.183:                       # Preds ..B1.182                # Infreq
..LN1116:
	.loc    1  379  is_stmt 1
        xorl      %esi, %esi                                    #379.14
..LN1117:
        testl     %edx, %edx                                    #379.31
..LN1118:
        jle       ..B1.128      # Prob 10%                      #379.31
..LN1119:
                                # LOE rbp r15 eax ebx esi r12d r14d r13b
..B1.184:                       # Preds ..B1.183                # Infreq
..LN1120:
        movl      %ebx, 20712(%rsp)                             #
..LN1121:
        movb      %r13b, 20696(%rsp)                            #
..LN1122:
        movq      %rbp, 20824(%rsp)                             #
..LN1123:
        movl      %r12d, 20776(%rsp)                            #
..LN1124:
        movl      %esi, %r12d                                   #
..LN1125:
        movq      %r15, 20704(%rsp)                             #
..LN1126:
        movl      %eax, %r15d                                   #
..LN1127:
        movl      20728(%rsp), %ebx                             #
..LN1128:
        movl      20744(%rsp), %r13d                            #
..LN1129:
        movl      20736(%rsp), %ebp                             #
..LN1130:
                                # LOE ebx ebp r12d r13d r14d r15d
..B1.185:                       # Preds ..B1.219 ..B1.184       # Infreq
..L231:         # optimization report
                # %s was not vectorized: inner loop throttling prevents vectorization of this outer loop. Refer to inner loop message for more details.
..LN1131:
	.loc    1  381  is_stmt 1
        testl     %r14d, %r14d                                  #381.16
..LN1132:
        je        ..B1.187      # Prob 78%                      #381.16
..LN1133:
                                # LOE ebx ebp r12d r13d r14d r15d
..B1.186:                       # Preds ..B1.185                # Infreq
..LN1134:
        movl      $.L_2__STRING.32, %edi                        #381.25
..LN1135:
        movl      %r12d, %esi                                   #381.25
..LN1136:
        xorl      %eax, %eax                                    #381.25
..___tag_value_nccp2r.232:
..LN1137:
#       printf(const char *__restrict__, ...)
        call      printf                                        #381.25
..___tag_value_nccp2r.233:
..LN1138:
                                # LOE ebx ebp r12d r13d r14d r15d
..B1.187:                       # Preds ..B1.186 ..B1.185       # Infreq
..LN1139:
	.loc    1  382  is_stmt 1
        xorl      %esi, %esi                                    #382.12
..LN1140:
	.loc    1  383  is_stmt 1
        movl      %ebp, %ecx                                    #383.17
..LN1141:
	.loc    1  382  is_stmt 1
        xorl      %eax, %eax                                    #382.14
..LN1142:
	.loc    1  383  is_stmt 1
        cmpl      %r13d, %ebp                                   #383.32
..LN1143:
        jg        ..B1.205      # Prob 10%                      #383.32
..LN1144:
                                # LOE eax ecx ebx ebp esi r12d r13d r14d r15d
..B1.188:                       # Preds ..B1.187                # Infreq
..LN1145:
	.loc    1  385  is_stmt 1
        testl     %ebx, %ebx                                    #385.21
..LN1146:
        jl        ..B1.319      # Prob 16%                      #385.21
..LN1147:
                                # LOE eax ecx ebx ebp esi r12d r13d r14d r15d
..B1.417:                       # Preds ..B1.188 ..B1.329 ..B1.328 # Infreq
..LN1148:
        movl      %r13d, 20744(%rsp)                            #
..LN1149:
        movl      %r15d, 4112(%rsp)                             #
..LN1150:
        movl      %eax, %r15d                                   #
..LN1151:
        movl      %ebx, 20728(%rsp)                             #
..LN1152:
        movl      %ecx, %ebx                                    #
..LN1153:
        movl      %ebp, 20736(%rsp)                             #
..LN1154:
        movl      %esi, %ebp                                    #
..LN1155:
        movl      20768(%rsp), %r13d                            #
..LN1156:
                                # LOE ebx ebp r12d r13d r14d r15d
..B1.190:                       # Preds ..B1.417 ..B1.203       # Infreq
..LN1157:
	.loc    1  405  is_stmt 1
        movl      $.L_2__STRING.35, %esi                        #405.9
..LN1158:
        lea       (%rsp), %rdi                                  #405.9
..LN1159:
        movl      %ebx, %r8d                                    #405.9
..LN1160:
        lea       2048(%rsp), %rdx                              #405.9
..LN1161:
        xorl      %eax, %eax                                    #405.9
..LN1162:
        movl      18680(%rdx), %ecx                             #405.9
..LN1163:
#       sprintf(char *__restrict__, const char *__restrict__, ...)
        call      sprintf                                       #405.9
..LN1164:
                                # LOE ebx ebp r12d r13d r14d r15d
..B1.191:                       # Preds ..B1.190                # Infreq
..LN1165:
	.loc    3  454  is_stmt 1
        movl      $1, %edi                                      #454.10
..LN1166:
        lea       (%rsp), %rsi                                  #454.10
..LN1167:
        lea       12320(%rsp), %rdx                             #454.10
..LN1168:
#       __xstat(int, const char *, struct stat *)
        call      __xstat                                       #454.10
..LN1169:
                                # LOE eax ebx ebp r12d r13d r14d r15d
..B1.192:                       # Preds ..B1.191                # Infreq
..LN1170:
	.loc    1  406  is_stmt 1
        testl     %eax, %eax                                    #406.47
..LN1171:
        je        ..B1.195      # Prob 50%                      #406.47
..LN1172:
                                # LOE ebx ebp r12d r13d r14d r15d
..B1.193:                       # Preds ..B1.192                # Infreq
..LN1173:
	.loc    1  407  is_stmt 1
        movb      20784(%rsp), %dl                              #407.28
..LN1174:
        testb     %dl, %dl                                      #407.28
..LN1175:
        je        ..B1.316      # Prob 4%                       #407.28
..LN1176:
                                # LOE ebx ebp r12d r14d r15d
..B1.194:                       # Preds ..B1.193                # Infreq
..LN1177:
	.loc    1  412  is_stmt 1
        movl      $1, %r13d                                     #412.19
..LN1178:
                                # LOE ebx ebp r12d r13d r14d r15d
..B1.195:                       # Preds ..B1.194 ..B1.192       # Infreq
..LN1179:
	.loc    1  415  is_stmt 1
        testl     %r14d, %r14d                                  #415.19
..LN1180:
        je        ..B1.200      # Prob 50%                      #415.19
..LN1181:
                                # LOE ebx ebp r12d r13d r14d r15d
..B1.196:                       # Preds ..B1.195                # Infreq
..LN1182:
	.loc    1  417  is_stmt 1
        testl     %r12d, %r12d                                  #417.29
..LN1183:
        jne       ..B1.198      # Prob 50%                      #417.29
..LN1184:
                                # LOE ebx ebp r12d r13d r14d r15d
..B1.197:                       # Preds ..B1.196                # Infreq
..LN1185:
        movl      $.L_2__STRING.37, %edi                        #417.32
..LN1186:
        xorl      %eax, %eax                                    #417.32
..___tag_value_nccp2r.234:
..LN1187:
#       printf(const char *__restrict__, ...)
        call      printf                                        #417.32
..___tag_value_nccp2r.235:
..LN1188:
        jmp       ..B1.199      # Prob 100%                     #417.32
..LN1189:
                                # LOE ebx ebp r12d r13d r14d r15d
..B1.198:                       # Preds ..B1.196                # Infreq
..LN1190:
	.loc    1  418  is_stmt 1
        movl      4112(%rsp), %edx                              #418.23
..LN1191:
        movl      $.L_2__STRING.38, %edi                        #418.23
..LN1192:
        xorl      %eax, %eax                                    #418.23
..LN1193:
        lea       (%rdx,%r15), %esi                             #418.23
..___tag_value_nccp2r.236:
..LN1194:
#       printf(const char *__restrict__, ...)
        call      printf                                        #418.23
..___tag_value_nccp2r.237:
..LN1195:
                                # LOE ebx ebp r12d r13d r14d r15d
..B1.199:                       # Preds ..B1.197 ..B1.198       # Infreq
..LN1196:
	.loc    1  419  is_stmt 1
        movl      $.L_2__STRING.39, %edi                        #419.18
..LN1197:
        lea       (%rsp), %rsi                                  #419.18
..LN1198:
        xorl      %eax, %eax                                    #419.18
..___tag_value_nccp2r.238:
..LN1199:
#       printf(const char *__restrict__, ...)
        call      printf                                        #419.18
..___tag_value_nccp2r.239:
..LN1200:
                                # LOE ebx ebp r12d r13d r14d r15d
..B1.200:                       # Preds ..B1.199 ..B1.195       # Infreq
..LN1201:
	.loc    1  421  is_stmt 1
        addq      $-64, %rsp                                    #421.27
	.cfi_def_cfa_offset 20976
..LN1202:
        lea       20896(%rsp), %r10                             #421.27
..LN1203:
        lea       20908(%rsp), %r11                             #421.27
..LN1204:
        lea       64(%rsp), %rdi                                #421.27
..LN1205:
        movq      %r10, (%rsp)                                  #421.27
..LN1206:
        lea       2112(%rsp), %rcx                              #421.27
..LN1207:
        movq      %r11, 8(%rsp)                                 #421.27
..LN1208:
        lea       20900(%rsp), %r8                              #421.27
..LN1209:
        movl      %r12d, 16(%rsp)                               #421.27
..LN1210:
        lea       20904(%rsp), %r9                              #421.27
..LN1211:
        movl      %ebp, 24(%rsp)                                #421.27
..LN1212:
        movl      18752(%rcx), %edx                             #421.27
..LN1213:
        movl      %edx, 32(%rsp)                                #421.27
..LN1214:
        movl      %r14d, 40(%rsp)                               #421.27
..LN1215:
        movl      18760(%rcx), %edx                             #421.27
..LN1216:
        movl      %edx, 48(%rsp)                                #421.27
..LN1217:
        movl      18728(%rcx), %esi                             #421.27
..LN1218:
        movq      18768(%rcx), %rdx                             #421.27
..___tag_value_nccp2r.241:
..LN1219:
#       process_file(char *, unsigned char, struct fileinfo *, char *, int *, int *, int *, int *, int, int, int, unsigned char, unsigned char)
        call      process_file                                  #421.27
..___tag_value_nccp2r.242:
..LN1220:
                                # LOE eax ebx ebp r12d r13d r14d r15d
..B1.405:                       # Preds ..B1.200                # Infreq
..LN1221:
        addq      $64, %rsp                                     #421.27
	.cfi_def_cfa_offset 20912
..LN1222:
                                # LOE eax ebx ebp r12d r13d r14d r15d
..B1.201:                       # Preds ..B1.405                # Infreq
..LN1223:
	.loc    1  424  is_stmt 1
        movl      $1, %edx                                      #424.32
..LN1224:
        testb     %al, %al                                      #424.32
..LN1225:
	.loc    1  425  is_stmt 1
        movl      %edx, 20776(%rsp)                             #425.15
..LN1226:
	.loc    1  424  is_stmt 1
        cmovne    %edx, %r13d                                   #424.32
..LN1227:
	.loc    1  425  is_stmt 1
        incl      %ebp                                          #425.27
..LN1228:
        decl      %r15d                                         #425.27
..LN1229:
	.loc    1  426  is_stmt 1
        cmpl      20836(%rsp), %ebp                             #426.22
..LN1230:
        je        ..B1.274      # Prob 20%                      #426.22
..LN1231:
                                # LOE ebx ebp r12d r13d r14d r15d
..B1.202:                       # Preds ..B1.201                # Infreq
..LN1232:
        cmpl      20744(%rsp), %ebx                             #426.35
..LN1233:
        je        ..B1.274      # Prob 20%                      #426.35
..LN1234:
                                # LOE ebx ebp r12d r13d r14d r15d
..B1.203:                       # Preds ..B1.202                # Infreq
..LN1235:
	.loc    1  383  is_stmt 1
        incl      %ebx                                          #383.38
..LN1236:
        cmpl      20744(%rsp), %ebx                             #383.32
..LN1237:
        jle       ..B1.190      # Prob 82%                      #383.32
..LN1238:
                                # LOE ebx ebp r12d r13d r14d r15d
..B1.204:                       # Preds ..B1.203                # Infreq
..LN1239:
        movl      %r13d, 20768(%rsp)                            #
..LN1240:
        movl      4112(%rsp), %r15d                             #
..LN1241:
        movl      20728(%rsp), %ebx                             #
..LN1242:
        movl      20744(%rsp), %r13d                            #
..LN1243:
        movl      20736(%rsp), %ebp                             #
..LN1244:
                                # LOE ebx ebp r12d r13d r14d r15d
..B1.205:                       # Preds ..B1.204 ..B1.327 ..B1.307 ..B1.187 # Infreq
..LN1245:
	.loc    1  440  is_stmt 1
        testl     %r15d, %r15d                                  #440.36
..LN1246:
        je        ..B1.271      # Prob 20%                      #440.36
..LN1247:
                                # LOE ebx ebp r12d r13d r14d r15d
..B1.206:                       # Preds ..B1.205                # Infreq
..LN1248:
	.loc    1  447  is_stmt 1
        testl     %r14d, %r14d                                  #447.16
..LN1249:
        je        ..B1.209      # Prob 50%                      #447.16
..LN1250:
                                # LOE ebx ebp r12d r13d r14d r15d
..B1.207:                       # Preds ..B1.206                # Infreq
..LN1251:
        cmpl      $0, print_mem_usage(%rip)                     #447.27
..LN1252:
        je        ..B1.209      # Prob 78%                      #447.27
..LN1253:
                                # LOE ebx ebp r12d r13d r14d r15d
..B1.208:                       # Preds ..B1.207                # Infreq
..LN1254:
        movl      $il0_peep_printf_format_11, %edi              #447.44
..LN1255:
        call      puts                                          #447.44
..LN1256:
                                # LOE ebx ebp r12d r13d r14d r15d
..B1.209:                       # Preds ..B1.208 ..B1.207 ..B1.206 # Infreq
..LN1257:
	.loc    1  448  is_stmt 1
        movslq    20844(%rsp), %rcx                             #448.25
..LN1258:
        xorl      %eax, %eax                                    #448.12
..LN1259:
        testq     %rcx, %rcx                                    #448.25
..LN1260:
        jle       ..B1.219      # Prob 10%                      #448.25
..LN1261:
                                # LOE rax rcx ebx ebp r12d r13d r14d r15d
..B1.210:                       # Preds ..B1.209                # Infreq
..LN1262:
	.loc    1  450  is_stmt 1
        movq      varbuf(%rip), %rdx                            #450.21
..LN1263:
        testq     %rdx, %rdx                                    #450.21
..LN1264:
        je        ..B1.219      # Prob 12%                      #450.21
..LN1265:
                                # LOE rax rdx rcx ebx ebp r12d r13d r14d r15d
..B1.211:                       # Preds ..B1.210                # Infreq
..LN1266:
        movl      %ebx, 20728(%rsp)                             #
..LN1267:
        movq      %rax, %rbx                                    #
..LN1268:
        movl      %r13d, 20744(%rsp)                            #
..LN1269:
        movl      %ebp, 20736(%rsp)                             #
..LN1270:
        movq      %rcx, %rbp                                    #
..LN1271:
        movl      %r14d, 20752(%rsp)                            #
..LN1272:
        movq      %rdx, %r14                                    #
..LN1273:
                                # LOE rbx rbp r14 r12d r15d
..B1.212:                       # Preds ..B1.217 ..B1.211       # Infreq
..LN1274:
	.loc    1  449  is_stmt 1
        xorl      %r13d, %r13d                                  #449.14
..LN1275:
                                # LOE rbx rbp r13 r14 r12d r15d
..B1.213:                       # Preds ..B1.216 ..B1.212       # Infreq
..L244:         # optimization report
                # %s was not vectorized: vector dependence prevents vectorization%s
                # VECTOR TRIP COUNT IS KNOWN CONSTANT
..LN1276:
	.loc    1  450  is_stmt 1
        movq      (%r14,%rbx,8), %rdi                           #450.32
..LN1277:
        cmpq      $0, (%rdi,%r13,8)                             #450.46
..LN1278:
        je        ..B1.216      # Prob 32%                      #450.46
..LN1279:
                                # LOE rbx rbp rdi r13 r14 r12d r15d
..B1.214:                       # Preds ..B1.213                # Infreq
..LN1280:
	.loc    1  452  is_stmt 1
        movq      (%rdi,%r13,8), %rdi                           #452.21
..LN1281:
#       free(void *)
        call      free                                          #452.21
..LN1282:
                                # LOE rbx rbp r13 r14 r12d r15d
..B1.215:                       # Preds ..B1.214                # Infreq
..LN1283:
        movq      (%r14,%rbx,8), %rdi                           #452.41
..LN1284:
        movq      $0, (%rdi,%r13,8)                             #452.41
..LN1285:
                                # LOE rbx rbp r13 r14 r12d r15d
..B1.216:                       # Preds ..B1.213 ..B1.215       # Infreq
..LN1286:
	.loc    1  449  is_stmt 1
        incq      %r13                                          #449.14
..LN1287:
        cmpq      $8192, %r13                                   #449.14
..LN1288:
        jb        ..B1.213      # Prob 99%                      #449.14
..LN1289:
                                # LOE rbx rbp r13 r14 r12d r15d
..B1.217:                       # Preds ..B1.216                # Infreq
..LN1290:
	.loc    1  448  is_stmt 1
        .byte     15                                            #448.12
..LN1291:
        .byte     31                                            #448.12
..LN1292:
        .byte     132                                           #448.12
..LN1293:
        .byte     0                                             #448.12
..LN1294:
        .byte     0                                             #448.12
..LN1295:
        .byte     0                                             #448.12
..LN1296:
        .byte     0                                             #448.12
..LN1297:
        .byte     0                                             #448.12
..LN1298:
        incq      %rbx                                          #448.12
..LN1299:
        cmpq      %rbp, %rbx                                    #448.12
..LN1300:
        jb        ..B1.212      # Prob 81%                      #448.12
..LN1301:
                                # LOE rbx rbp r14 r12d r15d
..B1.218:                       # Preds ..B1.217                # Infreq
..LN1302:
        movl      20728(%rsp), %ebx                             #
..LN1303:
        movl      20744(%rsp), %r13d                            #
..LN1304:
        movl      20736(%rsp), %ebp                             #
..LN1305:
        movl      20752(%rsp), %r14d                            #
..LN1306:
                                # LOE ebx ebp r12d r13d r14d r15d
..B1.219:                       # Preds ..B1.210 ..B1.209 ..B1.218 # Infreq
..LN1307:
	.loc    1  379  is_stmt 1
        incl      %r12d                                         #379.40
..LN1308:
        cmpl      20832(%rsp), %r12d                            #379.31
..LN1309:
        jl        ..B1.185      # Prob 82%                      #379.31
..LN1310:
                                # LOE ebx ebp r12d r13d r14d r15d
..B1.220:                       # Preds ..B1.219                # Infreq
..LN1311:
        movl      %ebx, 20728(%rsp)                             #
..LN1312:
        movl      %r13d, 20744(%rsp)                            #
..LN1313:
        movl      %ebp, 20736(%rsp)                             #
..LN1314:
        movl      20712(%rsp), %ebx                             #
..LN1315:
        movb      20696(%rsp), %r13b                            #
..LN1316:
        movq      20704(%rsp), %r15                             #
..LN1317:
        movq      20824(%rsp), %rbp                             #
..LN1318:
        jmp       ..B1.128      # Prob 100%                     #
..LN1319:
                                # LOE rbp r15 ebx r14d r13b
..B1.221:                       # Preds ..B1.182                # Infreq
..LN1320:
	.loc    1  457  is_stmt 1
        movl      20736(%rsp), %eax                             #457.22
..LN1321:
        lea       1(%rax), %esi                                 #457.22
..LN1322:
        movl      %esi, 20744(%rsp)                             #457.22
..LN1323:
	.loc    1  458  is_stmt 1
        xorl      %esi, %esi                                    #458.15
..LN1324:
        testl     %edx, %edx                                    #458.32
..LN1325:
        jle       ..B1.128      # Prob 10%                      #458.32
..LN1326:
                                # LOE rax rbp r15 eax edx ebx esi r12d r14d al ah r13b
..B1.222:                       # Preds ..B1.221                # Infreq
..LN1327:
        movb      %r13b, 20696(%rsp)                            #
..LN1328:
        movq      %r15, 20704(%rsp)                             #
..LN1329:
        movq      %rbp, 20824(%rsp)                             #
..LN1330:
        movl      %ebx, 20712(%rsp)                             #
..LN1331:
        movl      %esi, %ebx                                    #
..LN1332:
        movl      %r12d, 20776(%rsp)                            #
..LN1333:
        movl      %edx, %r12d                                   #
..LN1334:
        movl      20728(%rsp), %r15d                            #
..LN1335:
        movl      20744(%rsp), %ebp                             #
..LN1336:
        movl      %eax, %r13d                                   #
..LN1337:
                                # LOE ebx ebp r12d r13d r14d r15d
..B1.223:                       # Preds ..B1.269 ..B1.222       # Infreq
..L245:         # optimization report
                # %s was not vectorized: loop control flow is too complex. Try using canonical loop form
..LN1338:
	.loc    1  460  is_stmt 1
        testl     %r14d, %r14d                                  #460.17
..LN1339:
        jne       ..B1.225      # Prob 22%                      #460.17
..LN1340:
                                # LOE ebx ebp r12d r13d r14d r15d
..B1.224:                       # Preds ..B1.223                # Infreq
..LN1341:
	.loc    1  462  is_stmt 1
        cmpl      %ebp, %r13d                                   #462.32
..LN1342:
        jl        ..B1.227      # Prob 90%                      #462.32
..LN1343:
        jmp       ..B1.332      # Prob 100%                     #462.32
..LN1344:
                                # LOE ebx ebp r12d r13d r14d r15d
..B1.225:                       # Preds ..B1.223                # Infreq
..LN1345:
	.loc    1  460  is_stmt 1
        movl      $.L_2__STRING.32, %edi                        #460.26
..LN1346:
        movl      %ebx, %esi                                    #460.26
..LN1347:
        xorl      %eax, %eax                                    #460.26
..___tag_value_nccp2r.246:
..LN1348:
#       printf(const char *__restrict__, ...)
        call      printf                                        #460.26
..___tag_value_nccp2r.247:
..LN1349:
                                # LOE ebx ebp r12d r13d r14d r15d
..B1.226:                       # Preds ..B1.225                # Infreq
..LN1350:
	.loc    1  462  is_stmt 1
        cmpl      %ebp, %r13d                                   #462.32
..LN1351:
        jge       ..B1.353      # Prob 10%                      #462.32
..LN1352:
                                # LOE ebx ebp r12d r13d r14d r15d
..B1.227:                       # Preds ..B1.224 ..B1.226       # Infreq
..LN1353:
	.loc    1  464  is_stmt 1
        movl      %r13d, %ecx                                   #464.9
..LN1354:
        xorl      %esi, %esi                                    #464.9
..LN1355:
        testl     %r15d, %r15d                                  #464.21
..LN1356:
        jl        ..B1.342      # Prob 16%                      #464.21
..LN1357:
                                # LOE ecx ebx ebp esi r13d r14d r15d
..B1.228:                       # Preds ..B1.227 ..B1.346 ..B1.350 # Infreq
..LN1358:
	.loc    1  514  is_stmt 1
        movl      %ecx, %r12d                                   #514.49
..LN1359:
        lea       1(%rbx), %eax                                 #514.49
..LN1360:
        movl      %r15d, 20728(%rsp)                            #514.49
..LN1361:
        negl      %r12d                                         #514.49
..LN1362:
        movl      %eax, 4104(%rsp)                              #514.49
..LN1363:
        movl      %ebx, 4112(%rsp)                              #514.49
..LN1364:
        movl      %esi, %ebx                                    #514.49
..LN1365:
        movl      %r13d, 20736(%rsp)                            #514.49
..LN1366:
        movl      %ecx, %r13d                                   #514.49
..LN1367:
        movl      20768(%rsp), %r15d                            #514.49
..LN1368:
                                # LOE ebx ebp r12d r13d r14d r15d
..B1.229:                       # Preds ..B1.253 ..B1.254 ..B1.228 # Infreq
..LN1369:
	.loc    1  484  is_stmt 1
        movl      $.L_2__STRING.35, %esi                        #484.9
..LN1370:
        lea       (%rsp), %rdi                                  #484.9
..LN1371:
        movl      %r13d, %r8d                                   #484.9
..LN1372:
        lea       2048(%rsp), %rdx                              #484.9
..LN1373:
        xorl      %eax, %eax                                    #484.9
..LN1374:
        movl      18680(%rdx), %ecx                             #484.9
..LN1375:
#       sprintf(char *__restrict__, const char *__restrict__, ...)
        call      sprintf                                       #484.9
..LN1376:
                                # LOE ebx ebp r12d r13d r14d r15d
..B1.230:                       # Preds ..B1.229                # Infreq
..LN1377:
	.loc    3  454  is_stmt 1
        movl      $1, %edi                                      #454.10
..LN1378:
        lea       (%rsp), %rsi                                  #454.10
..LN1379:
        lea       12320(%rsp), %rdx                             #454.10
..LN1380:
#       __xstat(int, const char *, struct stat *)
        call      __xstat                                       #454.10
..LN1381:
                                # LOE eax ebx ebp r12d r13d r14d r15d
..B1.231:                       # Preds ..B1.230                # Infreq
..LN1382:
	.loc    1  485  is_stmt 1
        testl     %eax, %eax                                    #485.47
..LN1383:
        je        ..B1.234      # Prob 50%                      #485.47
..LN1384:
                                # LOE ebx ebp r12d r13d r14d r15d
..B1.232:                       # Preds ..B1.231                # Infreq
..LN1385:
	.loc    1  486  is_stmt 1
        movb      20784(%rsp), %al                              #486.29
..LN1386:
        testb     %al, %al                                      #486.29
..LN1387:
        je        ..B1.339      # Prob 4%                       #486.29
..LN1388:
                                # LOE ebx ebp r12d r13d r14d
..B1.233:                       # Preds ..B1.232                # Infreq
..LN1389:
	.loc    1  491  is_stmt 1
        movl      $1, %r15d                                     #491.20
..LN1390:
                                # LOE ebx ebp r12d r13d r14d r15d
..B1.234:                       # Preds ..B1.233 ..B1.231       # Infreq
..LN1391:
	.loc    1  494  is_stmt 1
        testl     %r14d, %r14d                                  #494.20
..LN1392:
        je        ..B1.240      # Prob 50%                      #494.20
..LN1393:
                                # LOE ebx ebp r12d r13d r14d r15d
..B1.235:                       # Preds ..B1.234                # Infreq
..LN1394:
	.loc    1  496  is_stmt 1
        cmpl      20736(%rsp), %r13d                            #496.26
..LN1395:
        jne       ..B1.238      # Prob 50%                      #496.26
..LN1396:
                                # LOE ebx ebp r12d r13d r14d r15d
..B1.236:                       # Preds ..B1.235                # Infreq
..LN1397:
        cmpl      $0, 4112(%rsp)                                #496.43
..LN1398:
        jne       ..B1.238      # Prob 50%                      #496.43
..LN1399:
                                # LOE ebx ebp r12d r13d r14d r15d
..B1.237:                       # Preds ..B1.236                # Infreq
..LN1400:
        movl      $.L_2__STRING.37, %edi                        #496.46
..LN1401:
        xorl      %eax, %eax                                    #496.46
..___tag_value_nccp2r.248:
..LN1402:
#       printf(const char *__restrict__, ...)
        call      printf                                        #496.46
..___tag_value_nccp2r.249:
..LN1403:
        jmp       ..B1.239      # Prob 100%                     #496.46
..LN1404:
                                # LOE ebx ebp r12d r13d r14d r15d
..B1.238:                       # Preds ..B1.235 ..B1.236       # Infreq
..LN1405:
	.loc    1  497  is_stmt 1
        movl      $.L_2__STRING.38, %edi                        #497.24
..LN1406:
        lea       (%rbp,%r12), %esi                             #497.24
..LN1407:
        xorl      %eax, %eax                                    #497.24
..___tag_value_nccp2r.250:
..LN1408:
#       printf(const char *__restrict__, ...)
        call      printf                                        #497.24
..___tag_value_nccp2r.251:
..LN1409:
                                # LOE ebx ebp r12d r13d r14d r15d
..B1.239:                       # Preds ..B1.238 ..B1.237       # Infreq
..LN1410:
	.loc    1  498  is_stmt 1
        movl      $.L_2__STRING.39, %edi                        #498.19
..LN1411:
        lea       (%rsp), %rsi                                  #498.19
..LN1412:
        xorl      %eax, %eax                                    #498.19
..___tag_value_nccp2r.252:
..LN1413:
#       printf(const char *__restrict__, ...)
        call      printf                                        #498.19
..___tag_value_nccp2r.253:
..LN1414:
                                # LOE ebx ebp r12d r13d r14d r15d
..B1.240:                       # Preds ..B1.239 ..B1.234       # Infreq
..LN1415:
	.loc    1  500  is_stmt 1
        addq      $-64, %rsp                                    #500.28
	.cfi_def_cfa_offset 20976
..LN1416:
        lea       20896(%rsp), %rax                             #500.28
..LN1417:
        lea       20908(%rsp), %r10                             #500.28
..LN1418:
        lea       64(%rsp), %rdi                                #500.28
..LN1419:
        movq      %rax, (%rsp)                                  #500.28
..LN1420:
        lea       2112(%rsp), %rcx                              #500.28
..LN1421:
        movq      %r10, 8(%rsp)                                 #500.28
..LN1422:
        lea       20900(%rsp), %r8                              #500.28
..LN1423:
        movl      -16720(%rax), %r11d                           #500.28
..LN1424:
        lea       20904(%rsp), %r9                              #500.28
..LN1425:
        movl      %r11d, 16(%rsp)                               #500.28
..LN1426:
        movl      %ebx, 24(%rsp)                                #500.28
..LN1427:
        movl      -32(%rax), %eax                               #500.28
..LN1428:
        movl      %eax, 32(%rsp)                                #500.28
..LN1429:
        movl      %r14d, 40(%rsp)                               #500.28
..LN1430:
        movl      18760(%rcx), %edx                             #500.28
..LN1431:
        movl      %edx, 48(%rsp)                                #500.28
..LN1432:
        movl      18728(%rcx), %esi                             #500.28
..LN1433:
        movq      18768(%rcx), %rdx                             #500.28
..___tag_value_nccp2r.255:
..LN1434:
#       process_file(char *, unsigned char, struct fileinfo *, char *, int *, int *, int *, int *, int, int, int, unsigned char, unsigned char)
        call      process_file                                  #500.28
..___tag_value_nccp2r.256:
..LN1435:
                                # LOE eax ebx ebp r12d r13d r14d r15d
..B1.407:                       # Preds ..B1.240                # Infreq
..LN1436:
        addq      $64, %rsp                                     #500.28
	.cfi_def_cfa_offset 20912
..LN1437:
                                # LOE eax ebx ebp r12d r13d r14d r15d
..B1.241:                       # Preds ..B1.407                # Infreq
..LN1438:
	.loc    1  503  is_stmt 1
        movl      $1, %edx                                      #503.33
..LN1439:
        testb     %al, %al                                      #503.33
..LN1440:
	.loc    1  504  is_stmt 1
        movl      20836(%rsp), %edi                             #504.33
..LN1441:
	.loc    1  503  is_stmt 1
        cmovne    %edx, %r15d                                   #503.33
..LN1442:
	.loc    1  504  is_stmt 1
        cmpl      20736(%rsp), %r13d                            #504.23
..LN1443:
        jne       ..B1.243      # Prob 50%                      #504.23
..LN1444:
                                # LOE ebx ebp edi r12d r13d r14d r15d
..B1.242:                       # Preds ..B1.241                # Infreq
..LN1445:
        movl      20736(%rsp), %eax                             #504.57
..LN1446:
        testl     %edi, %edi                                    #504.45
..LN1447:
        lea       (%rax,%rdi), %edx                             #504.57
..LN1448:
        cmovg     %edx, %ebp                                    #504.45
..LN1449:
                                # LOE ebx ebp edi r12d r13d r14d r15d
..B1.243:                       # Preds ..B1.242 ..B1.241       # Infreq
..LN1450:
	.loc    1  505  is_stmt 1
        incl      %ebx                                          #505.28
..LN1451:
        movl      $1, 20776(%rsp)                               #505.16
..LN1452:
	.loc    1  506  is_stmt 1
        cmpl      %edi, %ebx                                    #506.23
..LN1453:
        je        ..B1.245      # Prob 50%                      #506.23
..LN1454:
                                # LOE ebx ebp r12d r13d r14d r15d
..B1.244:                       # Preds ..B1.243                # Infreq
..LN1455:
        lea       -1(%rbp), %eax                                #506.42
..LN1456:
        cmpl      %eax, %r13d                                   #506.42
..LN1457:
        jne       ..B1.254      # Prob 62%                      #506.42
..LN1458:
                                # LOE ebx ebp r12d r13d r14d r15d
..B1.245:                       # Preds ..B1.243 ..B1.244       # Infreq
..LN1459:
	.loc    1  508  is_stmt 1
        cmpl      $0, mem_dry_run(%rip)                         #508.23
..LN1460:
        jne       ..B1.334      # Prob 4%                       #508.23
..LN1461:
                                # LOE ebx ebp r12d r13d r14d r15d
..B1.246:                       # Preds ..B1.245                # Infreq
..LN1462:
	.loc    1  512  is_stmt 1
        cmpl      $1, %r14d                                     #512.33
..LN1463:
        jle       ..B1.248      # Prob 78%                      #512.33
..LN1464:
                                # LOE ebx ebp r12d r13d r14d r15d
..B1.247:                       # Preds ..B1.246                # Infreq
..LN1465:
	.loc    1  513  is_stmt 1
        movl      $.L_2__STRING.40, %edi                        #513.21
..LN1466:
        movl      %ebx, %esi                                    #513.21
..LN1467:
        xorl      %eax, %eax                                    #513.21
..___tag_value_nccp2r.258:
..LN1468:
#       printf(const char *__restrict__, ...)
        call      printf                                        #513.21
..___tag_value_nccp2r.259:
..LN1469:
                                # LOE ebp r12d r13d r14d r15d
..B1.248:                       # Preds ..B1.247 ..B1.246       # Infreq
..LN1470:
	.loc    1  514  is_stmt 1
        movl      20844(%rsp), %ecx                             #514.32
..LN1471:
        movl      4104(%rsp), %eax                              #514.52
..LN1472:
        imull     %ecx, %eax                                    #514.52
..LN1473:
        movl      4112(%rsp), %ebx                              #514.32
..LN1474:
        imull     %ecx, %ebx                                    #514.32
..LN1475:
        movl      20840(%rsp), %esi                             #514.56
..LN1476:
        cmpl      %esi, %eax                                    #514.38
..LN1477:
        cmovl     %eax, %esi                                    #514.38
..LN1478:
        cmpl      %esi, %ebx                                    #514.38
..LN1479:
        jge       ..B1.253      # Prob 10%                      #514.38
..LN1480:
                                # LOE ecx ebx ebp r12d r13d r14d r15d
..B1.249:                       # Preds ..B1.248                # Infreq
..LN1481:
        movl      %r13d, 4096(%rsp)                             #
..LN1482:
        movl      %ebp, 20744(%rsp)                             #
..LN1483:
        movl      %r15d, 20768(%rsp)                            #
..LN1484:
        movl      4104(%rsp), %r15d                             #
..LN1485:
        movq      20816(%rsp), %rbp                             #
..LN1486:
        movl      20760(%rsp), %r13d                            #
..LN1487:
                                # LOE rbp ecx ebx r12d r13d r14d r15d
..B1.250:                       # Preds ..B1.251 ..B1.249       # Infreq
..L260:         # optimization report
                # %s was not vectorized: loop control variable %s was found, but loop iteration count cannot be computed before executing the loop
..LN1488:
	.loc    1  515  is_stmt 1
        movq      %rbp, %rdi                                    #515.38
..LN1489:
        movl      %ebx, %edx                                    #515.38
..LN1490:
        movl      %r14d, %r8d                                   #515.38
..LN1491:
        movl      20836(%rsp), %esi                             #515.38
..___tag_value_nccp2r.261:
..LN1492:
#       flush_decomp(struct fileinfo *, int, int, int, unsigned char)
        call      flush_decomp                                  #515.38
..___tag_value_nccp2r.262:
..LN1493:
                                # LOE rbp eax ebx r12d r13d r14d r15d
..B1.251:                       # Preds ..B1.250                # Infreq
..LN1494:
        addl      %eax, %r13d                                   #515.21
..LN1495:
	.loc    1  514  is_stmt 1
        movl      %r15d, %eax                                   #514.52
..LN1496:
        movl      20844(%rsp), %ecx                             #514.52
..LN1497:
        incl      %ebx                                          #514.64
..LN1498:
        imull     %ecx, %eax                                    #514.52
..LN1499:
        movl      20840(%rsp), %esi                             #514.56
..LN1500:
        cmpl      %esi, %eax                                    #514.38
..LN1501:
	.loc    1  515  is_stmt 1
        movzbl    %r13b, %r13d                                  #515.21
..LN1502:
	.loc    1  514  is_stmt 1
        cmovl     %eax, %esi                                    #514.38
..LN1503:
        cmpl      %esi, %ebx                                    #514.38
..LN1504:
        jl        ..B1.250      # Prob 82%                      #514.38
..LN1505:
                                # LOE rbp ecx ebx r12d r13d r14d r15d
..B1.252:                       # Preds ..B1.251                # Infreq
..LN1506:
        movl      %r13d, 20760(%rsp)                            #
..LN1507:
        movl      4096(%rsp), %r13d                             #
..LN1508:
        movl      20744(%rsp), %ebp                             #
..LN1509:
        movl      20768(%rsp), %r15d                            #
..LN1510:
                                # LOE ecx ebp r12d r13d r14d r15d
..B1.253:                       # Preds ..B1.252 ..B1.248       # Infreq
..LN1511:
	.loc    1  462  is_stmt 1
        incl      %r13d                                         #462.38
..LN1512:
        decl      %r12d                                         #462.38
..LN1513:
	.loc    1  516  is_stmt 1
        xorl      %ebx, %ebx                                    #516.19
..LN1514:
	.loc    1  462  is_stmt 1
        cmpl      %ebp, %r13d                                   #462.32
..LN1515:
        jl        ..B1.229      # Prob 82%                      #462.32
..LN1516:
        jmp       ..B1.333      # Prob 100%                     #462.32
..LN1517:
                                # LOE ecx ebx ebp r12d r13d r14d r15d
..B1.254:                       # Preds ..B1.244                # Infreq
..LN1518:
        incl      %r13d                                         #462.38
..LN1519:
        decl      %r12d                                         #462.38
..LN1520:
        cmpl      %ebp, %r13d                                   #462.32
..LN1521:
        jl        ..B1.229      # Prob 82%                      #462.32
..LN1522:
                                # LOE ebx ebp r12d r13d r14d r15d
..B1.255:                       # Preds ..B1.254                # Infreq
..LN1523:
        movl      %r15d, 20768(%rsp)                            #
..LN1524:
        movl      4104(%rsp), %eax                              #
..LN1525:
        movl      20728(%rsp), %r15d                            #
..LN1526:
        movl      20736(%rsp), %r13d                            #
..LN1527:
	.loc    1  521  is_stmt 1
        movl      20844(%rsp), %ebx                             #521.26
..LN1528:
                                # LOE eax ebx ebp r13d r14d r15d
..B1.256:                       # Preds ..B1.255 ..B1.352 ..B1.333 # Infreq
..LN1529:
	.loc    1  458  is_stmt 1
        movl      20832(%rsp), %r12d                            #458.32
..LN1530:
	.loc    1  520  is_stmt 1
        testl     %r14d, %r14d                                  #520.17
..LN1531:
        je        ..B1.259      # Prob 50%                      #520.17
..LN1532:
                                # LOE eax ebx ebp r12d r13d r14d r15d
..B1.257:                       # Preds ..B1.353 ..B1.256       # Infreq
..LN1533:
        cmpl      $0, print_mem_usage(%rip)                     #520.28
..LN1534:
        je        ..B1.259      # Prob 78%                      #520.28
..LN1535:
                                # LOE eax ebx ebp r12d r13d r14d r15d
..B1.258:                       # Preds ..B1.257                # Infreq
..LN1536:
        movl      $il0_peep_printf_format_8, %edi               #520.45
..LN1537:
        movl      %eax, 4104(%rsp)                              #520.45
..LN1538:
        call      puts                                          #520.45
..LN1539:
                                # LOE rbx ebx ebp r12d r13d r14d r15d bl bh
..B1.419:                       # Preds ..B1.258                # Infreq
..LN1540:
        movl      4104(%rsp), %eax                              #
..LN1541:
                                # LOE eax ebx ebp r12d r13d r14d r15d
..B1.259:                       # Preds ..B1.332 ..B1.419 ..B1.257 ..B1.256 # Infreq
..LN1542:
	.loc    1  521  is_stmt 1
        movslq    %ebx, %rbx                                    #521.13
..LN1543:
        xorl      %edx, %edx                                    #521.13
..LN1544:
        testq     %rbx, %rbx                                    #521.26
..LN1545:
        jle       ..B1.269      # Prob 10%                      #521.26
..LN1546:
                                # LOE rdx rbx eax ebp r12d r13d r14d r15d
..B1.260:                       # Preds ..B1.259                # Infreq
..LN1547:
	.loc    1  523  is_stmt 1
        movq      varbuf(%rip), %rcx                            #523.21
..LN1548:
        testq     %rcx, %rcx                                    #523.21
..LN1549:
        je        ..B1.269      # Prob 12%                      #523.21
..LN1550:
                                # LOE rdx rcx rbx eax ebp r12d r13d r14d r15d
..B1.261:                       # Preds ..B1.260                # Infreq
..LN1551:
        movl      %r15d, 20728(%rsp)                            #
..LN1552:
        movl      %r12d, %r15d                                  #
..LN1553:
        movl      %ebp, 20744(%rsp)                             #
..LN1554:
        movq      %rbx, %rbp                                    #
..LN1555:
        movl      %r13d, 20736(%rsp)                            #
..LN1556:
        movl      %eax, %ebx                                    #
..LN1557:
        movl      %r14d, 20752(%rsp)                            #
..LN1558:
        movq      %rdx, %r13                                    #
..LN1559:
        movq      %rcx, %r14                                    #
..LN1560:
                                # LOE rbp r13 r14 ebx r15d
..B1.262:                       # Preds ..B1.267 ..B1.261       # Infreq
..LN1561:
	.loc    1  522  is_stmt 1
        xorl      %r12d, %r12d                                  #522.15
..LN1562:
                                # LOE rbp r12 r13 r14 ebx r15d
..B1.263:                       # Preds ..B1.266 ..B1.262       # Infreq
..L263:         # optimization report
                # %s was not vectorized: vector dependence prevents vectorization%s
                # VECTOR TRIP COUNT IS KNOWN CONSTANT
..LN1563:
	.loc    1  523  is_stmt 1
        movq      (%r14,%r13,8), %rsi                           #523.32
..LN1564:
        cmpq      $0, (%rsi,%r12,8)                             #523.46
..LN1565:
        je        ..B1.266      # Prob 32%                      #523.46
..LN1566:
                                # LOE rbp rsi r12 r13 r14 ebx r15d
..B1.264:                       # Preds ..B1.263                # Infreq
..LN1567:
	.loc    1  525  is_stmt 1
        movq      (%rsi,%r12,8), %rdi                           #525.21
..LN1568:
#       free(void *)
        call      free                                          #525.21
..LN1569:
                                # LOE rbp r12 r13 r14 ebx r15d
..B1.265:                       # Preds ..B1.264                # Infreq
..LN1570:
        movq      (%r14,%r13,8), %rsi                           #525.41
..LN1571:
        movq      $0, (%rsi,%r12,8)                             #525.41
..LN1572:
                                # LOE rbp r12 r13 r14 ebx r15d
..B1.266:                       # Preds ..B1.263 ..B1.265       # Infreq
..LN1573:
	.loc    1  522  is_stmt 1
        incq      %r12                                          #522.15
..LN1574:
        cmpq      $8192, %r12                                   #522.15
..LN1575:
        jb        ..B1.263      # Prob 99%                      #522.15
..LN1576:
                                # LOE rbp r12 r13 r14 ebx r15d
..B1.267:                       # Preds ..B1.266                # Infreq
..LN1577:
	.loc    1  521  is_stmt 1
        .byte     15                                            #521.13
..LN1578:
        .byte     31                                            #521.13
..LN1579:
        .byte     132                                           #521.13
..LN1580:
        .byte     0                                             #521.13
..LN1581:
        .byte     0                                             #521.13
..LN1582:
        .byte     0                                             #521.13
..LN1583:
        .byte     0                                             #521.13
..LN1584:
        .byte     0                                             #521.13
..LN1585:
        incq      %r13                                          #521.13
..LN1586:
        cmpq      %rbp, %r13                                    #521.13
..LN1587:
        jb        ..B1.262      # Prob 81%                      #521.13
..LN1588:
                                # LOE rbp r13 r14 ebx r15d
..B1.268:                       # Preds ..B1.267                # Infreq
..LN1589:
        movl      20744(%rsp), %ebp                             #
..LN1590:
        movl      %ebx, %eax                                    #
..LN1591:
        movl      20736(%rsp), %r13d                            #
..LN1592:
        movl      %r15d, %r12d                                  #
..LN1593:
        movl      20728(%rsp), %r15d                            #
..LN1594:
        movl      20752(%rsp), %r14d                            #
..LN1595:
                                # LOE eax ebp r12d r13d r14d r15d
..B1.269:                       # Preds ..B1.268 ..B1.259 ..B1.260 # Infreq
..LN1596:
	.loc    1  458  is_stmt 1
        movl      %eax, %ebx                                    #458.41
..LN1597:
        cmpl      %r12d, %eax                                   #458.32
..LN1598:
        jl        ..B1.223      # Prob 82%                      #458.32
..LN1599:
                                # LOE ebx ebp r12d r13d r14d r15d
..B1.270:                       # Preds ..B1.269                # Infreq
..LN1600:
        movl      %r15d, 20728(%rsp)                            #
..LN1601:
        movl      %ebp, 20744(%rsp)                             #
..LN1602:
        movl      %r13d, 20736(%rsp)                            #
..LN1603:
        movl      20712(%rsp), %ebx                             #
..LN1604:
        movb      20696(%rsp), %r13b                            #
..LN1605:
        movq      20704(%rsp), %r15                             #
..LN1606:
        movq      20824(%rsp), %rbp                             #
..LN1607:
        jmp       ..B1.128      # Prob 100%                     #
..LN1608:
                                # LOE rbp r15 ebx r14d r13b
..B1.271:                       # Preds ..B1.205                # Infreq
..LN1609:
	.loc    1  442  is_stmt 1
        movl      $il0_peep_printf_format_13, %edi              #442.16
..LN1610:
        movq      stderr(%rip), %rsi                            #442.16
..LN1611:
        call      fputs                                         #442.16
..LN1612:
                                # LOE
..B1.272:                       # Preds ..B1.271                # Infreq
..LN1613:
	.loc    1  443  is_stmt 1
        lea       2048(%rsp), %rdi                              #443.16
..LN1614:
#       unlink(const char *)
        call      unlink                                        #443.16
..LN1615:
                                # LOE
..B1.273:                       # Preds ..B1.272                # Infreq
..LN1616:
	.loc    1  444  is_stmt 1
        movl      $1, %edi                                      #444.16
..LN1617:
#       exit(int)
        call      exit                                          #444.16
..LN1618:
                                # LOE
..B1.274:                       # Preds ..B1.201 ..B1.202       # Infreq
..LN1619:
        movl      %r13d, 20768(%rsp)                            #
..LN1620:
        movl      %ebp, %esi                                    #
..LN1621:
        movl      20728(%rsp), %ebx                             #
..LN1622:
        movl      20744(%rsp), %r13d                            #
..LN1623:
        movl      20736(%rsp), %ebp                             #
..LN1624:
                                # LOE rbx rbp r13 ebx ebp esi r12d r13d r14d bl bh bpl r13b
..B1.275:                       # Preds ..B1.274                # Infreq
..LN1625:
	.loc    1  428  is_stmt 1
        cmpl      $0, mem_dry_run(%rip)                         #428.22
..LN1626:
        jne       ..B1.310      # Prob 20%                      #428.22
..LN1627:
                                # LOE rbx rbp r13 ebx ebp esi r12d r13d r14d bl bh bpl r13b
..B1.276:                       # Preds ..B1.275                # Infreq
..LN1628:
	.loc    1  432  is_stmt 1
        cmpl      $1, %r14d                                     #432.32
..LN1629:
        jle       ..B1.278      # Prob 78%                      #432.32
..LN1630:
                                # LOE rbx rbp r13 ebx ebp esi r12d r13d r14d bl bh bpl r13b
..B1.277:                       # Preds ..B1.276                # Infreq
..LN1631:
	.loc    1  433  is_stmt 1
        movl      $.L_2__STRING.40, %edi                        #433.20
..LN1632:
        xorl      %eax, %eax                                    #433.20
..LN1633:
        movl      %esi, 4104(%rsp)                              #433.20
..___tag_value_nccp2r.264:
..LN1634:
#       printf(const char *__restrict__, ...)
        call      printf                                        #433.20
..___tag_value_nccp2r.265:
..LN1635:
                                # LOE rbx rbp r13 ebx ebp r12d r13d r14d bl bh bpl r13b
..B1.420:                       # Preds ..B1.277                # Infreq
..LN1636:
        movl      4104(%rsp), %esi                              #
..LN1637:
                                # LOE rbx rbp r13 ebx ebp esi r12d r13d r14d bl bh bpl r13b
..B1.278:                       # Preds ..B1.420 ..B1.276       # Infreq
..LN1638:
	.loc    1  434  is_stmt 1
        movl      20844(%rsp), %r9d                             #434.33
..LN1639:
        lea       1(%r12), %edi                                 #434.50
..LN1640:
        movl      %r9d, %ecx                                    #434.53
..LN1641:
        movl      %r12d, %edx                                   #434.33
..LN1642:
        imull     %edi, %ecx                                    #434.53
..LN1643:
        imull     %r9d, %edx                                    #434.33
..LN1644:
        movl      20840(%rsp), %r15d                            #434.57
..LN1645:
        cmpl      %r15d, %ecx                                   #434.39
..LN1646:
        movslq    %edx, %rax                                    #434.23
..LN1647:
        cmovge    %r15d, %ecx                                   #434.39
..LN1648:
        cmpl      %ecx, %edx                                    #434.39
..LN1649:
        jge       ..B1.307      # Prob 10%                      #434.39
..LN1650:
                                # LOE rax rbx rbp r13 edx ebx ebp esi edi r9d r12d r13d r14d r15d bl bh bpl r13b
..B1.279:                       # Preds ..B1.278                # Infreq
..LN1651:
        movl      %ebx, 20728(%rsp)                             #
..LN1652:
        movl      %ebp, 20736(%rsp)                             #
..LN1653:
        movl      %edi, 12312(%rsp)                             #
..LN1654:
        movl      %r9d, 12472(%rsp)                             #
..LN1655:
        movl      %esi, 4104(%rsp)                              #
..LN1656:
        movl      %r12d, 4096(%rsp)                             #
..LN1657:
        movq      %rax, %r12                                    #
..LN1658:
        movl      %r13d, 20744(%rsp)                            #
..LN1659:
        movl      %edx, %r13d                                   #
..LN1660:
        movq      20816(%rsp), %rbx                             #
..LN1661:
        movl      20760(%rsp), %ebp                             #
..LN1662:
                                # LOE rbx r12 ebp r13d r14d r15d
..B1.280:                       # Preds ..B1.305 ..B1.279       # Infreq
..L266:         # optimization report
                # outer %s was not auto-vectorized: consider using SIMD directive
..LN1663:
	.loc    1  1370  is_stmt 1
        cmpl      $1, %r14d                                     #1370.18
..LN1664:
        jle       ..B1.282      # Prob 78%                      #1370.18
..LN1665:
                                # LOE rbx r12 ebp r13d r14d r15d
..B1.281:                       # Preds ..B1.280                # Infreq
..LN1666:
	.loc    1  1372  is_stmt 1
        movl      $.L_2__STRING.138, %edi                       #1372.7
..LN1667:
        xorl      %eax, %eax                                    #1372.7
..LN1668:
        movl      8(%rbx), %esi                                 #1372.7
..___tag_value_nccp2r.267:
..LN1669:
#       printf(const char *__restrict__, ...)
        call      printf                                        #1372.7
..___tag_value_nccp2r.268:
..LN1670:
                                # LOE rbx r12 ebp r13d r14d r15d
..B1.282:                       # Preds ..B1.281 ..B1.280       # Infreq
..LN1671:
	.loc    1  1376  is_stmt 1
        xorl      %esi, %esi                                    #1376.9
..LN1672:
        xorl      %edx, %edx                                    #1376.9
..LN1673:
        movslq    8(%rbx), %rcx                                 #1376.18
..LN1674:
        xorl      %eax, %eax                                    #1376.9
..LN1675:
        testq     %rcx, %rcx                                    #1376.18
..LN1676:
        jle       ..B1.304      # Prob 4%                       #1376.18
..LN1677:
                                # LOE rax rdx rcx rbx rsi r12 ebp r13d r14d r15d
..B1.283:                       # Preds ..B1.282                # Infreq
..LN1678:
        movq      %r12, 12464(%rsp)                             #
..LN1679:
        movq      %rsi, %r12                                    #
..LN1680:
        movl      %r13d, 12480(%rsp)                            #
..LN1681:
        movq      %rdx, %r13                                    #
..LN1682:
        movl      %ebp, 20760(%rsp)                             #
..LN1683:
        movq      %rax, %rbp                                    #
..LN1684:
                                # LOE rcx rbx rbp r12 r13 r14d
..B1.284:                       # Preds ..B1.302 ..B1.283       # Infreq
..L269:         # optimization report
                # %s was not vectorized: loop control variable %s was found, but loop iteration count cannot be computed before executing the loop
..LN1685:
	.loc    1  1378  is_stmt 1
        cmpb      $0, 35749908(%r12,%rbx)                       #1378.36
..LN1686:
        je        ..B1.302      # Prob 50%                      #1378.36
..LN1687:
                                # LOE rcx rbx rbp r12 r13 r14d
..B1.285:                       # Preds ..B1.284                # Infreq
..LN1688:
	.loc    1  1379  is_stmt 1
        cmpl      $1, %r14d                                     #1379.21
..LN1689:
        jle       ..B1.287      # Prob 78%                      #1379.21
..LN1690:
                                # LOE rbx rbp r12 r13 r14d
..B1.286:                       # Preds ..B1.285                # Infreq
..LN1691:
        movl      $.L_2__STRING.139, %edi                       #1379.24
..LN1692:
        lea       20(%rbp,%rbx), %rdx                           #1379.24
..LN1693:
        movl      %r12d, %esi                                   #1379.24
..LN1694:
        xorl      %eax, %eax                                    #1379.24
..___tag_value_nccp2r.270:
..LN1695:
#       printf(const char *__restrict__, ...)
        call      printf                                        #1379.24
..___tag_value_nccp2r.271:
..LN1696:
                                # LOE rbx rbp r12 r13 r14d
..B1.287:                       # Preds ..B1.286 ..B1.285       # Infreq
..LN1697:
	.loc    1  1380  is_stmt 1
        movl      $-1, %eax                                     #1380.7
..LN1698:
	.loc    1  1381  is_stmt 1
        xorl      %esi, %esi                                    #1381.12
..LN1699:
        cmpl      $0, 2129940(%rbx,%r12,4)                      #1381.21
..LN1700:
        jle       ..B1.308      # Prob 10%                      #1381.21
..LN1701:
                                # LOE rbx rbp rsi r12 r13 eax r14d
..B1.288:                       # Preds ..B1.287                # Infreq
..LN1702:
	.loc    1  1384  is_stmt 1
        movq      %rbp, 20688(%rsp)                             #1384.14
..LN1703:
        lea       (%rbx,%r13), %r15                             #1384.14
..LN1704:
        movq      %r13, 20680(%rsp)                             #1384.14
..LN1705:
        movq      %rbx, %r13                                    #1384.14
..LN1706:
        movl      %eax, %ebx                                    #1384.14
..LN1707:
        movq      %rsi, %rbp                                    #1384.14
..LN1708:
                                # LOE rbp r12 r13 r15 ebx r14d
..B1.289:                       # Preds ..B1.294 ..B1.288       # Infreq
..L272:         # optimization report
                # %s was not vectorized: loop control variable %s was found, but loop iteration count cannot be computed before executing the loop
..LN1709:
        movl      2162708(%r15,%rbp,4), %edx                    #1384.14
..LN1710:
	.loc    1  1383  is_stmt 1
        movq      $0, 12488(%rsp,%rbp,8)                        #1383.10
..LN1711:
	.loc    1  1384  is_stmt 1
        cmpl      16(%r13), %edx                                #1384.39
..LN1712:
        jne       ..B1.291      # Prob 50%                      #1384.39
..LN1713:
                                # LOE rbp r12 r13 r15 edx ebx r14d
..B1.290:                       # Preds ..B1.289                # Infreq
..LN1714:
	.loc    1  1386  is_stmt 1
        movq      $1, 4120(%rsp,%rbp,8)                         #1386.13
..LN1715:
        movl      %ebp, %ebx                                    #1386.25
..LN1716:
        jmp       ..B1.292      # Prob 100%                     #1386.25
..LN1717:
                                # LOE rbp r12 r13 r15 ebx r14d
..B1.291:                       # Preds ..B1.289                # Infreq
..LN1718:
	.loc    1  1390  is_stmt 1
        movslq    %edx, %rdx                                    #1390.22
..LN1719:
        movq      36028440(%r13,%rdx,8), %rcx                   #1390.22
..LN1720:
        movq      %rcx, 4120(%rsp,%rbp,8)                       #1390.13
..LN1721:
                                # LOE rbp r12 r13 r15 ebx r14d
..B1.292:                       # Preds ..B1.290 ..B1.291       # Infreq
..LN1722:
	.loc    1  1392  is_stmt 1
        cmpl      $1, %r14d                                     #1392.24
..LN1723:
        jle       ..B1.294      # Prob 78%                      #1392.24
..LN1724:
                                # LOE rbp r12 r13 r15 ebx r14d
..B1.293:                       # Preds ..B1.292                # Infreq
..LN1725:
	.loc    1  1393  is_stmt 1
        movl      $.L_2__STRING.140, %edi                       #1393.12
..LN1726:
        movl      %ebp, %esi                                    #1393.12
..LN1727:
        xorl      %eax, %eax                                    #1393.12
..LN1728:
        movq      12488(%rsp,%rbp,8), %rdx                      #1393.12
..LN1729:
        movq      4120(%rsp,%rbp,8), %rcx                       #1393.12
..___tag_value_nccp2r.273:
..LN1730:
#       printf(const char *__restrict__, ...)
        call      printf                                        #1393.12
..___tag_value_nccp2r.274:
..LN1731:
                                # LOE rbp r12 r13 r15 ebx r14d
..B1.294:                       # Preds ..B1.293 ..B1.292       # Infreq
..LN1732:
	.loc    1  1381  is_stmt 1
        incq      %rbp                                          #1381.45
..LN1733:
        movslq    2129940(%r13,%r12,4), %rdx                    #1381.21
..LN1734:
        cmpq      %rdx, %rbp                                    #1381.21
..LN1735:
        jl        ..B1.289      # Prob 99%                      #1381.21
..LN1736:
                                # LOE rbp r12 r13 r15 ebx r14d
..B1.295:                       # Preds ..B1.294                # Infreq
..LN1737:
        movl      %ebx, %eax                                    #
..LN1738:
        movq      %r13, %rbx                                    #
..LN1739:
        movq      20688(%rsp), %rbp                             #
..LN1740:
        movq      20680(%rsp), %r13                             #
..LN1741:
	.loc    1  1396  is_stmt 1
        cmpl      $-1, %eax                                     #1396.22
..LN1742:
        je        ..B1.308      # Prob 16%                      #1396.22
..LN1743:
                                # LOE rbx rbp r12 r13 eax ebp r13d r14d bpl r13b
..B1.296:                       # Preds ..B1.295                # Infreq
..LN1744:
        movslq    %eax, %rax                                    #1396.28
..LN1745:
        movq      12464(%rsp), %rcx                             #1396.28
..LN1746:
        movq      %rcx, 12488(%rsp,%rax,8)                      #1396.28
..LN1747:
                                # LOE rbx rbp r12 r13 r14d
..B1.297:                       # Preds ..B1.308 ..B1.296       # Infreq
..LN1748:
	.loc    1  1398  is_stmt 1
        cmpl      $1, %r14d                                     #1398.21
..LN1749:
        jle       ..B1.299      # Prob 78%                      #1398.21
..LN1750:
                                # LOE rbx rbp r12 r13 r14d
..B1.298:                       # Preds ..B1.297                # Infreq
..LN1751:
	.loc    1  1399  is_stmt 1
        movl      $il0_peep_printf_format_10, %edi              #1399.9
..LN1752:
        call      puts                                          #1399.9
..LN1753:
                                # LOE rbx rbp r12 r13 r14d
..B1.299:                       # Preds ..B1.298 ..B1.297       # Infreq
..LN1754:
	.loc    1  1400  is_stmt 1
        movl      12480(%rsp), %eax                             #1400.11
..LN1755:
        movl      %r12d, %r15d                                  #1400.11
..LN1756:
        cltd                                                    #1400.11
..LN1757:
        idivl     12472(%rsp)                                   #1400.11
..LN1758:
        movq      varbuf(%rip), %r9                             #1400.11
..LN1759:
        movl      %r15d, %esi                                   #1400.11
..LN1760:
        movslq    %edx, %rdx                                    #1400.11
..LN1761:
        lea       4120(%rsp), %rcx                              #1400.11
..LN1762:
        movl      (%rbx), %edi                                  #1400.11
..LN1763:
        movq      (%r9,%rdx,8), %r10                            #1400.11
..LN1764:
        lea       12488(%rsp), %rdx                             #1400.11
..LN1765:
        movq      (%r10,%r12,8), %r8                            #1400.11
..___tag_value_nccp2r.275:
..LN1766:
#       ncvarput(int, int, const long *, const long *, const void *)
        call      ncvarput                                      #1400.11
..___tag_value_nccp2r.276:
..LN1767:
                                # LOE rbx rbp r12 r13 eax r14d r15d
..B1.300:                       # Preds ..B1.299                # Infreq
..LN1768:
        cmpl      $-1, %eax                                     #1400.76
..LN1769:
        je        ..B1.330      # Prob 20%                      #1400.76
..LN1770:
                                # LOE rbx rbp r12 r13 r14d r15d
..B1.301:                       # Preds ..B1.308 ..B1.300       # Infreq
..LN1771:
	.loc    1  1376  is_stmt 1
        movslq    8(%rbx), %rcx                                 #1376.18
..LN1772:
                                # LOE rcx rbx rbp r12 r13 r14d
..B1.302:                       # Preds ..B1.301 ..B1.284       # Infreq
..LN1773:
        incq      %r12                                          #1376.36
..LN1774:
        addq      $4096, %r13                                   #1376.36
..LN1775:
        addq      $256, %rbp                                    #1376.36
..LN1776:
        cmpq      %rcx, %r12                                    #1376.18
..LN1777:
        jl        ..B1.284      # Prob 82%                      #1376.18
..LN1778:
                                # LOE rcx rbx rbp r12 r13 r14d
..B1.303:                       # Preds ..B1.302                # Infreq
..LN1779:
	.loc    1  434  is_stmt 1
        movl      20844(%rsp), %ecx                             #434.53
..LN1780:
        movq      12464(%rsp), %r12                             #
..LN1781:
        movl      12480(%rsp), %r13d                            #
..LN1782:
        movl      20760(%rsp), %ebp                             #
..LN1783:
        movl      20840(%rsp), %r15d                            #434.57
..LN1784:
        movl      %ecx, 12472(%rsp)                             #434.53
..LN1785:
                                # LOE rbx r12 ebp r13d r14d r15d
..B1.304:                       # Preds ..B1.303 ..B1.282       # Infreq
..LN1786:
	.loc    1  435  is_stmt 1
        xorl      %ecx, %ecx                                    #435.37
..LN1787:
                                # LOE rbx r12 ecx ebp r13d r14d r15d
..B1.305:                       # Preds ..B1.304 ..B1.331       # Infreq
..LN1788:
        addl      %ecx, %ebp                                    #435.20
..LN1789:
	.loc    1  434  is_stmt 1
        incl      %r13d                                         #434.65
..LN1790:
        movl      12472(%rsp), %ecx                             #434.53
..LN1791:
        incq      %r12                                          #434.65
..LN1792:
        imull     12312(%rsp), %ecx                             #434.53
..LN1793:
        cmpl      %r15d, %ecx                                   #434.39
..LN1794:
	.loc    1  435  is_stmt 1
        movzbl    %bpl, %ebp                                    #435.20
..LN1795:
	.loc    1  434  is_stmt 1
        cmovge    %r15d, %ecx                                   #434.39
..LN1796:
        cmpl      %ecx, %r13d                                   #434.39
..LN1797:
        jl        ..B1.280      # Prob 82%                      #434.39
..LN1798:
                                # LOE rbx r12 ebp r13d r14d r15d
..B1.306:                       # Preds ..B1.305                # Infreq
..LN1799:
        movq      %rbx, 20816(%rsp)                             #
..LN1800:
        movl      %ebp, 20760(%rsp)                             #
..LN1801:
        movl      4104(%rsp), %esi                              #
..LN1802:
        movl      4096(%rsp), %r12d                             #
..LN1803:
        movl      20728(%rsp), %ebx                             #
..LN1804:
        movl      20744(%rsp), %r13d                            #
..LN1805:
        movl      20736(%rsp), %ebp                             #
..LN1806:
                                # LOE rbx rbp r13 ebx ebp esi r12d r13d r14d bl bh bpl r13b
..B1.307:                       # Preds ..B1.306 ..B1.278       # Infreq
..LN1807:
	.loc    1  436  is_stmt 1
        movl      %esi, %r15d                                   #436.18
..LN1808:
        jmp       ..B1.205      # Prob 100%                     #436.18
..LN1809:
                                # LOE ebx ebp r12d r13d r14d r15d
..B1.308:                       # Preds ..B1.295 ..B1.287       # Infreq
..LN1810:
	.loc    1  1397  is_stmt 1
        cmpl      $0, 12480(%rsp)                               #1397.34
..LN1811:
        jg        ..B1.301      # Prob 84%                      #1397.34
..LN1812:
        jmp       ..B1.297      # Prob 100%                     #1397.34
..LN1813:
                                # LOE rbx rbp r12 r13 r14d
..B1.310:                       # Preds ..B1.275                # Infreq
..LN1814:
	.loc    1  199  is_stmt 1
        vxorps    %xmm0, %xmm0, %xmm0                           #199.76
..LN1815:
        movq      estimated_maxrss(%rip), %rax                  #199.76
..LN1816:
        testq     %rax, %rax                                    #199.76
..LN1817:
        vcvtsi2ssq %rax, %xmm0, %xmm0                           #199.76
..LN1818:
        jge       ..B1.368      # Prob 70%                      #199.76
..LN1819:
                                # LOE rax r14d xmm0
..B1.369:                       # Preds ..B1.310                # Infreq
..LN1820:
        movq      %rax, %rdx                                    #199.76
..LN1821:
        vxorps    %xmm0, %xmm0, %xmm0                           #199.76
..LN1822:
        shrq      $1, %rax                                      #199.76
..LN1823:
        andq      $1, %rdx                                      #199.76
..LN1824:
        orq       %rax, %rdx                                    #199.76
..LN1825:
        vcvtsi2ssq %rdx, %xmm0, %xmm0                           #199.76
..LN1826:
        vaddss    %xmm0, %xmm0, %xmm0                           #199.76
..LN1827:
                                # LOE r14d xmm0
..B1.368:                       # Preds ..B1.369 ..B1.310       # Infreq
..LN1828:
        vmulss    .L_2il0floatpacket.3(%rip), %xmm0, %xmm0      #199.93
..LN1829:
        vcvtss2sd %xmm0, %xmm0, %xmm0                           #199.93
..LN1830:
	.loc    1  198  is_stmt 1
        testl     %r14d, %r14d                                  #198.7
..LN1831:
        je        ..B1.313      # Prob 50%                      #198.7
..LN1832:
                                # LOE xmm0
..B1.311:                       # Preds ..B1.368                # Infreq
..LN1833:
	.loc    1  199  is_stmt 1
        movl      $.L_2__STRING.4, %edi                         #199.5
..LN1834:
        movl      $1, %eax                                      #199.5
..___tag_value_nccp2r.277:
..LN1835:
#       printf(const char *__restrict__, ...)
        call      printf                                        #199.5
..___tag_value_nccp2r.278:
..LN1836:
                                # LOE
..B1.312:                       # Preds ..B1.311                # Infreq
..LN1837:
	.loc    1  200  is_stmt 1
        movl      $il0_peep_printf_format_14, %edi              #200.5
..LN1838:
        call      puts                                          #200.5
..LN1839:
        jmp       ..B1.179      # Prob 100%                     #200.5
..LN1840:
                                # LOE
..B1.313:                       # Preds ..B1.368                # Infreq
..LN1841:
	.loc    1  202  is_stmt 1
        vroundsd  $2, %xmm0, %xmm0, %xmm0                       #202.25
..LN1842:
        movl      $.L_2__STRING.6, %edi                         #202.8
..LN1843:
        movl      $1, %eax                                      #202.8
..___tag_value_nccp2r.279:
..LN1844:
#       printf(const char *__restrict__, ...)
        call      printf                                        #202.8
..___tag_value_nccp2r.280:
..LN1845:
        jmp       ..B1.179      # Prob 100%                     #202.8
..LN1846:
                                # LOE
..B1.316:                       # Preds ..B1.193                # Infreq
..LN1847:
	.loc    1  408  is_stmt 1
        movl      $.L_2__STRING.36, %edi                        #408.19
..LN1848:
        lea       (%rsp), %rsi                                  #408.19
..LN1849:
        xorl      %eax, %eax                                    #408.19
..___tag_value_nccp2r.281:
..LN1850:
#       printf(const char *__restrict__, ...)
        call      printf                                        #408.19
..___tag_value_nccp2r.282:
..LN1851:
                                # LOE
..B1.317:                       # Preds ..B1.316                # Infreq
..LN1852:
	.loc    1  409  is_stmt 1
        lea       2048(%rsp), %rdi                              #409.19
..LN1853:
#       unlink(const char *)
        call      unlink                                        #409.19
..LN1854:
                                # LOE
..B1.318:                       # Preds ..B1.317                # Infreq
..LN1855:
	.loc    1  410  is_stmt 1
        movl      $9, %eax                                      #410.26
..LN1856:
	.loc    1  410  epilogue_begin  is_stmt 1
        addq      $20856, %rsp                                  #410.26
	.cfi_def_cfa_offset 56
	.cfi_restore 6
..LN1857:
        popq      %rbp                                          #410.26
	.cfi_def_cfa_offset 48
	.cfi_restore 3
..LN1858:
        popq      %rbx                                          #410.26
	.cfi_def_cfa_offset 40
	.cfi_restore 15
..LN1859:
        popq      %r15                                          #410.26
	.cfi_def_cfa_offset 32
	.cfi_restore 14
..LN1860:
        popq      %r14                                          #410.26
	.cfi_def_cfa_offset 24
	.cfi_restore 13
..LN1861:
        popq      %r13                                          #410.26
	.cfi_def_cfa_offset 16
	.cfi_restore 12
..LN1862:
        popq      %r12                                          #410.26
	.cfi_def_cfa_offset 8
..LN1863:
        ret                                                     #410.26
	.cfi_def_cfa_offset 20912
	.cfi_offset 3, -48
	.cfi_offset 6, -56
	.cfi_offset 12, -16
	.cfi_offset 13, -24
	.cfi_offset 14, -32
	.cfi_offset 15, -40
..LN1864:
                                # LOE
..B1.319:                       # Preds ..B1.188                # Infreq
..LN1865:
        movl      %ebx, 20728(%rsp)                             #
..LN1866:
        movl      %ecx, %ebx                                    #
..LN1867:
        movl      %ebp, 20736(%rsp)                             #
..LN1868:
        movl      %esi, %ebp                                    #
..LN1869:
        movl      %r14d, 20752(%rsp)                            #
..LN1870:
        movl      %eax, %r14d                                   #
..LN1871:
                                # LOE ebx ebp r12d r13d r14d r15d
..B1.320:                       # Preds ..B1.326 ..B1.319       # Infreq
..LN1872:
	.loc    1  387  is_stmt 1
        movl      $.L_2__STRING.33, %esi                        #387.6
..LN1873:
        lea       (%rsp), %rdi                                  #387.6
..LN1874:
        movl      %ebx, %ecx                                    #387.6
..LN1875:
        lea       2048(%rsp), %rdx                              #387.6
..LN1876:
        xorl      %eax, %eax                                    #387.6
..LN1877:
#       sprintf(char *__restrict__, const char *__restrict__, ...)
        call      sprintf                                       #387.6
..LN1878:
                                # LOE ebx ebp r12d r13d r14d r15d
..B1.321:                       # Preds ..B1.320                # Infreq
..LN1879:
	.loc    3  454  is_stmt 1
        movl      $1, %edi                                      #454.10
..LN1880:
        lea       (%rsp), %rsi                                  #454.10
..LN1881:
        lea       12320(%rsp), %rdx                             #454.10
..LN1882:
#       __xstat(int, const char *, struct stat *)
        call      __xstat                                       #454.10
..LN1883:
                                # LOE eax ebx ebp r12d r13d r14d r15d
..B1.322:                       # Preds ..B1.321                # Infreq
..LN1884:
	.loc    1  388  is_stmt 1
        testl     %eax, %eax                                    #388.37
..LN1885:
        je        ..B1.329      # Prob 78%                      #388.37
..LN1886:
                                # LOE ebx ebp r12d r13d r14d r15d
..B1.323:                       # Preds ..B1.322                # Infreq
..LN1887:
	.loc    1  394  is_stmt 1
        movl      $.L_2__STRING.34, %esi                        #394.10
..LN1888:
        lea       (%rsp), %rdi                                  #394.10
..LN1889:
        movl      %ebx, %ecx                                    #394.10
..LN1890:
        lea       2048(%rsp), %rdx                              #394.10
..LN1891:
        xorl      %eax, %eax                                    #394.10
..LN1892:
#       sprintf(char *__restrict__, const char *__restrict__, ...)
        call      sprintf                                       #394.10
..LN1893:
                                # LOE ebx ebp r12d r13d r14d r15d
..B1.324:                       # Preds ..B1.323                # Infreq
..LN1894:
	.loc    3  454  is_stmt 1
        movl      $1, %edi                                      #454.10
..LN1895:
        lea       (%rsp), %rsi                                  #454.10
..LN1896:
        lea       12320(%rsp), %rdx                             #454.10
..LN1897:
#       __xstat(int, const char *, struct stat *)
        call      __xstat                                       #454.10
..LN1898:
                                # LOE eax ebx ebp r12d r13d r14d r15d
..B1.325:                       # Preds ..B1.324                # Infreq
..LN1899:
	.loc    1  395  is_stmt 1
        testl     %eax, %eax                                    #395.41
..LN1900:
        je        ..B1.328      # Prob 50%                      #395.41
..LN1901:
                                # LOE ebx ebp r12d r13d r14d r15d
..B1.326:                       # Preds ..B1.325                # Infreq
..LN1902:
	.loc    1  383  is_stmt 1
        incl      %ebx                                          #383.38
..LN1903:
        cmpl      %r13d, %ebx                                   #383.32
..LN1904:
        jle       ..B1.320      # Prob 82%                      #383.32
..LN1905:
                                # LOE ebx ebp r12d r13d r14d r15d
..B1.327:                       # Preds ..B1.326                # Infreq
..LN1906:
        movl      20728(%rsp), %ebx                             #
..LN1907:
        movl      20736(%rsp), %ebp                             #
..LN1908:
        movl      20752(%rsp), %r14d                            #
..LN1909:
        jmp       ..B1.205      # Prob 100%                     #
..LN1910:
                                # LOE ebx ebp r12d r13d r14d r15d
..B1.328:                       # Preds ..B1.325                # Infreq
..LN1911:
        movl      %ebx, %ecx                                    #
..LN1912:
        movl      %ebp, %esi                                    #
..LN1913:
        movl      20736(%rsp), %ebp                             #
..LN1914:
        movl      %r14d, %eax                                   #
..LN1915:
        movl      20752(%rsp), %r14d                            #
..LN1916:
	.loc    1  397  is_stmt 1
        movl      $6, %ebx                                      #397.7
..LN1917:
        jmp       ..B1.417      # Prob 100%                     #397.7
..LN1918:
                                # LOE eax ecx ebx ebp esi r12d r13d r14d r15d
..B1.329:                       # Preds ..B1.322                # Infreq
..LN1919:
        movl      %ebx, %ecx                                    #
..LN1920:
        movl      %ebp, %esi                                    #
..LN1921:
        movl      20736(%rsp), %ebp                             #
..LN1922:
        movl      %r14d, %eax                                   #
..LN1923:
        movl      20752(%rsp), %r14d                            #
..LN1924:
	.loc    1  390  is_stmt 1
        movl      $4, %ebx                                      #390.10
..LN1925:
        jmp       ..B1.417      # Prob 100%                     #390.10
..LN1926:
                                # LOE eax ecx ebx ebp esi r12d r13d r14d r15d
..B1.330:                       # Preds ..B1.300                # Infreq
..LN1927:
	.loc    1  1402  is_stmt 1
        movl      $.L_2__STRING.142, %esi                       #1402.10
..LN1928:
        movl      %r15d, %edx                                   #1402.10
..LN1929:
        xorl      %eax, %eax                                    #1402.10
..LN1930:
        movq      stderr(%rip), %rdi                            #1402.10
..LN1931:
        movq      12464(%rsp), %r12                             #
..LN1932:
        movl      12480(%rsp), %r13d                            #
..LN1933:
        movl      20760(%rsp), %ebp                             #
..LN1934:
#       fprintf(FILE *__restrict__, const char *__restrict__, ...)
        call      fprintf                                       #1402.10
..LN1935:
                                # LOE rbx rbp r12 r13 ebp r12d r13d r14d bpl r12b r13b
..B1.331:                       # Preds ..B1.330                # Infreq
..LN1936:
	.loc    1  434  is_stmt 1
        movl      20844(%rsp), %esi                             #434.53
..LN1937:
	.loc    1  435  is_stmt 1
        movl      $1, %ecx                                      #435.37
..LN1938:
	.loc    1  434  is_stmt 1
        movl      20840(%rsp), %r15d                            #434.57
..LN1939:
        movl      %esi, 12472(%rsp)                             #434.53
..LN1940:
        jmp       ..B1.305      # Prob 100%                     #434.53
..LN1941:
                                # LOE rbx r12 ecx ebp r13d r14d r15d
..B1.332:                       # Preds ..B1.224                # Infreq
..LN1942:
	.loc    1  458  is_stmt 1
        lea       1(%rbx), %eax                                 #458.41
..LN1943:
	.loc    1  521  is_stmt 1
        movl      20844(%rsp), %ebx                             #521.26
..LN1944:
        jmp       ..B1.259      # Prob 100%                     #521.26
..LN1945:
                                # LOE eax ebx ebp r12d r13d r14d r15d
..B1.333:                       # Preds ..B1.253                # Infreq
..LN1946:
        movl      %r15d, 20768(%rsp)                            #
..LN1947:
        movl      %ecx, %ebx                                    #
..LN1948:
        movl      4104(%rsp), %eax                              #
..LN1949:
        movl      20728(%rsp), %r15d                            #
..LN1950:
        movl      20736(%rsp), %r13d                            #
..LN1951:
        jmp       ..B1.256      # Prob 100%                     #
..LN1952:
                                # LOE eax ebx ebp r13d r14d r15d
..B1.334:                       # Preds ..B1.245                # Infreq
..LN1953:
	.loc    1  199  is_stmt 1
        vxorps    %xmm0, %xmm0, %xmm0                           #199.76
..LN1954:
        movq      estimated_maxrss(%rip), %rax                  #199.76
..LN1955:
        testq     %rax, %rax                                    #199.76
..LN1956:
        vcvtsi2ssq %rax, %xmm0, %xmm0                           #199.76
..LN1957:
        jge       ..B1.370      # Prob 70%                      #199.76
..LN1958:
                                # LOE rax r14d xmm0
..B1.371:                       # Preds ..B1.334                # Infreq
..LN1959:
        movq      %rax, %rdx                                    #199.76
..LN1960:
        vxorps    %xmm0, %xmm0, %xmm0                           #199.76
..LN1961:
        shrq      $1, %rax                                      #199.76
..LN1962:
        andq      $1, %rdx                                      #199.76
..LN1963:
        orq       %rax, %rdx                                    #199.76
..LN1964:
        vcvtsi2ssq %rdx, %xmm0, %xmm0                           #199.76
..LN1965:
        vaddss    %xmm0, %xmm0, %xmm0                           #199.76
..LN1966:
                                # LOE r14d xmm0
..B1.370:                       # Preds ..B1.371 ..B1.334       # Infreq
..LN1967:
        vmulss    .L_2il0floatpacket.3(%rip), %xmm0, %xmm0      #199.93
..LN1968:
        vcvtss2sd %xmm0, %xmm0, %xmm0                           #199.93
..LN1969:
	.loc    1  198  is_stmt 1
        testl     %r14d, %r14d                                  #198.7
..LN1970:
        je        ..B1.337      # Prob 50%                      #198.7
..LN1971:
                                # LOE xmm0
..B1.335:                       # Preds ..B1.370                # Infreq
..LN1972:
	.loc    1  199  is_stmt 1
        movl      $.L_2__STRING.4, %edi                         #199.5
..LN1973:
        movl      $1, %eax                                      #199.5
..___tag_value_nccp2r.304:
..LN1974:
#       printf(const char *__restrict__, ...)
        call      printf                                        #199.5
..___tag_value_nccp2r.305:
..LN1975:
                                # LOE
..B1.336:                       # Preds ..B1.335                # Infreq
..LN1976:
	.loc    1  200  is_stmt 1
        movl      $il0_peep_printf_format_9, %edi               #200.5
..LN1977:
        call      puts                                          #200.5
..LN1978:
        jmp       ..B1.179      # Prob 100%                     #200.5
..LN1979:
                                # LOE
..B1.337:                       # Preds ..B1.370                # Infreq
..LN1980:
	.loc    1  202  is_stmt 1
        vroundsd  $2, %xmm0, %xmm0, %xmm0                       #202.25
..LN1981:
        movl      $.L_2__STRING.6, %edi                         #202.8
..LN1982:
        movl      $1, %eax                                      #202.8
..___tag_value_nccp2r.306:
..LN1983:
#       printf(const char *__restrict__, ...)
        call      printf                                        #202.8
..___tag_value_nccp2r.307:
..LN1984:
        jmp       ..B1.179      # Prob 100%                     #202.8
..LN1985:
                                # LOE
..B1.339:                       # Preds ..B1.232                # Infreq
..LN1986:
	.loc    1  487  is_stmt 1
        movl      $.L_2__STRING.36, %edi                        #487.20
..LN1987:
        lea       (%rsp), %rsi                                  #487.20
..LN1988:
        xorl      %eax, %eax                                    #487.20
..___tag_value_nccp2r.308:
..LN1989:
#       printf(const char *__restrict__, ...)
        call      printf                                        #487.20
..___tag_value_nccp2r.309:
..LN1990:
                                # LOE
..B1.340:                       # Preds ..B1.339                # Infreq
..LN1991:
	.loc    1  488  is_stmt 1
        lea       2048(%rsp), %rdi                              #488.20
..LN1992:
#       unlink(const char *)
        call      unlink                                        #488.20
..LN1993:
                                # LOE
..B1.341:                       # Preds ..B1.340                # Infreq
..LN1994:
	.loc    1  489  is_stmt 1
        movl      $9, %eax                                      #489.27
..LN1995:
	.loc    1  489  epilogue_begin  is_stmt 1
        addq      $20856, %rsp                                  #489.27
	.cfi_def_cfa_offset 56
	.cfi_restore 6
..LN1996:
        popq      %rbp                                          #489.27
	.cfi_def_cfa_offset 48
	.cfi_restore 3
..LN1997:
        popq      %rbx                                          #489.27
	.cfi_def_cfa_offset 40
	.cfi_restore 15
..LN1998:
        popq      %r15                                          #489.27
	.cfi_def_cfa_offset 32
	.cfi_restore 14
..LN1999:
        popq      %r14                                          #489.27
	.cfi_def_cfa_offset 24
	.cfi_restore 13
..LN2000:
        popq      %r13                                          #489.27
	.cfi_def_cfa_offset 16
	.cfi_restore 12
..LN2001:
        popq      %r12                                          #489.27
	.cfi_def_cfa_offset 8
..LN2002:
        ret                                                     #489.27
	.cfi_def_cfa_offset 20912
	.cfi_offset 3, -48
	.cfi_offset 6, -56
	.cfi_offset 12, -16
	.cfi_offset 13, -24
	.cfi_offset 14, -32
	.cfi_offset 15, -40
..LN2003:
                                # LOE
..B1.342:                       # Preds ..B1.227                # Infreq
..LN2004:
        movl      %r14d, 20752(%rsp)                            #
..LN2005:
        movl      %ecx, %r12d                                   #
..LN2006:
        movl      %esi, %r14d                                   #
..LN2007:
                                # LOE ebx ebp r12d r13d r14d r15d
..B1.343:                       # Preds ..B1.351 ..B1.342       # Infreq
..LN2008:
	.loc    1  466  is_stmt 1
        movl      $.L_2__STRING.33, %esi                        #466.6
..LN2009:
        lea       (%rsp), %rdi                                  #466.6
..LN2010:
        movl      %r12d, %ecx                                   #466.6
..LN2011:
        lea       2048(%rsp), %rdx                              #466.6
..LN2012:
        xorl      %eax, %eax                                    #466.6
..LN2013:
#       sprintf(char *__restrict__, const char *__restrict__, ...)
        call      sprintf                                       #466.6
..LN2014:
                                # LOE ebx ebp r12d r13d r14d r15d
..B1.344:                       # Preds ..B1.343                # Infreq
..LN2015:
	.loc    3  454  is_stmt 1
        movl      $1, %edi                                      #454.10
..LN2016:
        lea       (%rsp), %rsi                                  #454.10
..LN2017:
        lea       12320(%rsp), %rdx                             #454.10
..LN2018:
#       __xstat(int, const char *, struct stat *)
        call      __xstat                                       #454.10
..LN2019:
                                # LOE eax ebx ebp r12d r13d r14d r15d
..B1.345:                       # Preds ..B1.344                # Infreq
..LN2020:
	.loc    1  467  is_stmt 1
        testl     %eax, %eax                                    #467.37
..LN2021:
        jne       ..B1.347      # Prob 22%                      #467.37
..LN2022:
                                # LOE ebx ebp r12d r13d r14d r15d
..B1.346:                       # Preds ..B1.345                # Infreq
..LN2023:
        movl      %r12d, %ecx                                   #
..LN2024:
        movl      %r14d, %esi                                   #
..LN2025:
        movl      20752(%rsp), %r14d                            #
..LN2026:
	.loc    1  469  is_stmt 1
        movl      $4, %r15d                                     #469.10
..LN2027:
        jmp       ..B1.228      # Prob 100%                     #469.10
..LN2028:
                                # LOE ecx ebx ebp esi r13d r14d r15d
..B1.347:                       # Preds ..B1.345                # Infreq
..LN2029:
	.loc    1  473  is_stmt 1
        movl      $.L_2__STRING.34, %esi                        #473.10
..LN2030:
        lea       (%rsp), %rdi                                  #473.10
..LN2031:
        movl      %r12d, %ecx                                   #473.10
..LN2032:
        lea       2048(%rsp), %rdx                              #473.10
..LN2033:
        xorl      %eax, %eax                                    #473.10
..LN2034:
#       sprintf(char *__restrict__, const char *__restrict__, ...)
        call      sprintf                                       #473.10
..LN2035:
                                # LOE ebx ebp r12d r13d r14d r15d
..B1.348:                       # Preds ..B1.347                # Infreq
..LN2036:
	.loc    3  454  is_stmt 1
        movl      $1, %edi                                      #454.10
..LN2037:
        lea       (%rsp), %rsi                                  #454.10
..LN2038:
        lea       12320(%rsp), %rdx                             #454.10
..LN2039:
#       __xstat(int, const char *, struct stat *)
        call      __xstat                                       #454.10
..LN2040:
                                # LOE eax ebx ebp r12d r13d r14d r15d
..B1.349:                       # Preds ..B1.348                # Infreq
..LN2041:
	.loc    1  474  is_stmt 1
        testl     %eax, %eax                                    #474.41
..LN2042:
        jne       ..B1.351      # Prob 50%                      #474.41
..LN2043:
                                # LOE ebx ebp r12d r13d r14d r15d
..B1.350:                       # Preds ..B1.349                # Infreq
..LN2044:
        movl      %r12d, %ecx                                   #
..LN2045:
        movl      %r14d, %esi                                   #
..LN2046:
        movl      20752(%rsp), %r14d                            #
..LN2047:
	.loc    1  476  is_stmt 1
        movl      $6, %r15d                                     #476.7
..LN2048:
        jmp       ..B1.228      # Prob 100%                     #476.7
..LN2049:
                                # LOE ecx ebx ebp esi r13d r14d r15d
..B1.351:                       # Preds ..B1.349                # Infreq
..LN2050:
	.loc    1  462  is_stmt 1
        incl      %r12d                                         #462.38
..LN2051:
        cmpl      %ebp, %r12d                                   #462.32
..LN2052:
        jl        ..B1.343      # Prob 82%                      #462.32
..LN2053:
                                # LOE ebx ebp r12d r13d r14d r15d
..B1.352:                       # Preds ..B1.351                # Infreq
..LN2054:
        movl      20752(%rsp), %r14d                            #
..LN2055:
	.loc    1  458  is_stmt 1
        lea       1(%rbx), %eax                                 #458.41
..LN2056:
	.loc    1  521  is_stmt 1
        movl      20844(%rsp), %ebx                             #521.26
..LN2057:
        jmp       ..B1.256      # Prob 100%                     #521.26
..LN2058:
                                # LOE eax ebx ebp r13d r14d r15d
..B1.353:                       # Preds ..B1.226                # Infreq
..LN2059:
	.loc    1  458  is_stmt 1
        lea       1(%rbx), %eax                                 #458.41
..LN2060:
	.loc    1  521  is_stmt 1
        movl      20844(%rsp), %ebx                             #521.26
..LN2061:
        jmp       ..B1.257      # Prob 100%                     #521.26
..LN2062:
                                # LOE eax ebx ebp r12d r13d r14d r15d
..B1.354:                       # Preds ..B1.79                 # Infreq
..LN2063:
	.loc    1  368  is_stmt 1
        movl      $il0_peep_printf_format_1, %edi               #368.4
..LN2064:
        movq      stderr(%rip), %rsi                            #368.4
..LN2065:
        call      fputs                                         #368.4
..LN2066:
                                # LOE
..B1.355:                       # Preds ..B1.354                # Infreq
..LN2067:
	.loc    1  369  is_stmt 1
        movq      20816(%rsp), %rdi                             #369.4
..LN2068:
#       free(void *)
        call      free                                          #369.4
..LN2069:
                                # LOE
..B1.356:                       # Preds ..B1.355                # Infreq
..LN2070:
        movl      $1, %eax                                      #369.27
..LN2071:
	.loc    1  369  epilogue_begin  is_stmt 1
        addq      $20856, %rsp                                  #369.27
	.cfi_def_cfa_offset 56
	.cfi_restore 6
..LN2072:
        popq      %rbp                                          #369.27
	.cfi_def_cfa_offset 48
	.cfi_restore 3
..LN2073:
        popq      %rbx                                          #369.27
	.cfi_def_cfa_offset 40
	.cfi_restore 15
..LN2074:
        popq      %r15                                          #369.27
	.cfi_def_cfa_offset 32
	.cfi_restore 14
..LN2075:
        popq      %r14                                          #369.27
	.cfi_def_cfa_offset 24
	.cfi_restore 13
..LN2076:
        popq      %r13                                          #369.27
	.cfi_def_cfa_offset 16
	.cfi_restore 12
..LN2077:
        popq      %r12                                          #369.27
	.cfi_def_cfa_offset 8
..LN2078:
        ret                                                     #369.27
	.cfi_def_cfa_offset 20912
	.cfi_offset 3, -48
	.cfi_offset 6, -56
	.cfi_offset 12, -16
	.cfi_offset 13, -24
	.cfi_offset 14, -32
	.cfi_offset 15, -40
..LN2079:
                                # LOE
..B1.357:                       # Preds ..B1.68                 # Infreq
..LN2080:
	.loc    1  346  is_stmt 1
        movl      $il0_peep_printf_format_4, %edi               #346.8
..LN2081:
        movq      stderr(%rip), %rsi                            #346.8
..LN2082:
        call      fputs                                         #346.8
..LN2083:
                                # LOE
..B1.358:                       # Preds ..B1.357                # Infreq
..LN2084:
        movl      $1, %eax                                      #346.73
..LN2085:
	.loc    1  346  epilogue_begin  is_stmt 1
        addq      $20856, %rsp                                  #346.73
	.cfi_def_cfa_offset 56
	.cfi_restore 6
..LN2086:
        popq      %rbp                                          #346.73
	.cfi_def_cfa_offset 48
	.cfi_restore 3
..LN2087:
        popq      %rbx                                          #346.73
	.cfi_def_cfa_offset 40
	.cfi_restore 15
..LN2088:
        popq      %r15                                          #346.73
	.cfi_def_cfa_offset 32
	.cfi_restore 14
..LN2089:
        popq      %r14                                          #346.73
	.cfi_def_cfa_offset 24
	.cfi_restore 13
..LN2090:
        popq      %r13                                          #346.73
	.cfi_def_cfa_offset 16
	.cfi_restore 12
..LN2091:
        popq      %r12                                          #346.73
	.cfi_def_cfa_offset 8
..LN2092:
        ret                                                     #346.73
	.cfi_def_cfa_offset 20912
	.cfi_offset 3, -48
	.cfi_offset 6, -56
	.cfi_offset 12, -16
	.cfi_offset 13, -24
	.cfi_offset 14, -32
	.cfi_offset 15, -40
..LN2093:
                                # LOE
..B1.359:                       # Preds ..B1.374                # Infreq
..LN2094:
	.loc    1  255  is_stmt 1
        movl      $.L_2__STRING.7, %esi                         #255.9
..LN2095:
        movl      $version, %edx                                #255.9
..LN2096:
        xorl      %eax, %eax                                    #255.9
..LN2097:
        movq      stderr(%rip), %rdi                            #255.9
..LN2098:
#       fprintf(FILE *__restrict__, const char *__restrict__, ...)
        call      fprintf                                       #255.9
..LN2099:
                                # LOE
..B1.360:                       # Preds ..B1.359                # Infreq
..LN2100:
	.loc    1  256  is_stmt 1
        movl      $.L_2__STRING.8, %esi                         #256.9
..LN2101:
        movl      $last_updated, %edx                           #256.9
..LN2102:
        xorl      %eax, %eax                                    #256.9
..LN2103:
        movq      stderr(%rip), %rdi                            #256.9
..LN2104:
#       fprintf(FILE *__restrict__, const char *__restrict__, ...)
        call      fprintf                                       #256.9
..LN2105:
        jmp       ..B1.179      # Prob 100%                     #256.9
..LN2106:
        .align    16,0x90
	.cfi_endproc
..LN2107:
                                # LOE
..LN2108:
# mark_end;
	.type	nccp2r,@function
	.size	nccp2r,.-nccp2r
..LNnccp2r.2109:
.LNnccp2r:
	.section .rodata.str1.4, "aMS",@progbits,1
	.align 4
il0_peep_printf_format_3:
	.long	1869771333
	.long	1864383090
	.long	1970304117
	.long	1768300660
	.long	1931502956
	.long	1936549221
	.long	544175136
	.long	1936291941
	.long	1818304628
	.long	1684104562
	.long	663929
	.align 4
il0_peep_printf_format_2:
	.long	1869771333
	.long	1663056498
	.long	1869508193
	.long	1919098996
	.long	1702125925
	.long	1701344288
	.long	1953853216
	.long	544503152
	.long	1131701614
	.long	1713391172
	.long	560295017
	.word	10
	.space 2, 0x00 	# pad
	.align 4
il0_peep_printf_format_12:
	.long	1852989783
	.long	979857001
	.long	1953853216
	.long	544503152
	.long	1701603686
	.long	2036428064
	.long	543515168
	.long	1868787305
	.long	1701605485
	.long	169960820
	.byte	0
	.space 3, 0x00 	# pad
	.align 4
il0_peep_printf_format_6:
	.long	1701147238
	.long	543649385
	.long	1869440365
	.long	1629518194
	.long	1668246636
	.long	1684370529
	.long	544106784
	.long	1668246626
	.word	107
	.space 2, 0x00 	# pad
	.align 4
il0_peep_printf_format_11:
	.long	1701147238
	.long	543649385
	.long	1869440365
	.long	1629518194
	.long	1668246636
	.long	1684370529
	.long	544106784
	.long	1668246626
	.word	107
	.space 2, 0x00 	# pad
	.align 4
il0_peep_printf_format_8:
	.long	1701147238
	.long	543649385
	.long	1869440365
	.long	1629518194
	.long	1668246636
	.long	1684370529
	.long	544106784
	.long	1668246626
	.word	107
	.space 2, 0x00 	# pad
	.align 4
il0_peep_printf_format_13:
	.long	1852989783
	.long	979857001
	.long	544165408
	.long	1970302569
	.long	1768300660
	.long	1713399148
	.long	1684960623
	.long	544106784
	.long	1735287154
	.long	667237
	.align 4
il0_peep_printf_format_10:
	.long	538976288
	.long	1920409632
	.long	1852404841
	.long	1869881447
	.long	1936286752
	.word	107
	.space 2, 0x00 	# pad
	.align 4
il0_peep_printf_format_1:
	.long	1869771333
	.long	1663056498
	.long	1869508193
	.long	1886330996
	.long	1948282469
	.long	1864394088
	.long	1970304117
	.long	1701716084
	.long	1178878836
	.long	1818846752
	.long	1868963941
	.long	1885413490
	.long	1684956528
	.long	560426601
	.word	10
	.space 2, 0x00 	# pad
	.align 4
il0_peep_printf_format_4:
	.long	1869771333
	.long	1663056498
	.long	1869508193
	.long	1818304628
	.long	1633906540
	.long	1696621940
	.long	1735749486
	.long	1701650536
	.long	2037542765
	.word	2593
	.byte	0
	.section .rodata.str1.32, "aMS",@progbits,1
	.align 32
il0_peep_printf_format_0:
	.long	1763735597
	.long	1702043763
	.long	1931488372
	.long	1818370159
	.long	1768645487
	.long	1713399662
	.long	1869898593
	.long	1769414770
	.long	1646292076
	.long	1702043749
	.long	1869881460
	.long	539898144
	.long	543516756
	.long	1864395565
	.long	1869182064
	.long	1769414766
	.long	1646292076
	.long	1734942821
	.long	1701998446
	.long	667236
	.space 16, 0x00 	# pad
	.align 32
il0_peep_printf_format_5:
	.long	1936287828
	.long	1853190688
	.long	1818851104
	.long	1936007276
	.long	1634560372
	.long	1881171316
	.long	543908197
	.long	1869440365
	.long	1914730866
	.long	1684632421
	.long	544501349
	.long	1702521203
	.long	1867391022
	.long	1953853216
	.long	544503152
	.long	1701603686
	.long	1818851104
	.long	1700929644
	.long	1701995296
	.long	1684370529
	.word	46
	.space 14, 0x00 	# pad
	.align 32
il0_peep_printf_format_7:
	.long	544370502
	.long	1769239397
	.long	1769234797
	.long	1377855342
	.long	1713394515
	.long	1629516399
	.long	1718182944
	.long	1701995878
	.long	1981838446
	.long	1702194273
	.long	543584032
	.long	1830825067
	.long	1769237621
	.long	544828528
	.long	1987011169
	.long	1937055845
	.long	543516513
	.long	1797290338
	.word	46
	.space 22, 0x00 	# pad
	.align 32
il0_peep_printf_format_14:
	.long	544370502
	.long	1769239397
	.long	1769234797
	.long	1377855342
	.long	1713394515
	.long	1629516399
	.long	1718182944
	.long	1701995878
	.long	1981838446
	.long	1702194273
	.long	543584032
	.long	1830825067
	.long	1769237621
	.long	544828528
	.long	1987011169
	.long	1937055845
	.long	543516513
	.long	1797290338
	.word	46
	.space 22, 0x00 	# pad
	.align 32
il0_peep_printf_format_9:
	.long	544370502
	.long	1769239397
	.long	1769234797
	.long	1377855342
	.long	1713394515
	.long	1629516399
	.long	1718182944
	.long	1701995878
	.long	1981838446
	.long	1702194273
	.long	543584032
	.long	1830825067
	.long	1769237621
	.long	544828528
	.long	1987011169
	.long	1937055845
	.long	543516513
	.long	1797290338
	.word	46
	.data
	.file   4 "/usr/include/bits/stat.h"
	.file   5 "/usr/include/bits/types.h"
	.file   6 "/usr/include/time.h"
	.file   7 "/opt/cray/pe/netcdf/4.4.1.1.3/INTEL/16.0/include/netcdf.h"
	.file   8 "/opt/intel/compilers_and_libraries_2016.3.210/linux/compiler/include/stddef.h"
# -- End  nccp2r
	.text
.L_2__routine_start_flush_decomp_1:
# -- Begin  flush_decomp
	.text
# mark_begin;
       .align    16,0x90
	.globl flush_decomp
# --- flush_decomp(struct fileinfo *, int, int, int, unsigned char)
flush_decomp:
# parameter 1(ncoutfile): %rdi
# parameter 2(nfiles): %esi
# parameter 3(r): %edx
# parameter 4(bf): %ecx
# parameter 5(verbose): %r8d
..B2.1:                         # Preds ..B2.0
	.cfi_startproc
..___tag_value_flush_decomp.376:
..L377:
                                                        #1364.3
..LN2110:
	.loc    1  1364  is_stmt 1
        pushq     %r14                                          #1364.3
	.cfi_def_cfa_offset 16
	.cfi_offset 14, -16
..LN2111:
        pushq     %r15                                          #1364.3
	.cfi_def_cfa_offset 24
	.cfi_offset 15, -24
..LN2112:
        pushq     %rbx                                          #1364.3
	.cfi_def_cfa_offset 32
	.cfi_offset 3, -32
..LN2113:
        pushq     %rbp                                          #1364.3
	.cfi_def_cfa_offset 40
	.cfi_offset 6, -40
..LN2114:
        subq      $16440, %rsp                                  #1364.3
	.cfi_def_cfa_offset 16480
..LN2115:
        movl      %ecx, %r15d                                   #1364.3
..LN2116:
        movzbl    %r8b, %r14d                                   #1364.3
..LN2117:
        movl      %edx, %ebp                                    #1364.3
..LN2118:
        movq      %rdi, %rbx                                    #1364.3
..LN2119:
	.loc    1  1370  prologue_end  is_stmt 1
        cmpl      $1, %r14d                                     #1370.18
..LN2120:
        jle       ..B2.3        # Prob 78%                      #1370.18
..LN2121:
                                # LOE rbx r12 r13 ebp r14d r15d
..B2.2:                         # Preds ..B2.1
..LN2122:
	.loc    1  1372  is_stmt 1
        movl      $.L_2__STRING.138, %edi                       #1372.7
..LN2123:
        xorl      %eax, %eax                                    #1372.7
..LN2124:
        movl      8(%rbx), %esi                                 #1372.7
..___tag_value_flush_decomp.388:
..LN2125:
#       printf(const char *__restrict__, ...)
        call      printf                                        #1372.7
..___tag_value_flush_decomp.389:
..LN2126:
                                # LOE rbx r12 r13 ebp r14d r15d
..B2.3:                         # Preds ..B2.2 ..B2.1
..LN2127:
	.loc    1  1376  is_stmt 1
        xorl      %esi, %esi                                    #1376.9
..LN2128:
        xorl      %ecx, %ecx                                    #1376.9
..LN2129:
        movslq    8(%rbx), %rax                                 #1376.18
..LN2130:
        xorl      %edx, %edx                                    #1376.9
..LN2131:
        testq     %rax, %rax                                    #1376.18
..LN2132:
        jle       ..B2.25       # Prob 4%                       #1376.18
..LN2133:
                                # LOE rax rdx rcx rbx rsi r12 r13 ebp r14d r15d
..B2.4:                         # Preds ..B2.3
..LN2134:
	.loc    1  1396  is_stmt 1
        movslq    %ebp, %rdi                                    #1396.48
..LN2135:
        movq      %rdi, 8208(%rsp)                              #1396.48
..LN2136:
        movl      %ebp, 8224(%rsp)                              #1396.48
..LN2137:
        movq      %rdx, %rbp                                    #1396.48
..LN2138:
        movl      %r15d, 8216(%rsp)                             #1396.48
..LN2139:
        movq      %rcx, %r15                                    #1396.48
..LN2140:
        movq      %r12, 8192(%rsp)                              #1396.48
	.cfi_offset 12, -8288
..LN2141:
        movq      %rbx, %r12                                    #1396.48
..LN2142:
        movq      %r13, 8200(%rsp)                              #1396.48
	.cfi_offset 13, -8280
..LN2143:
        movq      %rsi, %r13                                    #1396.48
..LN2144:
                                # LOE rax rbp r12 r13 r15 r14d
..B2.5:                         # Preds ..B2.23 ..B2.4
..L392:         # optimization report
                # %s was not vectorized: loop control variable %s was found, but loop iteration count cannot be computed before executing the loop
..LN2145:
	.loc    1  1378  is_stmt 1
        cmpb      $0, 35749908(%r13,%r12)                       #1378.36
..LN2146:
        je        ..B2.23       # Prob 50%                      #1378.36
..LN2147:
                                # LOE rax rbp r12 r13 r15 r14d
..B2.6:                         # Preds ..B2.5
..LN2148:
	.loc    1  1379  is_stmt 1
        cmpl      $1, %r14d                                     #1379.21
..LN2149:
        jle       ..B2.8        # Prob 78%                      #1379.21
..LN2150:
                                # LOE rbp r12 r13 r15 r14d
..B2.7:                         # Preds ..B2.6
..LN2151:
        movl      $.L_2__STRING.139, %edi                       #1379.24
..LN2152:
        lea       20(%rbp,%r12), %rdx                           #1379.24
..LN2153:
        movl      %r13d, %esi                                   #1379.24
..LN2154:
        xorl      %eax, %eax                                    #1379.24
..___tag_value_flush_decomp.393:
..LN2155:
#       printf(const char *__restrict__, ...)
        call      printf                                        #1379.24
..___tag_value_flush_decomp.394:
..LN2156:
                                # LOE rbp r12 r13 r15 r14d
..B2.8:                         # Preds ..B2.7 ..B2.6
..LN2157:
	.loc    1  1380  is_stmt 1
        movl      $-1, %ebx                                     #1380.7
..LN2158:
	.loc    1  1381  is_stmt 1
        xorl      %esi, %esi                                    #1381.12
..LN2159:
        cmpl      $0, 2129940(%r12,%r13,4)                      #1381.21
..LN2160:
        jle       ..B2.28       # Prob 10%                      #1381.21
..LN2161:
                                # LOE rbp rsi r12 r13 r15 ebx r14d
..B2.9:                         # Preds ..B2.8
..LN2162:
	.loc    1  1384  is_stmt 1
        movq      %rbp, 16432(%rsp)                             #1384.14
..LN2163:
        lea       (%r12,%r15), %rax                             #1384.14
..LN2164:
        movq      %r15, 16424(%rsp)                             #1384.14
..LN2165:
        movq      %rax, %rbp                                    #1384.14
..LN2166:
        movq      %rsi, %r15                                    #1384.14
..LN2167:
                                # LOE rbp r12 r13 r15 ebx r14d
..B2.10:                        # Preds ..B2.15 ..B2.9
..L395:         # optimization report
                # %s was not vectorized: loop control variable %s was found, but loop iteration count cannot be computed before executing the loop
..LN2168:
        movl      2162708(%rbp,%r15,4), %edx                    #1384.14
..LN2169:
	.loc    1  1383  is_stmt 1
        movq      $0, 8232(%rsp,%r15,8)                         #1383.10
..LN2170:
	.loc    1  1384  is_stmt 1
        cmpl      16(%r12), %edx                                #1384.39
..LN2171:
        jne       ..B2.12       # Prob 50%                      #1384.39
..LN2172:
                                # LOE rbp r12 r13 r15 edx ebx r14d
..B2.11:                        # Preds ..B2.10
..LN2173:
	.loc    1  1386  is_stmt 1
        movq      $1, (%rsp,%r15,8)                             #1386.13
..LN2174:
        movl      %r15d, %ebx                                   #1386.25
..LN2175:
        jmp       ..B2.13       # Prob 100%                     #1386.25
..LN2176:
                                # LOE rbp r12 r13 r15 ebx r14d
..B2.12:                        # Preds ..B2.10
..LN2177:
	.loc    1  1390  is_stmt 1
        movslq    %edx, %rdx                                    #1390.22
..LN2178:
        movq      36028440(%r12,%rdx,8), %rcx                   #1390.22
..LN2179:
        movq      %rcx, (%rsp,%r15,8)                           #1390.13
..LN2180:
                                # LOE rbp r12 r13 r15 ebx r14d
..B2.13:                        # Preds ..B2.11 ..B2.12
..LN2181:
	.loc    1  1392  is_stmt 1
        cmpl      $1, %r14d                                     #1392.24
..LN2182:
        jle       ..B2.15       # Prob 78%                      #1392.24
..LN2183:
                                # LOE rbp r12 r13 r15 ebx r14d
..B2.14:                        # Preds ..B2.13
..LN2184:
	.loc    1  1393  is_stmt 1
        movl      $.L_2__STRING.140, %edi                       #1393.12
..LN2185:
        movl      %r15d, %esi                                   #1393.12
..LN2186:
        xorl      %eax, %eax                                    #1393.12
..LN2187:
        movq      8232(%rsp,%r15,8), %rdx                       #1393.12
..LN2188:
        movq      (%rsp,%r15,8), %rcx                           #1393.12
..___tag_value_flush_decomp.396:
..LN2189:
#       printf(const char *__restrict__, ...)
        call      printf                                        #1393.12
..___tag_value_flush_decomp.397:
..LN2190:
                                # LOE rbp r12 r13 r15 ebx r14d
..B2.15:                        # Preds ..B2.14 ..B2.13
..LN2191:
	.loc    1  1381  is_stmt 1
        incq      %r15                                          #1381.45
..LN2192:
        movslq    2129940(%r12,%r13,4), %rdx                    #1381.21
..LN2193:
        cmpq      %rdx, %r15                                    #1381.21
..LN2194:
        jl        ..B2.10       # Prob 99%                      #1381.21
..LN2195:
                                # LOE rbp r12 r13 r15 ebx r14d
..B2.16:                        # Preds ..B2.15
..LN2196:
        movq      16432(%rsp), %rbp                             #
..LN2197:
        movq      16424(%rsp), %r15                             #
..LN2198:
	.loc    1  1396  is_stmt 1
        cmpl      $-1, %ebx                                     #1396.22
..LN2199:
        je        ..B2.28       # Prob 16%                      #1396.22
..LN2200:
                                # LOE rbp r12 r13 r15 ebx ebp r14d r15d bpl r15b
..B2.17:                        # Preds ..B2.16
..LN2201:
        movslq    %ebx, %rbx                                    #1396.28
..LN2202:
        movq      8208(%rsp), %rax                              #1396.28
..LN2203:
        movq      %rax, 8232(%rsp,%rbx,8)                       #1396.28
..LN2204:
                                # LOE rbp r12 r13 r15 r14d
..B2.18:                        # Preds ..B2.28 ..B2.17
..LN2205:
	.loc    1  1398  is_stmt 1
        cmpl      $1, %r14d                                     #1398.21
..LN2206:
        jle       ..B2.20       # Prob 78%                      #1398.21
..LN2207:
                                # LOE rbp r12 r13 r15 r14d
..B2.19:                        # Preds ..B2.18
..LN2208:
	.loc    1  1399  is_stmt 1
        movl      $il0_peep_printf_format_15, %edi              #1399.9
..LN2209:
        call      puts                                          #1399.9
..LN2210:
                                # LOE rbp r12 r13 r15 r14d
..B2.20:                        # Preds ..B2.19 ..B2.18
..LN2211:
	.loc    1  1400  is_stmt 1
        movl      8224(%rsp), %eax                              #1400.11
..LN2212:
        movl      %r13d, %ebx                                   #1400.11
..LN2213:
        cltd                                                    #1400.11
..LN2214:
        idivl     8216(%rsp)                                    #1400.11
..LN2215:
        movq      varbuf(%rip), %r9                             #1400.11
..LN2216:
        movl      %ebx, %esi                                    #1400.11
..LN2217:
        movslq    %edx, %rdx                                    #1400.11
..LN2218:
        lea       (%rsp), %rcx                                  #1400.11
..LN2219:
        movl      (%r12), %edi                                  #1400.11
..LN2220:
        movq      (%r9,%rdx,8), %r10                            #1400.11
..LN2221:
        lea       8232(%rsp), %rdx                              #1400.11
..LN2222:
        movq      (%r10,%r13,8), %r8                            #1400.11
..___tag_value_flush_decomp.398:
..LN2223:
#       ncvarput(int, int, const long *, const long *, const void *)
        call      ncvarput                                      #1400.11
..___tag_value_flush_decomp.399:
..LN2224:
                                # LOE rbp r12 r13 r15 eax ebx r14d
..B2.21:                        # Preds ..B2.20
..LN2225:
        cmpl      $-1, %eax                                     #1400.76
..LN2226:
        je        ..B2.26       # Prob 20%                      #1400.76
..LN2227:
                                # LOE rbp r12 r13 r15 ebx r14d
..B2.22:                        # Preds ..B2.28 ..B2.21
..LN2228:
	.loc    1  1376  is_stmt 1
        movslq    8(%r12), %rax                                 #1376.18
..LN2229:
                                # LOE rax rbp r12 r13 r15 r14d
..B2.23:                        # Preds ..B2.22 ..B2.5
..LN2230:
        incq      %r13                                          #1376.36
..LN2231:
        addq      $4096, %r15                                   #1376.36
..LN2232:
        addq      $256, %rbp                                    #1376.36
..LN2233:
        cmpq      %rax, %r13                                    #1376.18
..LN2234:
        jl        ..B2.5        # Prob 82%                      #1376.18
..LN2235:
                                # LOE rax rbp r12 r13 r15 r14d
..B2.24:                        # Preds ..B2.23
..LN2236:
        movq      8192(%rsp), %r12                              #
	.cfi_restore 12
..LN2237:
        movq      8200(%rsp), %r13                              #
	.cfi_restore 13
..LN2238:
                                # LOE r12 r13
..B2.25:                        # Preds ..B2.24 ..B2.3
..LN2239:
	.loc    1  1406  is_stmt 1
        xorl      %eax, %eax                                    #1406.10
..LN2240:
	.loc    1  1406  epilogue_begin  is_stmt 1
        addq      $16440, %rsp                                  #1406.10
	.cfi_def_cfa_offset 40
	.cfi_restore 6
..LN2241:
        popq      %rbp                                          #1406.10
	.cfi_def_cfa_offset 32
	.cfi_restore 3
..LN2242:
        popq      %rbx                                          #1406.10
	.cfi_def_cfa_offset 24
	.cfi_restore 15
..LN2243:
        popq      %r15                                          #1406.10
	.cfi_def_cfa_offset 16
	.cfi_restore 14
..LN2244:
        popq      %r14                                          #1406.10
	.cfi_def_cfa_offset 8
..LN2245:
        ret                                                     #1406.10
	.cfi_def_cfa_offset 16480
	.cfi_offset 3, -32
	.cfi_offset 6, -40
	.cfi_offset 12, -8288
	.cfi_offset 13, -8280
	.cfi_offset 14, -16
	.cfi_offset 15, -24
..LN2246:
                                # LOE
..B2.26:                        # Preds ..B2.21                 # Infreq
..LN2247:
	.loc    1  1402  is_stmt 1
        movl      $.L_2__STRING.142, %esi                       #1402.10
..LN2248:
        movl      %ebx, %edx                                    #1402.10
..LN2249:
        xorl      %eax, %eax                                    #1402.10
..LN2250:
        movq      stderr(%rip), %rdi                            #1402.10
..LN2251:
        movq      8192(%rsp), %r12                              #
	.cfi_restore 12
..LN2252:
        movq      8200(%rsp), %r13                              #
	.cfi_restore 13
..LN2253:
#       fprintf(FILE *__restrict__, const char *__restrict__, ...)
        call      fprintf                                       #1402.10
	.cfi_offset 12, -8288
	.cfi_offset 13, -8280
..LN2254:
                                # LOE r12 r13 r12d r13d r12b r13b
..B2.27:                        # Preds ..B2.26                 # Infreq
..LN2255:
	.loc    1  1403  is_stmt 1
        movl      $1, %eax                                      #1403.28
..LN2256:
	.loc    1  1403  epilogue_begin  is_stmt 1
        addq      $16440, %rsp                                  #1403.28
	.cfi_def_cfa_offset 40
	.cfi_restore 6
..LN2257:
        popq      %rbp                                          #1403.28
	.cfi_def_cfa_offset 32
	.cfi_restore 3
..LN2258:
        popq      %rbx                                          #1403.28
	.cfi_def_cfa_offset 24
	.cfi_restore 15
..LN2259:
        popq      %r15                                          #1403.28
	.cfi_def_cfa_offset 16
	.cfi_restore 14
..LN2260:
        popq      %r14                                          #1403.28
	.cfi_def_cfa_offset 8
..LN2261:
        ret                                                     #1403.28
	.cfi_def_cfa_offset 16480
	.cfi_offset 3, -32
	.cfi_offset 6, -40
	.cfi_offset 14, -16
	.cfi_offset 15, -24
..LN2262:
                                # LOE
..B2.28:                        # Preds ..B2.16 ..B2.8          # Infreq
..LN2263:
	.loc    1  1397  is_stmt 1
        cmpl      $0, 8224(%rsp)                                #1397.34
..LN2264:
        jg        ..B2.22       # Prob 84%                      #1397.34
..LN2265:
        jmp       ..B2.18       # Prob 100%                     #1397.34
..LN2266:
        .align    16,0x90
	.cfi_endproc
..LN2267:
                                # LOE rbp r12 r13 r15 r14d
..LN2268:
# mark_end;
	.type	flush_decomp,@function
	.size	flush_decomp,.-flush_decomp
..LNflush_decomp.2269:
.LNflush_decomp:
	.section .rodata.str1.4, "aMS",@progbits,1
	.space 1, 0x00 	# pad
	.align 4
il0_peep_printf_format_15:
	.long	538976288
	.long	1920409632
	.long	1852404841
	.long	1869881447
	.long	1936286752
	.word	107
	.data
# -- End  flush_decomp
	.text
.L_2__routine_start_process_file_2:
# -- Begin  process_file
	.text
# mark_begin;
       .align    16,0x90
	.globl process_file
# --- process_file(char *, unsigned char, struct fileinfo *, char *, int *, int *, int *, int *, int, int, int, unsigned char, unsigned char)
process_file:
# parameter 1(ncname): %rdi
# parameter 2(appendnc): %esi
# parameter 3(ncoutfile): %rdx
# parameter 4(outncname): %rcx
# parameter 5(nfiles): %r8
# parameter 6(nrecs): %r9
# parameter 7(nblocks): 16 + %rbp
# parameter 8(bf): 24 + %rbp
# parameter 9(block): 32 + %rbp
# parameter 10(f): 40 + %rbp
# parameter 11(headerpad): 48 + %rbp
# parameter 12(verbose): 56 + %rbp
# parameter 13(missing): 64 + %rbp
..B3.1:                         # Preds ..B3.0
	.cfi_startproc
..___tag_value_process_file.442:
..L443:
                                                        #706.3
..LN2270:
	.loc    1  706  is_stmt 1
        pushq     %rbp                                          #706.3
	.cfi_def_cfa_offset 16
..LN2271:
        movq      %rsp, %rbp                                    #706.3
	.cfi_def_cfa 6, 16
	.cfi_offset 6, -16
..LN2272:
        andq      $-32, %rsp                                    #706.3
..LN2273:
        pushq     %r12                                          #706.3
..LN2274:
        pushq     %r13                                          #706.3
..LN2275:
        pushq     %r14                                          #706.3
..LN2276:
        pushq     %r15                                          #706.3
..LN2277:
        pushq     %rbx                                          #706.3
..LN2278:
        subq      $408, %rsp                                    #706.3
	.cfi_escape 0x10, 0x03, 0x0e, 0x38, 0x1c, 0x0d, 0xe0, 0xff, 0xff, 0xff, 0x1a, 0x0d, 0xd8, 0xff, 0xff, 0xff, 0x22
	.cfi_escape 0x10, 0x0c, 0x0e, 0x38, 0x1c, 0x0d, 0xe0, 0xff, 0xff, 0xff, 0x1a, 0x0d, 0xf8, 0xff, 0xff, 0xff, 0x22
	.cfi_escape 0x10, 0x0d, 0x0e, 0x38, 0x1c, 0x0d, 0xe0, 0xff, 0xff, 0xff, 0x1a, 0x0d, 0xf0, 0xff, 0xff, 0xff, 0x22
	.cfi_escape 0x10, 0x0e, 0x0e, 0x38, 0x1c, 0x0d, 0xe0, 0xff, 0xff, 0xff, 0x1a, 0x0d, 0xe8, 0xff, 0xff, 0xff, 0x22
	.cfi_escape 0x10, 0x0f, 0x0e, 0x38, 0x1c, 0x0d, 0xe0, 0xff, 0xff, 0xff, 0x1a, 0x0d, 0xe0, 0xff, 0xff, 0xff, 0x22
..LN2279:
        movq      %r8, %r13                                     #706.3
..LN2280:
        movq      %r9, 352(%rsp)                                #706.3
..LN2281:
        movq      %rdx, %r15                                    #706.3
..LN2282:
        movq      %rcx, 368(%rsp)                               #706.3
..LN2283:
        movl      %esi, %r12d                                   #706.3
..LN2284:
	.loc    1  717  prologue_end  is_stmt 1
        movl      $0, 360(%rsp)                                 #717.31
..LN2285:
	.loc    1  706  is_stmt 1
        movq      %rdi, %r14                                    #706.3
..LN2286:
	.loc    1  720  is_stmt 1
        cmpl      $0, print_mem_usage(%rip)                     #720.8
..LN2287:
        je        ..B3.16       # Prob 78%                      #720.8
..LN2288:
                                # LOE r13 r14 r15 r12d
..B3.2:                         # Preds ..B3.1
..LN2289:
	.loc    1  178  is_stmt 1
        movq      $0, 304(%rsp)                                 #178.12
..LN2290:
	.loc    1  179  is_stmt 1
        cmpq      $0, PAGE_SIZE.1412.0.3(%rip)                  #179.20
..LN2291:
        je        ..B3.174      # Prob 5%                       #179.20
..LN2292:
                                # LOE r13 r14 r15 r12d
..B3.3:                         # Preds ..B3.2 ..B3.175
..LN2293:
	.loc    1  180  is_stmt 1
        xorl      %edi, %edi                                    #180.7
..LN2294:
        movl      $ruse, %esi                                   #180.7
..LN2295:
#       getrusage(__rusage_who_t, struct rusage *)
        call      getrusage                                     #180.7
..LN2296:
                                # LOE r13 r14 r15 eax r12d
..B3.4:                         # Preds ..B3.3
..LN2297:
        testl     %eax, %eax                                    #180.40
..LN2298:
        jne       ..B3.6        # Prob 50%                      #180.40
..LN2299:
                                # LOE r13 r14 r15 r12d
..B3.5:                         # Preds ..B3.4
..LN2300:
        movq      32+ruse(%rip), %rbx                           #180.49
..LN2301:
        imulq     PAGE_SIZE.1412.0.3(%rip), %rbx                #180.66
..LN2302:
        movq      %rbx, 304(%rsp)                               #180.43
..LN2303:
        jmp       ..B3.7        # Prob 100%                     #180.43
..LN2304:
                                # LOE rbx r13 r14 r15 r12d
..B3.6:                         # Preds ..B3.4
..LN2305:
	.loc    1  181  is_stmt 1
        movq      304(%rsp), %rbx                               #181.7
..LN2306:
                                # LOE rbx r13 r14 r15 r12d
..B3.7:                         # Preds ..B3.5 ..B3.6
..LN2307:
        testq     %rbx, %rbx                                    #181.14
..LN2308:
