	.section .text
.LNDBG_TX:
# mark_description "Intel(R) C Intel(R) 64 Compiler for applications running on Intel(R) 64, Version 16.0.3.210 Build 20160415";
# mark_description "-I/home/CMIP/prajeesh/IITM-ESMv2/src/mom4p1/src/shared/mosaic -I/opt/cray/pe/libsci/17.09.1/INTEL/16.0/x86_6";
# mark_description "4/include -I/opt/cray/pe/netcdf/4.4.1.1.3/INTEL/16.0/include -I/opt/cray/pe/mpt/7.6.3/gni/mpich-intel/16.0/i";
# mark_description "nclude -I/opt/cray/pe/hdf5/1.10.0.3/INTEL/16.0/include -I/opt/cray/rca/2.2.11-6.0.4.0_13.2__g84de67a.ari/inc";
# mark_description "lude -I/opt/cray/alps/6.4.3-6.0.4.1_2.1__g92a2fc0.ari/include -I/opt/cray/xpmem/2.2.2-6.0.4.1_18.1__g43b0535";
# mark_description ".ari/include -I/opt/cray/gni-headers/5.0.11-6.0.4.0_7.2__g7136988.ari/include -I/opt/cray/pe/pmi/5.0.12/incl";
# mark_description "ude -I/opt/cray/ugni/6.0.14-6.0.4.0_14.1__ge7db4a2.ari/include -I/opt/cray/udreg/2.3.2-6.0.4.0_12.2__g2f9c3e";
# mark_description "e.ari/include -I/opt/cray/wlm_detect/1.2.1-6.0.4.0_22.1__gd26a3dc.ari/include -I/opt/cray/krca/2.2.2-6.0.4.1";
# mark_description "_18.3__g4614cf3.ari/include -I/opt/cray-hss-devel/8.0.0/include -xCORE-AVX2 -D__CRAYXC -D__CRAY_BROADWELL -D";
# mark_description "__CRAYXT_COMPUTE_LINUX_TARGET -Duse_netCDF4 -Duse_libMPI -DENABLE_ODA -DUSE_OCEAN_BGC -g -O3 -save-temps -c";
	.file "read_mosaic.c"
	.text
..TXTST0:
.L_2__routine_start_get_file_dir_0:
# -- Begin  get_file_dir
	.text
# mark_begin;
       .align    16,0x90
	.globl get_file_dir
# --- get_file_dir(const char *, char *)
get_file_dir:
# parameter 1(file): %rdi
# parameter 2(dir): %rsi
..B1.1:                         # Preds ..B1.0
	.cfi_startproc
..___tag_value_get_file_dir.2:
..L3:
                                                          #59.1
..LN0:
	.file   1 "/home/CMIP/prajeesh/IITM-ESMv2/src/mom4p1/src/shared/mosaic/read_mosaic.c"
	.loc    1  59  is_stmt 1
        pushq     %rbx                                          #59.1
	.cfi_def_cfa_offset 16
	.cfi_offset 3, -16
..LN1:
        pushq     %rbp                                          #59.1
	.cfi_def_cfa_offset 24
	.cfi_offset 6, -24
..LN2:
        pushq     %rsi                                          #59.1
	.cfi_def_cfa_offset 32
..LN3:
	.loc    1  59  prologue_end  is_stmt 1
        movq      %rsi, %rbp                                    #59.1
..LN4:
        movq      %rdi, %rsi                                    #59.1
..LN5:
	.loc    1  65  is_stmt 1
        movl      $47, %eax                                     #65.12
..LN6:
        movq      %rsi, %rdx                                    #65.12
..LN7:
        vpxor     %xmm0, %xmm0, %xmm0                           #65.12
..LN8:
        movq      %rdx, %rcx                                    #65.12
..LN9:
        vmovd     %eax, %xmm1                                   #65.12
..LN10:
        andq      $-16, %rdx                                    #65.12
..LN11:
        vpshufb   %xmm0, %xmm1, %xmm1                           #65.12
..LN12:
        andl      $15, %ecx                                     #65.12
..LN13:
        vmovdqa   (%rdx), %xmm2                                 #65.12
..LN14:
        vpcmpeqb  %xmm2, %xmm0, %xmm0                           #65.12
..LN15:
        vpmovmskb %xmm0, %r10d                                  #65.12
..LN16:
        vpcmpeqb  %xmm1, %xmm2, %xmm2                           #65.12
..LN17:
        shrl      %cl, %r10d                                    #65.12
..LN18:
        lea       -1(%r10), %rax                                #65.12
..LN19:
        xorl      %eax, %r10d                                   #65.12
..LN20:
        vpmovmskb %xmm2, %eax                                   #65.12
..LN21:
        shrl      %cl, %eax                                     #65.12
..LN22:
        andl      %r10d, %eax                                   #65.12
..LN23:
        je        ..L10         # Prob 60%                      #65.12
..LN24:
        bsr       %rax, %rax                                    #65.12
..LN25:
        addq      %rcx, %rax                                    #65.12
..LN26:
        addq      %rdx, %rax                                    #65.12
..L10:                                                          #
..LN27:
        orl       %r10d, %r10d                                  #65.12
..LN28:
        jg        ..L12         # Prob 60%                      #65.12
..L11:                                                          #
..LN29:
        call      __intel_sse4_strrchr                          #65.12
..L12:                                                          #
..LN30:
                                # LOE rax rbp rsi r12 r13 r14 r15
..B1.7:                         # Preds ..B1.1
..LN31:
	.loc    1  66  is_stmt 1
        testq     %rax, %rax                                    #66.6
..LN32:
        je        ..B1.3        # Prob 32%                      #66.6
..LN33:
                                # LOE rax rbp rsi r12 r13 r14 r15
..B1.2:                         # Preds ..B1.7
..LN34:
	.loc    1  67  is_stmt 1
        subq      %rsi, %rax                                    #67.11
..LN35:
	.loc    1  68  is_stmt 1
        movq      %rbp, %rdi                                    #68.5
..LN36:
	.loc    1  67  is_stmt 1
        movslq    %eax, %rbx                                    #67.5
..LN37:
	.loc    1  68  is_stmt 1
        movq      %rbx, %r8                                     #68.5
..LN38:
        call      __intel_ssse3_strncpy                         #68.5
..LN39:
        jmp       ..B1.4        # Prob 100%                     #68.5
..LN40:
                                # LOE rbx rbp r12 r13 r14 r15
..B1.3:                         # Preds ..B1.7
..LN41:
	.loc    1  72  is_stmt 1
        movl      $46, %eax                                     #72.5
..LN42:
	.loc    1  71  is_stmt 1
        movl      $1, %ebx                                      #71.5
..LN43:
	.loc    1  72  is_stmt 1
        movw      %ax, (%rbp)                                   #72.5
..LN44:
                                # LOE rbx rbp r12 r13 r14 r15
..B1.4:                         # Preds ..B1.2 ..B1.3
..LN45:
	.loc    1  74  is_stmt 1
        movb      $0, (%rbx,%rbp)                               #74.3
..LN46:
	.loc    1  76  epilogue_begin  is_stmt 1
        popq      %rcx                                          #76.1
	.cfi_def_cfa_offset 24
	.cfi_restore 6
..LN47:
        popq      %rbp                                          #76.1
	.cfi_def_cfa_offset 16
	.cfi_restore 3
..LN48:
        popq      %rbx                                          #76.1
	.cfi_def_cfa_offset 8
..LN49:
        ret                                                     #76.1
..LN50:
        .align    16,0x90
	.cfi_endproc
..LN51:
                                # LOE
..LN52:
# mark_end;
	.type	get_file_dir,@function
	.size	get_file_dir,.-get_file_dir
..LNget_file_dir.53:
.LNget_file_dir:
	.data
# -- End  get_file_dir
	.text
.L_2__routine_start_field_exist_1:
# -- Begin  field_exist
	.text
# mark_begin;
       .align    16,0x90
	.globl field_exist
# --- field_exist(const char *, const char *)
field_exist:
# parameter 1(file): %rdi
# parameter 2(name): %rsi
..B2.1:                         # Preds ..B2.0
	.cfi_startproc
..___tag_value_field_exist.22:
..L23:
                                                         #80.1
..LN54:
	.loc    1  80  is_stmt 1
        pushq     %r15                                          #80.1
	.cfi_def_cfa_offset 16
	.cfi_offset 15, -16
..LN55:
        pushq     %rbx                                          #80.1
	.cfi_def_cfa_offset 24
	.cfi_offset 3, -24
..LN56:
        pushq     %rbp                                          #80.1
	.cfi_def_cfa_offset 32
	.cfi_offset 6, -32
..LN57:
        subq      $1552, %rsp                                   #80.1
	.cfi_def_cfa_offset 1584
..LN58:
        movq      %rsi, %rbx                                    #80.1
..LN59:
	.loc    1  84  prologue_end  is_stmt 1
        xorl      %esi, %esi                                    #84.12
..LN60:
        lea       1536(%rsp), %rdx                              #84.12
..LN61:
	.loc    1  80  is_stmt 1
        movq      %rdi, %rbp                                    #80.1
..___tag_value_field_exist.32:
..LN62:
	.loc    1  84  is_stmt 1
#       nc_open(const char *, int, int *)
        call      nc_open                                       #84.12
..___tag_value_field_exist.33:
..LN63:
                                # LOE rbx rbp r12 r13 r14 eax
..B2.17:                        # Preds ..B2.1
..LN64:
        movl      %eax, %r15d                                   #84.12
..LN65:
                                # LOE rbx rbp r12 r13 r14 r15d
..B2.2:                         # Preds ..B2.17
..LN66:
	.loc    1  85  is_stmt 1
        testl     %r15d, %r15d                                  #85.16
..LN67:
        jne       ..B2.11       # Prob 5%                       #85.16
..LN68:
                                # LOE rbx rbp r12 r13 r14 r15d
..B2.3:                         # Preds ..B2.14 ..B2.2
..LN69:
	.loc    1  89  is_stmt 1
        movq      %rbx, %rsi                                    #89.12
..LN70:
        lea       1540(%rsp), %rdx                              #89.12
..LN71:
        movl      -4(%rdx), %edi                                #89.12
..___tag_value_field_exist.34:
..LN72:
#       nc_inq_varid(int, const char *, int *)
        call      nc_inq_varid                                  #89.12
..___tag_value_field_exist.35:
..LN73:
                                # LOE rbp r12 r13 r14 eax
..B2.18:                        # Preds ..B2.3
..LN74:
        movl      %eax, %ebx                                    #89.12
..LN75:
                                # LOE rbp r12 r13 r14 ebx
..B2.4:                         # Preds ..B2.18
..LN76:
	.loc    1  95  is_stmt 1
        movl      1536(%rsp), %edi                              #95.12
..___tag_value_field_exist.36:
..LN77:
#       nc_close(int)
        call      nc_close                                      #95.12
..___tag_value_field_exist.37:
..LN78:
                                # LOE rbp r12 r13 r14 eax ebx
..B2.19:                        # Preds ..B2.4
..LN79:
        movl      %eax, %r15d                                   #95.12
..LN80:
                                # LOE rbp r12 r13 r14 ebx r15d
..B2.5:                         # Preds ..B2.19
..LN81:
	.loc    1  96  is_stmt 1
        testl     %r15d, %r15d                                  #96.16
..LN82:
        jne       ..B2.7        # Prob 5%                       #96.16
..LN83:
                                # LOE rbp r12 r13 r14 ebx r15d
..B2.6:                         # Preds ..B2.10 ..B2.5
..LN84:
	.loc    1  101  is_stmt 1
        movl      $1, %edx                                      #101.10
..LN85:
        xorl      %eax, %eax                                    #101.10
..LN86:
        testl     %ebx, %ebx                                    #101.10
..LN87:
        cmove     %edx, %eax                                    #101.10
..LN88:
	.loc    1  101  epilogue_begin  is_stmt 1
        addq      $1552, %rsp                                   #101.10
	.cfi_def_cfa_offset 32
	.cfi_restore 6
..LN89:
        popq      %rbp                                          #101.10
	.cfi_def_cfa_offset 24
	.cfi_restore 3
..LN90:
        popq      %rbx                                          #101.10
	.cfi_def_cfa_offset 16
	.cfi_restore 15
..LN91:
        popq      %r15                                          #101.10
	.cfi_def_cfa_offset 8
..LN92:
        ret                                                     #101.10
	.cfi_def_cfa_offset 1584
	.cfi_offset 3, -24
	.cfi_offset 6, -32
	.cfi_offset 15, -16
..LN93:
                                # LOE
..B2.7:                         # Preds ..B2.5                  # Infreq
..LN94:
	.loc    1  97  is_stmt 1
        movl      $.L_2__STRING.3, %esi                         #97.5
..LN95:
        lea       (%rsp), %rdi                                  #97.5
..LN96:
        movq      %rbp, %rdx                                    #97.5
..LN97:
        xorl      %eax, %eax                                    #97.5
..LN98:
#       sprintf(char *__restrict__, const char *__restrict__, ...)
        call      sprintf                                       #97.5
..LN99:
                                # LOE r12 r13 r14 ebx r15d
..B2.8:                         # Preds ..B2.7                  # Infreq
..LN100:
	.loc    1  48  is_stmt 1
        movl      %r15d, %edi                                   #48.35
..___tag_value_field_exist.50:
..LN101:
#       nc_strerror(int)
        call      nc_strerror                                   #48.35
..___tag_value_field_exist.51:
..LN102:
                                # LOE rax r12 r13 r14 ebx
..B2.9:                         # Preds ..B2.8                  # Infreq
..LN103:
        movl      $.L_2__STRING.0, %esi                         #48.3
..LN104:
        lea       1024(%rsp), %rdi                              #48.3
..LN105:
        movq      %rax, %rcx                                    #48.3
..LN106:
        lea       (%rsp), %rdx                                  #48.3
..LN107:
        xorl      %eax, %eax                                    #48.3
..LN108:
#       sprintf(char *__restrict__, const char *__restrict__, ...)
        call      sprintf                                       #48.3
..LN109:
                                # LOE r12 r13 r14 ebx
..B2.10:                        # Preds ..B2.9                  # Infreq
..LN110:
	.loc    1  49  is_stmt 1
        lea       1024(%rsp), %rdi                              #49.3
..___tag_value_field_exist.52:
..LN111:
#       error_handler(const char *)
        call      error_handler                                 #49.3
..___tag_value_field_exist.53:
..LN112:
        jmp       ..B2.6        # Prob 100%                     #49.3
..LN113:
                                # LOE r12 r13 r14 ebx
..B2.11:                        # Preds ..B2.2                  # Infreq
..LN114:
	.loc    1  86  is_stmt 1
        movl      $.L_2__STRING.2, %esi                         #86.5
..LN115:
        lea       (%rsp), %rdi                                  #86.5
..LN116:
        movq      %rbp, %rdx                                    #86.5
..LN117:
        xorl      %eax, %eax                                    #86.5
..LN118:
#       sprintf(char *__restrict__, const char *__restrict__, ...)
        call      sprintf                                       #86.5
..LN119:
                                # LOE rbx rbp r12 r13 r14 r15d
..B2.12:                        # Preds ..B2.11                 # Infreq
..LN120:
	.loc    1  48  is_stmt 1
        movl      %r15d, %edi                                   #48.35
..___tag_value_field_exist.54:
..LN121:
#       nc_strerror(int)
        call      nc_strerror                                   #48.35
..___tag_value_field_exist.55:
..LN122:
                                # LOE rax rbx rbp r12 r13 r14
..B2.13:                        # Preds ..B2.12                 # Infreq
..LN123:
        movl      $.L_2__STRING.0, %esi                         #48.3
..LN124:
        lea       512(%rsp), %rdi                               #48.3
..LN125:
        movq      %rax, %rcx                                    #48.3
..LN126:
        lea       (%rsp), %rdx                                  #48.3
..LN127:
        xorl      %eax, %eax                                    #48.3
..LN128:
#       sprintf(char *__restrict__, const char *__restrict__, ...)
        call      sprintf                                       #48.3
..LN129:
                                # LOE rbx rbp r12 r13 r14
..B2.14:                        # Preds ..B2.13                 # Infreq
..LN130:
	.loc    1  49  is_stmt 1
        lea       512(%rsp), %rdi                               #49.3
..___tag_value_field_exist.56:
..LN131:
#       error_handler(const char *)
        call      error_handler                                 #49.3
..___tag_value_field_exist.57:
..LN132:
        jmp       ..B2.3        # Prob 100%                     #49.3
..LN133:
        .align    16,0x90
	.cfi_endproc
..LN134:
                                # LOE rbx rbp r12 r13 r14
..LN135:
# mark_end;
	.type	field_exist,@function
	.size	field_exist,.-field_exist
..LNfield_exist.136:
.LNfield_exist:
	.data
# -- End  field_exist
	.text
.L_2__routine_start_get_dimlen_2:
# -- Begin  get_dimlen
	.text
# mark_begin;
       .align    16,0x90
	.globl get_dimlen
# --- get_dimlen(const char *, const char *)
get_dimlen:
# parameter 1(file): %rdi
# parameter 2(name): %rsi
..B3.1:                         # Preds ..B3.0
	.cfi_startproc
..___tag_value_get_dimlen.62:
..L63:
                                                         #110.1
..LN137:
	.loc    1  110  is_stmt 1
        pushq     %r15                                          #110.1
	.cfi_def_cfa_offset 16
	.cfi_offset 15, -16
..LN138:
        pushq     %rbx                                          #110.1
	.cfi_def_cfa_offset 24
	.cfi_offset 3, -24
..LN139:
        pushq     %rbp                                          #110.1
	.cfi_def_cfa_offset 32
	.cfi_offset 6, -32
..LN140:
        subq      $3088, %rsp                                   #110.1
	.cfi_def_cfa_offset 3120
..LN141:
        movq      %rsi, %rbp                                    #110.1
..LN142:
	.loc    1  115  prologue_end  is_stmt 1
        xorl      %esi, %esi                                    #115.12
..LN143:
        lea       3080(%rsp), %rdx                              #115.12
..LN144:
	.loc    1  110  is_stmt 1
        movq      %rdi, %rbx                                    #110.1
..___tag_value_get_dimlen.72:
..LN145:
	.loc    1  115  is_stmt 1
#       nc_open(const char *, int, int *)
        call      nc_open                                       #115.12
..___tag_value_get_dimlen.73:
..LN146:
                                # LOE rbx rbp r12 r13 r14 eax
..B3.33:                        # Preds ..B3.1
..LN147:
        movl      %eax, %r15d                                   #115.12
..LN148:
                                # LOE rbx rbp r12 r13 r14 r15d
..B3.2:                         # Preds ..B3.33
..LN149:
	.loc    1  116  is_stmt 1
        testl     %r15d, %r15d                                  #116.16
..LN150:
        jne       ..B3.27       # Prob 5%                       #116.16
..LN151:
                                # LOE rbx rbp r12 r13 r14 r15d
..B3.3:                         # Preds ..B3.30 ..B3.2
..LN152:
	.loc    1  121  is_stmt 1
        movq      %rbp, %rsi                                    #121.12
..LN153:
        lea       3084(%rsp), %rdx                              #121.12
..LN154:
        movl      -4(%rdx), %edi                                #121.12
..___tag_value_get_dimlen.74:
..LN155:
#       nc_inq_dimid(int, const char *, int *)
        call      nc_inq_dimid                                  #121.12
..___tag_value_get_dimlen.75:
..LN156:
                                # LOE rbx rbp r12 r13 r14 eax
..B3.34:                        # Preds ..B3.3
..LN157:
        movl      %eax, %r15d                                   #121.12
..LN158:
                                # LOE rbx rbp r12 r13 r14 r15d
..B3.4:                         # Preds ..B3.34
..LN159:
	.loc    1  122  is_stmt 1
        testl     %r15d, %r15d                                  #122.16
..LN160:
        jne       ..B3.23       # Prob 5%                       #122.16
..LN161:
                                # LOE rbx rbp r12 r13 r14 r15d
..B3.5:                         # Preds ..B3.26 ..B3.4
..LN162:
	.loc    1  127  is_stmt 1
        movl      3080(%rsp), %edi                              #127.12
..LN163:
        lea       3072(%rsp), %rdx                              #127.12
..LN164:
        movl      12(%rdx), %esi                                #127.12
..___tag_value_get_dimlen.76:
..LN165:
#       nc_inq_dimlen(int, int, size_t *)
        call      nc_inq_dimlen                                 #127.12
..___tag_value_get_dimlen.77:
..LN166:
                                # LOE rbx rbp r12 r13 r14 eax
..B3.35:                        # Preds ..B3.5
..LN167:
        movl      %eax, %r15d                                   #127.12
..LN168:
                                # LOE rbx rbp r12 r13 r14 r15d
..B3.6:                         # Preds ..B3.35
..LN169:
	.loc    1  128  is_stmt 1
        testl     %r15d, %r15d                                  #128.16
..LN170:
        jne       ..B3.19       # Prob 5%                       #128.16
..LN171:
                                # LOE rbx rbp r12 r13 r14 r15d
..B3.7:                         # Preds ..B3.22 ..B3.6
..LN172:
	.loc    1  132  is_stmt 1
        movl      3080(%rsp), %edi                              #132.12
..___tag_value_get_dimlen.78:
..LN173:
#       nc_close(int)
        call      nc_close                                      #132.12
..___tag_value_get_dimlen.79:
..LN174:
                                # LOE rbx r12 r13 r14 eax
..B3.36:                        # Preds ..B3.7
..LN175:
        movl      %eax, %r15d                                   #132.12
..LN176:
                                # LOE rbx r12 r13 r14 r15d
..B3.8:                         # Preds ..B3.36
..LN177:
	.loc    1  133  is_stmt 1
        testl     %r15d, %r15d                                  #133.16
..LN178:
        jne       ..B3.11       # Prob 5%                       #133.16
..LN179:
                                # LOE rbx r12 r13 r14 r15d
..B3.9:                         # Preds ..B3.8
..LN180:
	.loc    1  138  is_stmt 1
        movl      3072(%rsp), %ebp                              #138.9
..LN181:
                                # LOE r12 r13 r14 ebp
..B3.10:                        # Preds ..B3.9 ..B3.18
..LN182:
	.loc    1  147  is_stmt 1
        movl      %ebp, %eax                                    #147.10
..LN183:
	.loc    1  147  epilogue_begin  is_stmt 1
        addq      $3088, %rsp                                   #147.10
	.cfi_def_cfa_offset 32
	.cfi_restore 6
..LN184:
        popq      %rbp                                          #147.10
	.cfi_def_cfa_offset 24
	.cfi_restore 3
..LN185:
        popq      %rbx                                          #147.10
	.cfi_def_cfa_offset 16
	.cfi_restore 15
..LN186:
        popq      %r15                                          #147.10
	.cfi_def_cfa_offset 8
..LN187:
        ret                                                     #147.10
	.cfi_def_cfa_offset 3120
	.cfi_offset 3, -24
	.cfi_offset 6, -32
	.cfi_offset 15, -16
..LN188:
                                # LOE
..B3.11:                        # Preds ..B3.8                  # Infreq
..LN189:
	.loc    1  134  is_stmt 1
        movl      $.L_2__STRING.7, %esi                         #134.5
..LN190:
        lea       2560(%rsp), %rdi                              #134.5
..LN191:
        movq      %rbx, %rdx                                    #134.5
..LN192:
        xorl      %eax, %eax                                    #134.5
..LN193:
#       sprintf(char *__restrict__, const char *__restrict__, ...)
        call      sprintf                                       #134.5
..LN194:
                                # LOE rbx r12 r13 r14 r15d
..B3.12:                        # Preds ..B3.11                 # Infreq
..LN195:
	.loc    1  48  is_stmt 1
        movl      %r15d, %edi                                   #48.35
..___tag_value_get_dimlen.92:
..LN196:
#       nc_strerror(int)
        call      nc_strerror                                   #48.35
..___tag_value_get_dimlen.93:
..LN197:
                                # LOE rax rbx r12 r13 r14 r15d
..B3.13:                        # Preds ..B3.12                 # Infreq
..LN198:
        movl      $.L_2__STRING.0, %esi                         #48.3
..LN199:
        lea       1536(%rsp), %rdi                              #48.3
..LN200:
        movq      %rax, %rcx                                    #48.3
..LN201:
        lea       2560(%rsp), %rdx                              #48.3
..LN202:
        xorl      %eax, %eax                                    #48.3
..LN203:
#       sprintf(char *__restrict__, const char *__restrict__, ...)
        call      sprintf                                       #48.3
..LN204:
                                # LOE rbx r12 r13 r14 r15d
..B3.14:                        # Preds ..B3.13                 # Infreq
..LN205:
	.loc    1  49  is_stmt 1
        lea       1536(%rsp), %rdi                              #49.3
..___tag_value_get_dimlen.94:
..LN206:
#       error_handler(const char *)
        call      error_handler                                 #49.3
..___tag_value_get_dimlen.95:
..LN207:
                                # LOE rbx r12 r13 r14 r15d
..B3.15:                        # Preds ..B3.14                 # Infreq
..LN208:
	.loc    1  140  is_stmt 1
        movl      $.L_2__STRING.8, %esi                         #140.5
..LN209:
        lea       2560(%rsp), %rdi                              #140.5
..LN210:
        movq      %rbx, %rdx                                    #140.5
..LN211:
        xorl      %eax, %eax                                    #140.5
..LN212:
	.loc    1  138  is_stmt 1
        movl      512(%rdi), %ebp                               #138.9
..LN213:
	.loc    1  140  is_stmt 1
#       sprintf(char *__restrict__, const char *__restrict__, ...)
        call      sprintf                                       #140.5
..LN214:
                                # LOE r12 r13 r14 ebp r15d
..B3.16:                        # Preds ..B3.15                 # Infreq
..LN215:
	.loc    1  48  is_stmt 1
        movl      %r15d, %edi                                   #48.35
..___tag_value_get_dimlen.96:
..LN216:
#       nc_strerror(int)
        call      nc_strerror                                   #48.35
..___tag_value_get_dimlen.97:
..LN217:
                                # LOE rax r12 r13 r14 ebp
..B3.17:                        # Preds ..B3.16                 # Infreq
..LN218:
        movl      $.L_2__STRING.0, %esi                         #48.3
..LN219:
        lea       2048(%rsp), %rdi                              #48.3
..LN220:
        movq      %rax, %rcx                                    #48.3
..LN221:
        lea       2560(%rsp), %rdx                              #48.3
..LN222:
        xorl      %eax, %eax                                    #48.3
..LN223:
#       sprintf(char *__restrict__, const char *__restrict__, ...)
        call      sprintf                                       #48.3
..LN224:
                                # LOE r12 r13 r14 ebp
..B3.18:                        # Preds ..B3.17                 # Infreq
..LN225:
	.loc    1  49  is_stmt 1
        lea       2048(%rsp), %rdi                              #49.3
..___tag_value_get_dimlen.98:
..LN226:
#       error_handler(const char *)
        call      error_handler                                 #49.3
..___tag_value_get_dimlen.99:
..LN227:
        jmp       ..B3.10       # Prob 100%                     #49.3
..LN228:
                                # LOE r12 r13 r14 ebp
..B3.19:                        # Preds ..B3.6                  # Infreq
..LN229:
	.loc    1  129  is_stmt 1
        movl      $.L_2__STRING.6, %esi                         #129.5
..LN230:
        lea       2560(%rsp), %rdi                              #129.5
..LN231:
        movq      %rbp, %rdx                                    #129.5
..LN232:
        movq      %rbx, %rcx                                    #129.5
..LN233:
        xorl      %eax, %eax                                    #129.5
..LN234:
#       sprintf(char *__restrict__, const char *__restrict__, ...)
        call      sprintf                                       #129.5
..LN235:
                                # LOE rbx r12 r13 r14 r15d
..B3.20:                        # Preds ..B3.19                 # Infreq
..LN236:
	.loc    1  48  is_stmt 1
        movl      %r15d, %edi                                   #48.35
..___tag_value_get_dimlen.100:
..LN237:
#       nc_strerror(int)
        call      nc_strerror                                   #48.35
..___tag_value_get_dimlen.101:
..LN238:
                                # LOE rax rbx r12 r13 r14
..B3.21:                        # Preds ..B3.20                 # Infreq
..LN239:
        movl      $.L_2__STRING.0, %esi                         #48.3
..LN240:
        lea       1024(%rsp), %rdi                              #48.3
..LN241:
        movq      %rax, %rcx                                    #48.3
..LN242:
        lea       2560(%rsp), %rdx                              #48.3
..LN243:
        xorl      %eax, %eax                                    #48.3
..LN244:
#       sprintf(char *__restrict__, const char *__restrict__, ...)
        call      sprintf                                       #48.3
..LN245:
                                # LOE rbx r12 r13 r14
..B3.22:                        # Preds ..B3.21                 # Infreq
..LN246:
	.loc    1  49  is_stmt 1
        lea       1024(%rsp), %rdi                              #49.3
..___tag_value_get_dimlen.102:
..LN247:
#       error_handler(const char *)
        call      error_handler                                 #49.3
..___tag_value_get_dimlen.103:
..LN248:
        jmp       ..B3.7        # Prob 100%                     #49.3
..LN249:
                                # LOE rbx r12 r13 r14
..B3.23:                        # Preds ..B3.4                  # Infreq
..LN250:
	.loc    1  123  is_stmt 1
        movl      $.L_2__STRING.5, %esi                         #123.5
..LN251:
        lea       2560(%rsp), %rdi                              #123.5
..LN252:
        movq      %rbp, %rdx                                    #123.5
..LN253:
        movq      %rbx, %rcx                                    #123.5
..LN254:
        xorl      %eax, %eax                                    #123.5
..LN255:
#       sprintf(char *__restrict__, const char *__restrict__, ...)
        call      sprintf                                       #123.5
..LN256:
                                # LOE rbx rbp r12 r13 r14 r15d
..B3.24:                        # Preds ..B3.23                 # Infreq
..LN257:
	.loc    1  48  is_stmt 1
        movl      %r15d, %edi                                   #48.35
..___tag_value_get_dimlen.104:
..LN258:
#       nc_strerror(int)
        call      nc_strerror                                   #48.35
..___tag_value_get_dimlen.105:
..LN259:
                                # LOE rax rbx rbp r12 r13 r14
..B3.25:                        # Preds ..B3.24                 # Infreq
..LN260:
        movl      $.L_2__STRING.0, %esi                         #48.3
..LN261:
        lea       512(%rsp), %rdi                               #48.3
..LN262:
        movq      %rax, %rcx                                    #48.3
..LN263:
        lea       2560(%rsp), %rdx                              #48.3
..LN264:
        xorl      %eax, %eax                                    #48.3
..LN265:
#       sprintf(char *__restrict__, const char *__restrict__, ...)
        call      sprintf                                       #48.3
..LN266:
                                # LOE rbx rbp r12 r13 r14
..B3.26:                        # Preds ..B3.25                 # Infreq
..LN267:
	.loc    1  49  is_stmt 1
        lea       512(%rsp), %rdi                               #49.3
..___tag_value_get_dimlen.106:
..LN268:
#       error_handler(const char *)
        call      error_handler                                 #49.3
..___tag_value_get_dimlen.107:
..LN269:
        jmp       ..B3.5        # Prob 100%                     #49.3
..LN270:
                                # LOE rbx rbp r12 r13 r14
..B3.27:                        # Preds ..B3.2                  # Infreq
..LN271:
	.loc    1  117  is_stmt 1
        movl      $.L_2__STRING.4, %esi                         #117.5
..LN272:
        lea       2560(%rsp), %rdi                              #117.5
..LN273:
        movq      %rbx, %rdx                                    #117.5
..LN274:
        xorl      %eax, %eax                                    #117.5
..LN275:
#       sprintf(char *__restrict__, const char *__restrict__, ...)
        call      sprintf                                       #117.5
..LN276:
                                # LOE rbx rbp r12 r13 r14 r15d
..B3.28:                        # Preds ..B3.27                 # Infreq
..LN277:
	.loc    1  48  is_stmt 1
        movl      %r15d, %edi                                   #48.35
..___tag_value_get_dimlen.108:
..LN278:
#       nc_strerror(int)
        call      nc_strerror                                   #48.35
..___tag_value_get_dimlen.109:
..LN279:
                                # LOE rax rbx rbp r12 r13 r14
..B3.29:                        # Preds ..B3.28                 # Infreq
..LN280:
        movl      $.L_2__STRING.0, %esi                         #48.3
..LN281:
        lea       (%rsp), %rdi                                  #48.3
..LN282:
        movq      %rax, %rcx                                    #48.3
..LN283:
        lea       2560(%rsp), %rdx                              #48.3
..LN284:
        xorl      %eax, %eax                                    #48.3
..LN285:
#       sprintf(char *__restrict__, const char *__restrict__, ...)
        call      sprintf                                       #48.3
..LN286:
                                # LOE rbx rbp r12 r13 r14
..B3.30:                        # Preds ..B3.29                 # Infreq
..LN287:
	.loc    1  49  is_stmt 1
        lea       (%rsp), %rdi                                  #49.3
..___tag_value_get_dimlen.110:
..LN288:
#       error_handler(const char *)
        call      error_handler                                 #49.3
..___tag_value_get_dimlen.111:
..LN289:
        jmp       ..B3.3        # Prob 100%                     #49.3
..LN290:
        .align    16,0x90
	.cfi_endproc
..LN291:
                                # LOE rbx rbp r12 r13 r14
..LN292:
# mark_end;
	.type	get_dimlen,@function
	.size	get_dimlen,.-get_dimlen
..LNget_dimlen.293:
.LNget_dimlen:
	.data
	.file   2 "/opt/intel/compilers_and_libraries_2016.3.210/linux/compiler/include/stddef.h"
# -- End  get_dimlen
	.text
.L_2__routine_start_get_string_data_3:
# -- Begin  get_string_data
	.text
# mark_begin;
       .align    16,0x90
	.globl get_string_data
# --- get_string_data(const char *, const char *, char *)
get_string_data:
# parameter 1(file): %rdi
# parameter 2(name): %rsi
# parameter 3(data): %rdx
..B4.1:                         # Preds ..B4.0
	.cfi_startproc
..___tag_value_get_string_data.116:
..L117:
                                                        #156.1
..LN294:
	.loc    1  156  is_stmt 1
        pushq     %r14                                          #156.1
	.cfi_def_cfa_offset 16
	.cfi_offset 14, -16
..LN295:
        pushq     %r15                                          #156.1
	.cfi_def_cfa_offset 24
	.cfi_offset 15, -24
..LN296:
        pushq     %rbx                                          #156.1
	.cfi_def_cfa_offset 32
	.cfi_offset 3, -32
..LN297:
        pushq     %rbp                                          #156.1
	.cfi_def_cfa_offset 40
	.cfi_offset 6, -40
..LN298:
        subq      $2568, %rsp                                   #156.1
	.cfi_def_cfa_offset 2608
..LN299:
        movq      %rdx, %rbx                                    #156.1
..LN300:
        movq      %rsi, %r14                                    #156.1
..LN301:
	.loc    1  160  prologue_end  is_stmt 1
        xorl      %esi, %esi                                    #160.12
..LN302:
	.loc    1  156  is_stmt 1
        movq      %rdi, %rbp                                    #156.1
..LN303:
	.loc    1  160  is_stmt 1
        lea       2560(%rsp), %rdx                              #160.12
..___tag_value_get_string_data.128:
..LN304:
#       nc_open(const char *, int, int *)
        call      nc_open                                       #160.12
..___tag_value_get_string_data.129:
..LN305:
                                # LOE rbx rbp r12 r13 r14 eax
..B4.28:                        # Preds ..B4.1
..LN306:
        movl      %eax, %r15d                                   #160.12
..LN307:
                                # LOE rbx rbp r12 r13 r14 r15d
..B4.2:                         # Preds ..B4.28
..LN308:
	.loc    1  161  is_stmt 1
        testl     %r15d, %r15d                                  #161.16
..LN309:
        jne       ..B4.22       # Prob 5%                       #161.16
..LN310:
                                # LOE rbx rbp r12 r13 r14 r15d
..B4.3:                         # Preds ..B4.25 ..B4.2
..LN311:
	.loc    1  165  is_stmt 1
        movq      %r14, %rsi                                    #165.12
..LN312:
        lea       2564(%rsp), %rdx                              #165.12
..LN313:
        movl      -4(%rdx), %edi                                #165.12
..___tag_value_get_string_data.130:
..LN314:
#       nc_inq_varid(int, const char *, int *)
        call      nc_inq_varid                                  #165.12
..___tag_value_get_string_data.131:
..LN315:
                                # LOE rbx rbp r12 r13 r14 eax
..B4.29:                        # Preds ..B4.3
..LN316:
        movl      %eax, %r15d                                   #165.12
..LN317:
                                # LOE rbx rbp r12 r13 r14 r15d
..B4.4:                         # Preds ..B4.29
..LN318:
	.loc    1  166  is_stmt 1
        testl     %r15d, %r15d                                  #166.16
..LN319:
        jne       ..B4.18       # Prob 5%                       #166.16
..LN320:
                                # LOE rbx rbp r12 r13 r14 r15d
..B4.5:                         # Preds ..B4.21 ..B4.4
..LN321:
	.loc    1  170  is_stmt 1
        movq      %rbx, %rdx                                    #170.12
..LN322:
        movl      2560(%rsp), %edi                              #170.12
..LN323:
        movl      2564(%rsp), %esi                              #170.12
..___tag_value_get_string_data.132:
..LN324:
#       nc_get_var_text(int, int, char *)
        call      nc_get_var_text                               #170.12
..___tag_value_get_string_data.133:
..LN325:
                                # LOE rbp r12 r13 r14 eax
..B4.30:                        # Preds ..B4.5
..LN326:
        movl      %eax, %ebx                                    #170.12
..LN327:
                                # LOE rbp r12 r13 r14 ebx
..B4.6:                         # Preds ..B4.30
..LN328:
	.loc    1  171  is_stmt 1
        testl     %ebx, %ebx                                    #171.16
..LN329:
        jne       ..B4.14       # Prob 5%                       #171.16
..LN330:
                                # LOE rbp r12 r13 r14 ebx
..B4.7:                         # Preds ..B4.17 ..B4.6
..LN331:
	.loc    1  175  is_stmt 1
        movl      2560(%rsp), %edi                              #175.12
..___tag_value_get_string_data.134:
..LN332:
#       nc_close(int)
        call      nc_close                                      #175.12
..___tag_value_get_string_data.135:
..LN333:
                                # LOE rbp r12 r13 eax
..B4.31:                        # Preds ..B4.7
..LN334:
        movl      %eax, %ebx                                    #175.12
..LN335:
                                # LOE rbp r12 r13 ebx
..B4.8:                         # Preds ..B4.31
..LN336:
	.loc    1  176  is_stmt 1
        testl     %ebx, %ebx                                    #176.16
..LN337:
        jne       ..B4.10       # Prob 5%                       #176.16
..LN338:
                                # LOE rbp r12 r13 ebx
..B4.9:                         # Preds ..B4.8
..LN339:
	.loc    1  184  epilogue_begin  is_stmt 1
        addq      $2568, %rsp                                   #184.1
	.cfi_def_cfa_offset 40
	.cfi_restore 6
..LN340:
        popq      %rbp                                          #184.1
	.cfi_def_cfa_offset 32
	.cfi_restore 3
..LN341:
        popq      %rbx                                          #184.1
	.cfi_def_cfa_offset 24
	.cfi_restore 15
..LN342:
        popq      %r15                                          #184.1
	.cfi_def_cfa_offset 16
	.cfi_restore 14
..LN343:
        popq      %r14                                          #184.1
	.cfi_def_cfa_offset 8
..LN344:
        ret                                                     #184.1
	.cfi_def_cfa_offset 2608
	.cfi_offset 3, -32
	.cfi_offset 6, -40
	.cfi_offset 14, -16
	.cfi_offset 15, -24
..LN345:
                                # LOE
..B4.10:                        # Preds ..B4.8                  # Infreq
..LN346:
	.loc    1  177  is_stmt 1
        movl      $.L_2__STRING.7, %esi                         #177.5
..LN347:
        lea       (%rsp), %rdi                                  #177.5
..LN348:
        movq      %rbp, %rdx                                    #177.5
..LN349:
        xorl      %eax, %eax                                    #177.5
..LN350:
#       sprintf(char *__restrict__, const char *__restrict__, ...)
        call      sprintf                                       #177.5
..LN351:
                                # LOE r12 r13 ebx
..B4.11:                        # Preds ..B4.10                 # Infreq
..LN352:
	.loc    1  48  is_stmt 1
        movl      %ebx, %edi                                    #48.35
..___tag_value_get_string_data.151:
..LN353:
#       nc_strerror(int)
        call      nc_strerror                                   #48.35
..___tag_value_get_string_data.152:
..LN354:
                                # LOE rax r12 r13
..B4.12:                        # Preds ..B4.11                 # Infreq
..LN355:
        movl      $.L_2__STRING.0, %esi                         #48.3
..LN356:
        lea       2048(%rsp), %rdi                              #48.3
..LN357:
        movq      %rax, %rcx                                    #48.3
..LN358:
        lea       (%rsp), %rdx                                  #48.3
..LN359:
        xorl      %eax, %eax                                    #48.3
..LN360:
#       sprintf(char *__restrict__, const char *__restrict__, ...)
        call      sprintf                                       #48.3
..LN361:
                                # LOE r12 r13
..B4.13:                        # Preds ..B4.12                 # Infreq
..LN362:
	.loc    1  49  is_stmt 1
        lea       2048(%rsp), %rdi                              #49.3
..___tag_value_get_string_data.153:
..LN363:
#       error_handler(const char *)
        call      error_handler                                 #49.3
..___tag_value_get_string_data.154:
..LN364:
	.loc    1  49  epilogue_begin  is_stmt 1
        addq      $2568, %rsp                                   #49.3
	.cfi_def_cfa_offset 40
	.cfi_restore 6
..LN365:
        popq      %rbp                                          #49.3
	.cfi_def_cfa_offset 32
	.cfi_restore 3
..LN366:
        popq      %rbx                                          #49.3
	.cfi_def_cfa_offset 24
	.cfi_restore 15
..LN367:
        popq      %r15                                          #49.3
	.cfi_def_cfa_offset 16
	.cfi_restore 14
..LN368:
        popq      %r14                                          #49.3
	.cfi_def_cfa_offset 8
..LN369:
        ret                                                     #49.3
	.cfi_def_cfa_offset 2608
	.cfi_offset 3, -32
	.cfi_offset 6, -40
	.cfi_offset 14, -16
	.cfi_offset 15, -24
..LN370:
                                # LOE r12 r13
..B4.14:                        # Preds ..B4.6                  # Infreq
..LN371:
	.loc    1  172  is_stmt 1
        movl      $.L_2__STRING.10, %esi                        #172.5
..LN372:
        lea       (%rsp), %rdi                                  #172.5
..LN373:
        movq      %r14, %rdx                                    #172.5
..LN374:
        movq      %rbp, %rcx                                    #172.5
..LN375:
        xorl      %eax, %eax                                    #172.5
..LN376:
#       sprintf(char *__restrict__, const char *__restrict__, ...)
        call      sprintf                                       #172.5
..LN377:
                                # LOE rbp r12 r13 ebx
..B4.15:                        # Preds ..B4.14                 # Infreq
..LN378:
	.loc    1  48  is_stmt 1
        movl      %ebx, %edi                                    #48.35
..___tag_value_get_string_data.170:
..LN379:
#       nc_strerror(int)
        call      nc_strerror                                   #48.35
..___tag_value_get_string_data.171:
..LN380:
                                # LOE rax rbp r12 r13
..B4.16:                        # Preds ..B4.15                 # Infreq
..LN381:
        movl      $.L_2__STRING.0, %esi                         #48.3
..LN382:
        lea       1536(%rsp), %rdi                              #48.3
..LN383:
        movq      %rax, %rcx                                    #48.3
..LN384:
        lea       (%rsp), %rdx                                  #48.3
..LN385:
        xorl      %eax, %eax                                    #48.3
..LN386:
#       sprintf(char *__restrict__, const char *__restrict__, ...)
        call      sprintf                                       #48.3
..LN387:
                                # LOE rbp r12 r13
..B4.17:                        # Preds ..B4.16                 # Infreq
..LN388:
	.loc    1  49  is_stmt 1
        lea       1536(%rsp), %rdi                              #49.3
..___tag_value_get_string_data.172:
..LN389:
#       error_handler(const char *)
        call      error_handler                                 #49.3
..___tag_value_get_string_data.173:
..LN390:
        jmp       ..B4.7        # Prob 100%                     #49.3
..LN391:
                                # LOE rbp r12 r13
..B4.18:                        # Preds ..B4.4                  # Infreq
..LN392:
	.loc    1  167  is_stmt 1
        movl      $.L_2__STRING.9, %esi                         #167.5
..LN393:
        lea       (%rsp), %rdi                                  #167.5
..LN394:
        movq      %r14, %rdx                                    #167.5
..LN395:
        movq      %rbp, %rcx                                    #167.5
..LN396:
        xorl      %eax, %eax                                    #167.5
..LN397:
#       sprintf(char *__restrict__, const char *__restrict__, ...)
        call      sprintf                                       #167.5
..LN398:
                                # LOE rbx rbp r12 r13 r14 r15d
..B4.19:                        # Preds ..B4.18                 # Infreq
..LN399:
	.loc    1  48  is_stmt 1
        movl      %r15d, %edi                                   #48.35
..___tag_value_get_string_data.174:
..LN400:
#       nc_strerror(int)
        call      nc_strerror                                   #48.35
..___tag_value_get_string_data.175:
..LN401:
                                # LOE rax rbx rbp r12 r13 r14
..B4.20:                        # Preds ..B4.19                 # Infreq
..LN402:
        movl      $.L_2__STRING.0, %esi                         #48.3
..LN403:
        lea       1024(%rsp), %rdi                              #48.3
..LN404:
        movq      %rax, %rcx                                    #48.3
..LN405:
        lea       (%rsp), %rdx                                  #48.3
..LN406:
        xorl      %eax, %eax                                    #48.3
..LN407:
#       sprintf(char *__restrict__, const char *__restrict__, ...)
        call      sprintf                                       #48.3
..LN408:
                                # LOE rbx rbp r12 r13 r14
..B4.21:                        # Preds ..B4.20                 # Infreq
..LN409:
	.loc    1  49  is_stmt 1
        lea       1024(%rsp), %rdi                              #49.3
..___tag_value_get_string_data.176:
..LN410:
#       error_handler(const char *)
        call      error_handler                                 #49.3
..___tag_value_get_string_data.177:
..LN411:
        jmp       ..B4.5        # Prob 100%                     #49.3
..LN412:
                                # LOE rbx rbp r12 r13 r14
..B4.22:                        # Preds ..B4.2                  # Infreq
..LN413:
	.loc    1  162  is_stmt 1
        movl      $.L_2__STRING.4, %esi                         #162.5
..LN414:
        lea       (%rsp), %rdi                                  #162.5
..LN415:
        movq      %rbp, %rdx                                    #162.5
..LN416:
        xorl      %eax, %eax                                    #162.5
..LN417:
#       sprintf(char *__restrict__, const char *__restrict__, ...)
        call      sprintf                                       #162.5
..LN418:
                                # LOE rbx rbp r12 r13 r14 r15d
..B4.23:                        # Preds ..B4.22                 # Infreq
..LN419:
	.loc    1  48  is_stmt 1
        movl      %r15d, %edi                                   #48.35
..___tag_value_get_string_data.178:
..LN420:
#       nc_strerror(int)
        call      nc_strerror                                   #48.35
..___tag_value_get_string_data.179:
..LN421:
                                # LOE rax rbx rbp r12 r13 r14
..B4.24:                        # Preds ..B4.23                 # Infreq
..LN422:
        movl      $.L_2__STRING.0, %esi                         #48.3
..LN423:
        lea       512(%rsp), %rdi                               #48.3
..LN424:
        movq      %rax, %rcx                                    #48.3
..LN425:
        lea       (%rsp), %rdx                                  #48.3
..LN426:
        xorl      %eax, %eax                                    #48.3
..LN427:
#       sprintf(char *__restrict__, const char *__restrict__, ...)
        call      sprintf                                       #48.3
..LN428:
                                # LOE rbx rbp r12 r13 r14
..B4.25:                        # Preds ..B4.24                 # Infreq
..LN429:
	.loc    1  49  is_stmt 1
        lea       512(%rsp), %rdi                               #49.3
..___tag_value_get_string_data.180:
..LN430:
#       error_handler(const char *)
        call      error_handler                                 #49.3
..___tag_value_get_string_data.181:
..LN431:
        jmp       ..B4.3        # Prob 100%                     #49.3
..LN432:
        .align    16,0x90
	.cfi_endproc
..LN433:
                                # LOE rbx rbp r12 r13 r14
..LN434:
# mark_end;
	.type	get_string_data,@function
	.size	get_string_data,.-get_string_data
..LNget_string_data.435:
.LNget_string_data:
	.data
# -- End  get_string_data
	.text
.L_2__routine_start_get_string_data_level_4:
# -- Begin  get_string_data_level
	.text
# mark_begin;
       .align    16,0x90
	.globl get_string_data_level
# --- get_string_data_level(const char *, const char *, char *, const int *)
get_string_data_level:
# parameter 1(file): %rdi
# parameter 2(name): %rsi
# parameter 3(data): %rdx
# parameter 4(level): %rcx
..B5.1:                         # Preds ..B5.0
	.cfi_startproc
..___tag_value_get_string_data_level.186:
..L187:
                                                        #191.1
..LN436:
	.loc    1  191  is_stmt 1
        pushq     %rbp                                          #191.1
	.cfi_def_cfa_offset 16
..LN437:
        movq      %rsp, %rbp                                    #191.1
	.cfi_def_cfa 6, 16
	.cfi_offset 6, -16
..LN438:
        andq      $-32, %rsp                                    #191.1
..LN439:
        pushq     %r12                                          #191.1
..LN440:
        pushq     %r13                                          #191.1
..LN441:
        pushq     %r14                                          #191.1
..LN442:
        pushq     %r15                                          #191.1
..LN443:
        pushq     %rbx                                          #191.1
..LN444:
        subq      $2648, %rsp                                   #191.1
	.cfi_escape 0x10, 0x03, 0x0e, 0x38, 0x1c, 0x0d, 0xe0, 0xff, 0xff, 0xff, 0x1a, 0x0d, 0xd8, 0xff, 0xff, 0xff, 0x22
	.cfi_escape 0x10, 0x0c, 0x0e, 0x38, 0x1c, 0x0d, 0xe0, 0xff, 0xff, 0xff, 0x1a, 0x0d, 0xf8, 0xff, 0xff, 0xff, 0x22
	.cfi_escape 0x10, 0x0d, 0x0e, 0x38, 0x1c, 0x0d, 0xe0, 0xff, 0xff, 0xff, 0x1a, 0x0d, 0xf0, 0xff, 0xff, 0xff, 0x22
	.cfi_escape 0x10, 0x0e, 0x0e, 0x38, 0x1c, 0x0d, 0xe0, 0xff, 0xff, 0xff, 0x1a, 0x0d, 0xe8, 0xff, 0xff, 0xff, 0x22
	.cfi_escape 0x10, 0x0f, 0x0e, 0x38, 0x1c, 0x0d, 0xe0, 0xff, 0xff, 0xff, 0x1a, 0x0d, 0xe0, 0xff, 0xff, 0xff, 0x22
..LN445:
        movq      %rdx, %r12                                    #191.1
..LN446:
        movq      %rsi, %r14                                    #191.1
..LN447:
	.loc    1  196  prologue_end  is_stmt 1
        xorl      %esi, %esi                                    #196.12
..LN448:
	.loc    1  191  is_stmt 1
        movq      %rcx, %rbx                                    #191.1
..LN449:
	.loc    1  196  is_stmt 1
        lea       2624(%rsp), %rdx                              #196.12
..LN450:
	.loc    1  191  is_stmt 1
        movq      %rdi, %r13                                    #191.1
..___tag_value_get_string_data_level.197:
..LN451:
	.loc    1  196  is_stmt 1
#       nc_open(const char *, int, int *)
        call      nc_open                                       #196.12
..___tag_value_get_string_data_level.198:
..LN452:
                                # LOE rbx r12 r13 r14 eax
..B5.28:                        # Preds ..B5.1
..LN453:
        movl      %eax, %r15d                                   #196.12
..LN454:
                                # LOE rbx r12 r13 r14 r15d
..B5.2:                         # Preds ..B5.28
..LN455:
	.loc    1  197  is_stmt 1
        testl     %r15d, %r15d                                  #197.16
..LN456:
        jne       ..B5.22       # Prob 5%                       #197.16
..LN457:
                                # LOE rbx r12 r13 r14 r15d
..B5.3:                         # Preds ..B5.25 ..B5.2
..LN458:
	.loc    1  201  is_stmt 1
        movq      %r14, %rsi                                    #201.12
..LN459:
        lea       2628(%rsp), %rdx                              #201.12
..LN460:
        movl      -4(%rdx), %edi                                #201.12
..___tag_value_get_string_data_level.199:
..LN461:
#       nc_inq_varid(int, const char *, int *)
        call      nc_inq_varid                                  #201.12
..___tag_value_get_string_data_level.200:
..LN462:
                                # LOE rbx r12 r13 r14 eax
..B5.29:                        # Preds ..B5.3
..LN463:
        movl      %eax, %r15d                                   #201.12
..LN464:
                                # LOE rbx r12 r13 r14 r15d
..B5.4:                         # Preds ..B5.29
..LN465:
	.loc    1  202  is_stmt 1
        testl     %r15d, %r15d                                  #202.16
..LN466:
        jne       ..B5.18       # Prob 5%                       #202.16
..LN467:
                                # LOE rbx r12 r13 r14 r15d
..B5.5:                         # Preds ..B5.21 ..B5.4
..L201:         # optimization report
                # LOOP WAS COMPLETELY UNROLLED BY 1
                # LOOP WAS VECTORIZED
                # VECTORIZATION SPEEDUP COEFFECIENT 2.667969
                # LOOP HAS ONE VECTOR ITERATION
                # VECTOR LENGTH 4
                # MAIN VECTOR TYPE: 64-bits integer
..LN468:
	.loc    1  210  is_stmt 1
        lea       2560(%rsp), %rdx                              #210.12
..LN469:
	.loc    1  207  is_stmt 1
        vmovdqu   .L_2il0floatpacket.0(%rip), %ymm1             #207.30
..LN470:
	.loc    1  210  is_stmt 1
        lea       2592(%rsp), %rcx                              #210.12
..LN471:
	.loc    1  207  is_stmt 1
        vpxor     %ymm0, %ymm0, %ymm0                           #207.5
..LN472:
        vmovdqu   %ymm1, 32(%rdx)                               #207.19
..LN473:
        vmovdqu   %ymm0, (%rdx)                                 #207.5
..LN474:
	.loc    1  209  is_stmt 1
        movslq    (%rbx), %rax                                  #209.15
..LN475:
	.loc    1  210  is_stmt 1
        movq      %r12, %r8                                     #210.12
..LN476:
        movl      64(%rdx), %edi                                #210.12
..LN477:
        movl      68(%rdx), %esi                                #210.12
..LN478:
	.loc    1  209  is_stmt 1
        movq      %rax, (%rdx)                                  #209.3
..LN479:
        movq      $255, 40(%rdx)                                #209.22
..LN480:
	.loc    1  210  is_stmt 1
        vzeroupper                                              #210.12
..___tag_value_get_string_data_level.202:
..LN481:
#       nc_get_vara_text(int, int, const size_t *, const size_t *, char *)
        call      nc_get_vara_text                              #210.12
..___tag_value_get_string_data_level.203:
..LN482:
                                # LOE r13 r14 eax
..B5.30:                        # Preds ..B5.5
..LN483:
        movl      %eax, %ebx                                    #210.12
..LN484:
                                # LOE r13 r14 ebx
..B5.6:                         # Preds ..B5.30
..LN485:
	.loc    1  211  is_stmt 1
        testl     %ebx, %ebx                                    #211.16
..LN486:
        jne       ..B5.14       # Prob 5%                       #211.16
..LN487:
                                # LOE r13 r14 ebx
..B5.7:                         # Preds ..B5.17 ..B5.6
..LN488:
	.loc    1  215  is_stmt 1
        movl      2624(%rsp), %edi                              #215.12
..___tag_value_get_string_data_level.204:
..LN489:
#       nc_close(int)
        call      nc_close                                      #215.12
..___tag_value_get_string_data_level.205:
..LN490:
                                # LOE r13 eax
..B5.31:                        # Preds ..B5.7
..LN491:
        movl      %eax, %ebx                                    #215.12
..LN492:
                                # LOE r13 ebx
..B5.8:                         # Preds ..B5.31
..LN493:
	.loc    1  216  is_stmt 1
        testl     %ebx, %ebx                                    #216.16
..LN494:
        jne       ..B5.10       # Prob 5%                       #216.16
..LN495:
                                # LOE r13 ebx
..B5.9:                         # Preds ..B5.8
..LN496:
	.loc    1  224  epilogue_begin  is_stmt 1
        addq      $2648, %rsp                                   #224.1
	.cfi_restore 3
..LN497:
        popq      %rbx                                          #224.1
	.cfi_restore 15
..LN498:
        popq      %r15                                          #224.1
	.cfi_restore 14
..LN499:
        popq      %r14                                          #224.1
	.cfi_restore 13
..LN500:
        popq      %r13                                          #224.1
	.cfi_restore 12
..LN501:
        popq      %r12                                          #224.1
..LN502:
        movq      %rbp, %rsp                                    #224.1
..LN503:
        popq      %rbp                                          #224.1
	.cfi_def_cfa 7, 8
	.cfi_restore 6
..LN504:
        ret                                                     #224.1
	.cfi_def_cfa 6, 16
	.cfi_escape 0x10, 0x03, 0x0e, 0x38, 0x1c, 0x0d, 0xe0, 0xff, 0xff, 0xff, 0x1a, 0x0d, 0xd8, 0xff, 0xff, 0xff, 0x22
	.cfi_offset 6, -16
	.cfi_escape 0x10, 0x0c, 0x0e, 0x38, 0x1c, 0x0d, 0xe0, 0xff, 0xff, 0xff, 0x1a, 0x0d, 0xf8, 0xff, 0xff, 0xff, 0x22
	.cfi_escape 0x10, 0x0d, 0x0e, 0x38, 0x1c, 0x0d, 0xe0, 0xff, 0xff, 0xff, 0x1a, 0x0d, 0xf0, 0xff, 0xff, 0xff, 0x22
	.cfi_escape 0x10, 0x0e, 0x0e, 0x38, 0x1c, 0x0d, 0xe0, 0xff, 0xff, 0xff, 0x1a, 0x0d, 0xe8, 0xff, 0xff, 0xff, 0x22
	.cfi_escape 0x10, 0x0f, 0x0e, 0x38, 0x1c, 0x0d, 0xe0, 0xff, 0xff, 0xff, 0x1a, 0x0d, 0xe0, 0xff, 0xff, 0xff, 0x22
..LN505:
                                # LOE
..B5.10:                        # Preds ..B5.8                  # Infreq
..LN506:
	.loc    1  217  is_stmt 1
        movl      $.L_2__STRING.7, %esi                         #217.5
..LN507:
        lea       (%rsp), %rdi                                  #217.5
..LN508:
        movq      %r13, %rdx                                    #217.5
..LN509:
        xorl      %eax, %eax                                    #217.5
..LN510:
#       sprintf(char *__restrict__, const char *__restrict__, ...)
        call      sprintf                                       #217.5
..LN511:
                                # LOE ebx
..B5.11:                        # Preds ..B5.10                 # Infreq
..LN512:
	.loc    1  48  is_stmt 1
        movl      %ebx, %edi                                    #48.35
..___tag_value_get_string_data_level.221:
..LN513:
#       nc_strerror(int)
        call      nc_strerror                                   #48.35
..___tag_value_get_string_data_level.222:
..LN514:
                                # LOE rax
..B5.12:                        # Preds ..B5.11                 # Infreq
..LN515:
        movl      $.L_2__STRING.0, %esi                         #48.3
..LN516:
        lea       2048(%rsp), %rdi                              #48.3
..LN517:
        movq      %rax, %rcx                                    #48.3
..LN518:
        lea       (%rsp), %rdx                                  #48.3
..LN519:
        xorl      %eax, %eax                                    #48.3
..LN520:
#       sprintf(char *__restrict__, const char *__restrict__, ...)
        call      sprintf                                       #48.3
..LN521:
                                # LOE
..B5.13:                        # Preds ..B5.12                 # Infreq
..LN522:
	.loc    1  49  is_stmt 1
        lea       2048(%rsp), %rdi                              #49.3
..___tag_value_get_string_data_level.223:
..LN523:
#       error_handler(const char *)
        call      error_handler                                 #49.3
..___tag_value_get_string_data_level.224:
..LN524:
	.loc    1  49  epilogue_begin  is_stmt 1
        addq      $2648, %rsp                                   #49.3
	.cfi_restore 3
..LN525:
        popq      %rbx                                          #49.3
	.cfi_restore 15
..LN526:
        popq      %r15                                          #49.3
	.cfi_restore 14
..LN527:
        popq      %r14                                          #49.3
	.cfi_restore 13
..LN528:
        popq      %r13                                          #49.3
	.cfi_restore 12
..LN529:
        popq      %r12                                          #49.3
..LN530:
        movq      %rbp, %rsp                                    #49.3
..LN531:
        popq      %rbp                                          #49.3
	.cfi_def_cfa 7, 8
	.cfi_restore 6
..LN532:
        ret                                                     #49.3
	.cfi_def_cfa 6, 16
	.cfi_escape 0x10, 0x03, 0x0e, 0x38, 0x1c, 0x0d, 0xe0, 0xff, 0xff, 0xff, 0x1a, 0x0d, 0xd8, 0xff, 0xff, 0xff, 0x22
	.cfi_offset 6, -16
	.cfi_escape 0x10, 0x0c, 0x0e, 0x38, 0x1c, 0x0d, 0xe0, 0xff, 0xff, 0xff, 0x1a, 0x0d, 0xf8, 0xff, 0xff, 0xff, 0x22
	.cfi_escape 0x10, 0x0d, 0x0e, 0x38, 0x1c, 0x0d, 0xe0, 0xff, 0xff, 0xff, 0x1a, 0x0d, 0xf0, 0xff, 0xff, 0xff, 0x22
	.cfi_escape 0x10, 0x0e, 0x0e, 0x38, 0x1c, 0x0d, 0xe0, 0xff, 0xff, 0xff, 0x1a, 0x0d, 0xe8, 0xff, 0xff, 0xff, 0x22
	.cfi_escape 0x10, 0x0f, 0x0e, 0x38, 0x1c, 0x0d, 0xe0, 0xff, 0xff, 0xff, 0x1a, 0x0d, 0xe0, 0xff, 0xff, 0xff, 0x22
..LN533:
                                # LOE
..B5.14:                        # Preds ..B5.6                  # Infreq
..LN534:
	.loc    1  212  is_stmt 1
        movl      $.L_2__STRING.10, %esi                        #212.5
..LN535:
        lea       (%rsp), %rdi                                  #212.5
..LN536:
        movq      %r14, %rdx                                    #212.5
..LN537:
        movq      %r13, %rcx                                    #212.5
..LN538:
        xorl      %eax, %eax                                    #212.5
..LN539:
#       sprintf(char *__restrict__, const char *__restrict__, ...)
        call      sprintf                                       #212.5
..LN540:
                                # LOE r13 ebx
..B5.15:                        # Preds ..B5.14                 # Infreq
..LN541:
	.loc    1  48  is_stmt 1
        movl      %ebx, %edi                                    #48.35
..___tag_value_get_string_data_level.240:
..LN542:
#       nc_strerror(int)
        call      nc_strerror                                   #48.35
..___tag_value_get_string_data_level.241:
..LN543:
                                # LOE rax r13
..B5.16:                        # Preds ..B5.15                 # Infreq
..LN544:
        movl      $.L_2__STRING.0, %esi                         #48.3
..LN545:
        lea       1536(%rsp), %rdi                              #48.3
..LN546:
        movq      %rax, %rcx                                    #48.3
..LN547:
        lea       (%rsp), %rdx                                  #48.3
..LN548:
        xorl      %eax, %eax                                    #48.3
..LN549:
#       sprintf(char *__restrict__, const char *__restrict__, ...)
        call      sprintf                                       #48.3
..LN550:
                                # LOE r13
..B5.17:                        # Preds ..B5.16                 # Infreq
..LN551:
	.loc    1  49  is_stmt 1
        lea       1536(%rsp), %rdi                              #49.3
..___tag_value_get_string_data_level.242:
..LN552:
#       error_handler(const char *)
        call      error_handler                                 #49.3
..___tag_value_get_string_data_level.243:
..LN553:
        jmp       ..B5.7        # Prob 100%                     #49.3
..LN554:
                                # LOE r13
..B5.18:                        # Preds ..B5.4                  # Infreq
..LN555:
	.loc    1  203  is_stmt 1
        movl      $.L_2__STRING.9, %esi                         #203.5
..LN556:
        lea       (%rsp), %rdi                                  #203.5
..LN557:
        movq      %r14, %rdx                                    #203.5
..LN558:
        movq      %r13, %rcx                                    #203.5
..LN559:
        xorl      %eax, %eax                                    #203.5
..LN560:
#       sprintf(char *__restrict__, const char *__restrict__, ...)
        call      sprintf                                       #203.5
..LN561:
                                # LOE rbx r12 r13 r14 r15d
..B5.19:                        # Preds ..B5.18                 # Infreq
..LN562:
	.loc    1  48  is_stmt 1
        movl      %r15d, %edi                                   #48.35
..___tag_value_get_string_data_level.244:
..LN563:
#       nc_strerror(int)
        call      nc_strerror                                   #48.35
..___tag_value_get_string_data_level.245:
..LN564:
                                # LOE rax rbx r12 r13 r14
..B5.20:                        # Preds ..B5.19                 # Infreq
..LN565:
        movl      $.L_2__STRING.0, %esi                         #48.3
..LN566:
        lea       1024(%rsp), %rdi                              #48.3
..LN567:
        movq      %rax, %rcx                                    #48.3
..LN568:
        lea       (%rsp), %rdx                                  #48.3
..LN569:
        xorl      %eax, %eax                                    #48.3
..LN570:
#       sprintf(char *__restrict__, const char *__restrict__, ...)
        call      sprintf                                       #48.3
..LN571:
                                # LOE rbx r12 r13 r14
..B5.21:                        # Preds ..B5.20                 # Infreq
..LN572:
	.loc    1  49  is_stmt 1
        lea       1024(%rsp), %rdi                              #49.3
..___tag_value_get_string_data_level.246:
..LN573:
#       error_handler(const char *)
        call      error_handler                                 #49.3
..___tag_value_get_string_data_level.247:
..LN574:
        jmp       ..B5.5        # Prob 100%                     #49.3
..LN575:
                                # LOE rbx r12 r13 r14
..B5.22:                        # Preds ..B5.2                  # Infreq
..LN576:
	.loc    1  198  is_stmt 1
        movl      $.L_2__STRING.4, %esi                         #198.5
..LN577:
        lea       (%rsp), %rdi                                  #198.5
..LN578:
        movq      %r13, %rdx                                    #198.5
..LN579:
        xorl      %eax, %eax                                    #198.5
..LN580:
#       sprintf(char *__restrict__, const char *__restrict__, ...)
        call      sprintf                                       #198.5
..LN581:
                                # LOE rbx r12 r13 r14 r15d
..B5.23:                        # Preds ..B5.22                 # Infreq
..LN582:
	.loc    1  48  is_stmt 1
        movl      %r15d, %edi                                   #48.35
..___tag_value_get_string_data_level.248:
..LN583:
#       nc_strerror(int)
        call      nc_strerror                                   #48.35
..___tag_value_get_string_data_level.249:
..LN584:
                                # LOE rax rbx r12 r13 r14
..B5.24:                        # Preds ..B5.23                 # Infreq
..LN585:
        movl      $.L_2__STRING.0, %esi                         #48.3
..LN586:
        lea       512(%rsp), %rdi                               #48.3
..LN587:
        movq      %rax, %rcx                                    #48.3
..LN588:
        lea       (%rsp), %rdx                                  #48.3
..LN589:
        xorl      %eax, %eax                                    #48.3
..LN590:
#       sprintf(char *__restrict__, const char *__restrict__, ...)
        call      sprintf                                       #48.3
..LN591:
                                # LOE rbx r12 r13 r14
..B5.25:                        # Preds ..B5.24                 # Infreq
..LN592:
	.loc    1  49  is_stmt 1
        lea       512(%rsp), %rdi                               #49.3
..___tag_value_get_string_data_level.250:
..LN593:
#       error_handler(const char *)
        call      error_handler                                 #49.3
..___tag_value_get_string_data_level.251:
..LN594:
        jmp       ..B5.3        # Prob 100%                     #49.3
..LN595:
        .align    16,0x90
	.cfi_endproc
..LN596:
                                # LOE rbx r12 r13 r14
..LN597:
# mark_end;
	.type	get_string_data_level,@function
	.size	get_string_data_level,.-get_string_data_level
..LNget_string_data_level.598:
.LNget_string_data_level:
	.data
# -- End  get_string_data_level
	.text
.L_2__routine_start_get_int_data_5:
# -- Begin  get_int_data
	.text
# mark_begin;
       .align    16,0x90
	.globl get_int_data
# --- get_int_data(const char *, const char *, int *)
get_int_data:
# parameter 1(file): %rdi
# parameter 2(name): %rsi
# parameter 3(data): %rdx
..B6.1:                         # Preds ..B6.0
	.cfi_startproc
..___tag_value_get_int_data.256:
..L257:
                                                        #232.1
..LN599:
	.loc    1  232  is_stmt 1
        pushq     %r14                                          #232.1
	.cfi_def_cfa_offset 16
	.cfi_offset 14, -16
..LN600:
        pushq     %r15                                          #232.1
	.cfi_def_cfa_offset 24
	.cfi_offset 15, -24
..LN601:
        pushq     %rbx                                          #232.1
	.cfi_def_cfa_offset 32
	.cfi_offset 3, -32
..LN602:
        pushq     %rbp                                          #232.1
	.cfi_def_cfa_offset 40
	.cfi_offset 6, -40
..LN603:
        subq      $2568, %rsp                                   #232.1
	.cfi_def_cfa_offset 2608
..LN604:
        movq      %rdx, %rbx                                    #232.1
..LN605:
        movq      %rsi, %r14                                    #232.1
..LN606:
	.loc    1  236  prologue_end  is_stmt 1
        xorl      %esi, %esi                                    #236.12
..LN607:
	.loc    1  232  is_stmt 1
        movq      %rdi, %rbp                                    #232.1
..LN608:
	.loc    1  236  is_stmt 1
        lea       2560(%rsp), %rdx                              #236.12
..___tag_value_get_int_data.268:
..LN609:
#       nc_open(const char *, int, int *)
        call      nc_open                                       #236.12
..___tag_value_get_int_data.269:
..LN610:
                                # LOE rbx rbp r12 r13 r14 eax
..B6.28:                        # Preds ..B6.1
..LN611:
        movl      %eax, %r15d                                   #236.12
..LN612:
                                # LOE rbx rbp r12 r13 r14 r15d
..B6.2:                         # Preds ..B6.28
..LN613:
	.loc    1  237  is_stmt 1
        testl     %r15d, %r15d                                  #237.16
..LN614:
        jne       ..B6.22       # Prob 5%                       #237.16
..LN615:
                                # LOE rbx rbp r12 r13 r14 r15d
..B6.3:                         # Preds ..B6.25 ..B6.2
..LN616:
	.loc    1  241  is_stmt 1
        movq      %r14, %rsi                                    #241.12
..LN617:
        lea       2564(%rsp), %rdx                              #241.12
..LN618:
        movl      -4(%rdx), %edi                                #241.12
..___tag_value_get_int_data.270:
..LN619:
#       nc_inq_varid(int, const char *, int *)
        call      nc_inq_varid                                  #241.12
..___tag_value_get_int_data.271:
..LN620:
                                # LOE rbx rbp r12 r13 r14 eax
..B6.29:                        # Preds ..B6.3
..LN621:
        movl      %eax, %r15d                                   #241.12
..LN622:
                                # LOE rbx rbp r12 r13 r14 r15d
..B6.4:                         # Preds ..B6.29
..LN623:
	.loc    1  242  is_stmt 1
        testl     %r15d, %r15d                                  #242.16
..LN624:
        jne       ..B6.18       # Prob 5%                       #242.16
..LN625:
                                # LOE rbx rbp r12 r13 r14 r15d
..B6.5:                         # Preds ..B6.21 ..B6.4
..LN626:
	.loc    1  246  is_stmt 1
        movq      %rbx, %rdx                                    #246.12
..LN627:
        movl      2560(%rsp), %edi                              #246.12
..LN628:
        movl      2564(%rsp), %esi                              #246.12
..___tag_value_get_int_data.272:
..LN629:
#       nc_get_var_int(int, int, int *)
        call      nc_get_var_int                                #246.12
..___tag_value_get_int_data.273:
..LN630:
                                # LOE rbp r12 r13 r14 eax
..B6.30:                        # Preds ..B6.5
..LN631:
        movl      %eax, %ebx                                    #246.12
..LN632:
                                # LOE rbp r12 r13 r14 ebx
..B6.6:                         # Preds ..B6.30
..LN633:
	.loc    1  247  is_stmt 1
        testl     %ebx, %ebx                                    #247.16
..LN634:
        jne       ..B6.14       # Prob 5%                       #247.16
..LN635:
                                # LOE rbp r12 r13 r14 ebx
..B6.7:                         # Preds ..B6.17 ..B6.6
..LN636:
	.loc    1  251  is_stmt 1
        movl      2560(%rsp), %edi                              #251.12
..___tag_value_get_int_data.274:
..LN637:
#       nc_close(int)
        call      nc_close                                      #251.12
..___tag_value_get_int_data.275:
..LN638:
                                # LOE rbp r12 r13 eax
..B6.31:                        # Preds ..B6.7
..LN639:
        movl      %eax, %ebx                                    #251.12
..LN640:
                                # LOE rbp r12 r13 ebx
..B6.8:                         # Preds ..B6.31
..LN641:
	.loc    1  252  is_stmt 1
        testl     %ebx, %ebx                                    #252.16
..LN642:
        jne       ..B6.10       # Prob 5%                       #252.16
..LN643:
                                # LOE rbp r12 r13 ebx
..B6.9:                         # Preds ..B6.8
..LN644:
	.loc    1  260  epilogue_begin  is_stmt 1
        addq      $2568, %rsp                                   #260.1
	.cfi_def_cfa_offset 40
	.cfi_restore 6
..LN645:
        popq      %rbp                                          #260.1
	.cfi_def_cfa_offset 32
	.cfi_restore 3
..LN646:
        popq      %rbx                                          #260.1
	.cfi_def_cfa_offset 24
	.cfi_restore 15
..LN647:
        popq      %r15                                          #260.1
	.cfi_def_cfa_offset 16
	.cfi_restore 14
..LN648:
        popq      %r14                                          #260.1
	.cfi_def_cfa_offset 8
..LN649:
        ret                                                     #260.1
	.cfi_def_cfa_offset 2608
	.cfi_offset 3, -32
	.cfi_offset 6, -40
	.cfi_offset 14, -16
	.cfi_offset 15, -24
..LN650:
                                # LOE
..B6.10:                        # Preds ..B6.8                  # Infreq
..LN651:
	.loc    1  253  is_stmt 1
        movl      $.L_2__STRING.7, %esi                         #253.5
..LN652:
        lea       (%rsp), %rdi                                  #253.5
..LN653:
        movq      %rbp, %rdx                                    #253.5
..LN654:
        xorl      %eax, %eax                                    #253.5
..LN655:
#       sprintf(char *__restrict__, const char *__restrict__, ...)
        call      sprintf                                       #253.5
..LN656:
                                # LOE r12 r13 ebx
..B6.11:                        # Preds ..B6.10                 # Infreq
..LN657:
	.loc    1  48  is_stmt 1
        movl      %ebx, %edi                                    #48.35
..___tag_value_get_int_data.291:
..LN658:
#       nc_strerror(int)
        call      nc_strerror                                   #48.35
..___tag_value_get_int_data.292:
..LN659:
                                # LOE rax r12 r13
..B6.12:                        # Preds ..B6.11                 # Infreq
..LN660:
        movl      $.L_2__STRING.0, %esi                         #48.3
..LN661:
        lea       2048(%rsp), %rdi                              #48.3
..LN662:
        movq      %rax, %rcx                                    #48.3
..LN663:
        lea       (%rsp), %rdx                                  #48.3
..LN664:
        xorl      %eax, %eax                                    #48.3
..LN665:
#       sprintf(char *__restrict__, const char *__restrict__, ...)
        call      sprintf                                       #48.3
..LN666:
                                # LOE r12 r13
..B6.13:                        # Preds ..B6.12                 # Infreq
..LN667:
	.loc    1  49  is_stmt 1
        lea       2048(%rsp), %rdi                              #49.3
..___tag_value_get_int_data.293:
..LN668:
#       error_handler(const char *)
        call      error_handler                                 #49.3
..___tag_value_get_int_data.294:
..LN669:
	.loc    1  49  epilogue_begin  is_stmt 1
        addq      $2568, %rsp                                   #49.3
	.cfi_def_cfa_offset 40
	.cfi_restore 6
..LN670:
        popq      %rbp                                          #49.3
	.cfi_def_cfa_offset 32
	.cfi_restore 3
..LN671:
        popq      %rbx                                          #49.3
	.cfi_def_cfa_offset 24
	.cfi_restore 15
..LN672:
        popq      %r15                                          #49.3
	.cfi_def_cfa_offset 16
	.cfi_restore 14
..LN673:
        popq      %r14                                          #49.3
	.cfi_def_cfa_offset 8
..LN674:
        ret                                                     #49.3
	.cfi_def_cfa_offset 2608
	.cfi_offset 3, -32
	.cfi_offset 6, -40
	.cfi_offset 14, -16
	.cfi_offset 15, -24
..LN675:
                                # LOE r12 r13
..B6.14:                        # Preds ..B6.6                  # Infreq
..LN676:
	.loc    1  248  is_stmt 1
        movl      $.L_2__STRING.11, %esi                        #248.5
..LN677:
        lea       (%rsp), %rdi                                  #248.5
..LN678:
        movq      %r14, %rdx                                    #248.5
..LN679:
        movq      %rbp, %rcx                                    #248.5
..LN680:
        xorl      %eax, %eax                                    #248.5
..LN681:
#       sprintf(char *__restrict__, const char *__restrict__, ...)
        call      sprintf                                       #248.5
..LN682:
                                # LOE rbp r12 r13 ebx
..B6.15:                        # Preds ..B6.14                 # Infreq
..LN683:
	.loc    1  48  is_stmt 1
        movl      %ebx, %edi                                    #48.35
..___tag_value_get_int_data.310:
..LN684:
#       nc_strerror(int)
        call      nc_strerror                                   #48.35
..___tag_value_get_int_data.311:
..LN685:
                                # LOE rax rbp r12 r13
..B6.16:                        # Preds ..B6.15                 # Infreq
..LN686:
        movl      $.L_2__STRING.0, %esi                         #48.3
..LN687:
        lea       1536(%rsp), %rdi                              #48.3
..LN688:
        movq      %rax, %rcx                                    #48.3
..LN689:
        lea       (%rsp), %rdx                                  #48.3
..LN690:
        xorl      %eax, %eax                                    #48.3
..LN691:
#       sprintf(char *__restrict__, const char *__restrict__, ...)
        call      sprintf                                       #48.3
..LN692:
                                # LOE rbp r12 r13
..B6.17:                        # Preds ..B6.16                 # Infreq
..LN693:
	.loc    1  49  is_stmt 1
        lea       1536(%rsp), %rdi                              #49.3
..___tag_value_get_int_data.312:
..LN694:
#       error_handler(const char *)
        call      error_handler                                 #49.3
..___tag_value_get_int_data.313:
..LN695:
        jmp       ..B6.7        # Prob 100%                     #49.3
..LN696:
                                # LOE rbp r12 r13
..B6.18:                        # Preds ..B6.4                  # Infreq
..LN697:
	.loc    1  243  is_stmt 1
        movl      $.L_2__STRING.9, %esi                         #243.5
..LN698:
        lea       (%rsp), %rdi                                  #243.5
..LN699:
        movq      %r14, %rdx                                    #243.5
..LN700:
        movq      %rbp, %rcx                                    #243.5
..LN701:
        xorl      %eax, %eax                                    #243.5
..LN702:
#       sprintf(char *__restrict__, const char *__restrict__, ...)
        call      sprintf                                       #243.5
..LN703:
                                # LOE rbx rbp r12 r13 r14 r15d
..B6.19:                        # Preds ..B6.18                 # Infreq
..LN704:
	.loc    1  48  is_stmt 1
        movl      %r15d, %edi                                   #48.35
..___tag_value_get_int_data.314:
..LN705:
#       nc_strerror(int)
        call      nc_strerror                                   #48.35
..___tag_value_get_int_data.315:
..LN706:
                                # LOE rax rbx rbp r12 r13 r14
..B6.20:                        # Preds ..B6.19                 # Infreq
..LN707:
        movl      $.L_2__STRING.0, %esi                         #48.3
..LN708:
        lea       1024(%rsp), %rdi                              #48.3
..LN709:
        movq      %rax, %rcx                                    #48.3
..LN710:
        lea       (%rsp), %rdx                                  #48.3
..LN711:
        xorl      %eax, %eax                                    #48.3
..LN712:
#       sprintf(char *__restrict__, const char *__restrict__, ...)
        call      sprintf                                       #48.3
..LN713:
                                # LOE rbx rbp r12 r13 r14
..B6.21:                        # Preds ..B6.20                 # Infreq
..LN714:
	.loc    1  49  is_stmt 1
        lea       1024(%rsp), %rdi                              #49.3
..___tag_value_get_int_data.316:
..LN715:
#       error_handler(const char *)
        call      error_handler                                 #49.3
..___tag_value_get_int_data.317:
..LN716:
        jmp       ..B6.5        # Prob 100%                     #49.3
..LN717:
                                # LOE rbx rbp r12 r13 r14
..B6.22:                        # Preds ..B6.2                  # Infreq
..LN718:
	.loc    1  238  is_stmt 1
        movl      $.L_2__STRING.4, %esi                         #238.5
..LN719:
        lea       (%rsp), %rdi                                  #238.5
..LN720:
        movq      %rbp, %rdx                                    #238.5
..LN721:
        xorl      %eax, %eax                                    #238.5
..LN722:
#       sprintf(char *__restrict__, const char *__restrict__, ...)
        call      sprintf                                       #238.5
..LN723:
                                # LOE rbx rbp r12 r13 r14 r15d
..B6.23:                        # Preds ..B6.22                 # Infreq
..LN724:
	.loc    1  48  is_stmt 1
        movl      %r15d, %edi                                   #48.35
..___tag_value_get_int_data.318:
..LN725:
#       nc_strerror(int)
        call      nc_strerror                                   #48.35
..___tag_value_get_int_data.319:
..LN726:
                                # LOE rax rbx rbp r12 r13 r14
..B6.24:                        # Preds ..B6.23                 # Infreq
..LN727:
        movl      $.L_2__STRING.0, %esi                         #48.3
..LN728:
        lea       512(%rsp), %rdi                               #48.3
..LN729:
        movq      %rax, %rcx                                    #48.3
..LN730:
        lea       (%rsp), %rdx                                  #48.3
..LN731:
        xorl      %eax, %eax                                    #48.3
..LN732:
#       sprintf(char *__restrict__, const char *__restrict__, ...)
        call      sprintf                                       #48.3
..LN733:
                                # LOE rbx rbp r12 r13 r14
..B6.25:                        # Preds ..B6.24                 # Infreq
..LN734:
	.loc    1  49  is_stmt 1
        lea       512(%rsp), %rdi                               #49.3
..___tag_value_get_int_data.320:
..LN735:
#       error_handler(const char *)
        call      error_handler                                 #49.3
..___tag_value_get_int_data.321:
..LN736:
        jmp       ..B6.3        # Prob 100%                     #49.3
..LN737:
        .align    16,0x90
	.cfi_endproc
..LN738:
                                # LOE rbx rbp r12 r13 r14
..LN739:
# mark_end;
	.type	get_int_data,@function
	.size	get_int_data,.-get_int_data
..LNget_int_data.740:
.LNget_int_data:
	.data
# -- End  get_int_data
	.text
.L_2__routine_start_get_double_data_6:
# -- Begin  get_double_data
	.text
# mark_begin;
       .align    16,0x90
	.globl get_double_data
# --- get_double_data(const char *, const char *, double *)
get_double_data:
# parameter 1(file): %rdi
# parameter 2(name): %rsi
# parameter 3(data): %rdx
..B7.1:                         # Preds ..B7.0
	.cfi_startproc
..___tag_value_get_double_data.326:
..L327:
                                                        #267.1
..LN741:
	.loc    1  267  is_stmt 1
        pushq     %r14                                          #267.1
	.cfi_def_cfa_offset 16
	.cfi_offset 14, -16
..LN742:
        pushq     %r15                                          #267.1
	.cfi_def_cfa_offset 24
	.cfi_offset 15, -24
..LN743:
        pushq     %rbx                                          #267.1
	.cfi_def_cfa_offset 32
	.cfi_offset 3, -32
..LN744:
        pushq     %rbp                                          #267.1
	.cfi_def_cfa_offset 40
	.cfi_offset 6, -40
..LN745:
        subq      $2568, %rsp                                   #267.1
	.cfi_def_cfa_offset 2608
..LN746:
        movq      %rdx, %rbx                                    #267.1
..LN747:
        movq      %rsi, %r14                                    #267.1
..LN748:
	.loc    1  272  prologue_end  is_stmt 1
        xorl      %esi, %esi                                    #272.12
..LN749:
	.loc    1  267  is_stmt 1
        movq      %rdi, %rbp                                    #267.1
..LN750:
	.loc    1  272  is_stmt 1
        lea       2560(%rsp), %rdx                              #272.12
..___tag_value_get_double_data.338:
..LN751:
#       nc_open(const char *, int, int *)
        call      nc_open                                       #272.12
..___tag_value_get_double_data.339:
..LN752:
                                # LOE rbx rbp r12 r13 r14 eax
..B7.28:                        # Preds ..B7.1
..LN753:
        movl      %eax, %r15d                                   #272.12
..LN754:
                                # LOE rbx rbp r12 r13 r14 r15d
..B7.2:                         # Preds ..B7.28
..LN755:
	.loc    1  273  is_stmt 1
        testl     %r15d, %r15d                                  #273.16
..LN756:
        jne       ..B7.22       # Prob 5%                       #273.16
..LN757:
                                # LOE rbx rbp r12 r13 r14 r15d
..B7.3:                         # Preds ..B7.25 ..B7.2
..LN758:
	.loc    1  277  is_stmt 1
        movq      %r14, %rsi                                    #277.12
..LN759:
        lea       2564(%rsp), %rdx                              #277.12
..LN760:
        movl      -4(%rdx), %edi                                #277.12
..___tag_value_get_double_data.340:
..LN761:
#       nc_inq_varid(int, const char *, int *)
        call      nc_inq_varid                                  #277.12
..___tag_value_get_double_data.341:
..LN762:
                                # LOE rbx rbp r12 r13 r14 eax
..B7.29:                        # Preds ..B7.3
..LN763:
        movl      %eax, %r15d                                   #277.12
..LN764:
                                # LOE rbx rbp r12 r13 r14 r15d
..B7.4:                         # Preds ..B7.29
..LN765:
	.loc    1  278  is_stmt 1
        testl     %r15d, %r15d                                  #278.16
..LN766:
        jne       ..B7.18       # Prob 5%                       #278.16
..LN767:
                                # LOE rbx rbp r12 r13 r14 r15d
..B7.5:                         # Preds ..B7.21 ..B7.4
..LN768:
	.loc    1  282  is_stmt 1
        movq      %rbx, %rdx                                    #282.12
..LN769:
        movl      2560(%rsp), %edi                              #282.12
..LN770:
        movl      2564(%rsp), %esi                              #282.12
..___tag_value_get_double_data.342:
..LN771:
#       nc_get_var_double(int, int, double *)
        call      nc_get_var_double                             #282.12
..___tag_value_get_double_data.343:
..LN772:
                                # LOE rbp r12 r13 r14 eax
..B7.30:                        # Preds ..B7.5
..LN773:
        movl      %eax, %ebx                                    #282.12
..LN774:
                                # LOE rbp r12 r13 r14 ebx
..B7.6:                         # Preds ..B7.30
..LN775:
	.loc    1  283  is_stmt 1
        testl     %ebx, %ebx                                    #283.16
..LN776:
        jne       ..B7.14       # Prob 5%                       #283.16
..LN777:
                                # LOE rbp r12 r13 r14 ebx
..B7.7:                         # Preds ..B7.17 ..B7.6
..LN778:
	.loc    1  287  is_stmt 1
        movl      2560(%rsp), %edi                              #287.12
..___tag_value_get_double_data.344:
..LN779:
#       nc_close(int)
        call      nc_close                                      #287.12
..___tag_value_get_double_data.345:
..LN780:
                                # LOE rbp r12 r13 eax
..B7.31:                        # Preds ..B7.7
..LN781:
        movl      %eax, %ebx                                    #287.12
..LN782:
                                # LOE rbp r12 r13 ebx
..B7.8:                         # Preds ..B7.31
..LN783:
	.loc    1  288  is_stmt 1
        testl     %ebx, %ebx                                    #288.16
..LN784:
        jne       ..B7.10       # Prob 5%                       #288.16
..LN785:
                                # LOE rbp r12 r13 ebx
..B7.9:                         # Preds ..B7.8
..LN786:
	.loc    1  296  epilogue_begin  is_stmt 1
        addq      $2568, %rsp                                   #296.1
	.cfi_def_cfa_offset 40
	.cfi_restore 6
..LN787:
        popq      %rbp                                          #296.1
	.cfi_def_cfa_offset 32
	.cfi_restore 3
..LN788:
        popq      %rbx                                          #296.1
	.cfi_def_cfa_offset 24
	.cfi_restore 15
..LN789:
        popq      %r15                                          #296.1
	.cfi_def_cfa_offset 16
	.cfi_restore 14
..LN790:
        popq      %r14                                          #296.1
	.cfi_def_cfa_offset 8
..LN791:
        ret                                                     #296.1
	.cfi_def_cfa_offset 2608
	.cfi_offset 3, -32
	.cfi_offset 6, -40
	.cfi_offset 14, -16
	.cfi_offset 15, -24
..LN792:
                                # LOE
..B7.10:                        # Preds ..B7.8                  # Infreq
..LN793:
	.loc    1  289  is_stmt 1
        movl      $.L_2__STRING.7, %esi                         #289.5
..LN794:
        lea       (%rsp), %rdi                                  #289.5
..LN795:
        movq      %rbp, %rdx                                    #289.5
..LN796:
        xorl      %eax, %eax                                    #289.5
..LN797:
#       sprintf(char *__restrict__, const char *__restrict__, ...)
        call      sprintf                                       #289.5
..LN798:
                                # LOE r12 r13 ebx
..B7.11:                        # Preds ..B7.10                 # Infreq
..LN799:
	.loc    1  48  is_stmt 1
        movl      %ebx, %edi                                    #48.35
..___tag_value_get_double_data.361:
..LN800:
#       nc_strerror(int)
        call      nc_strerror                                   #48.35
..___tag_value_get_double_data.362:
..LN801:
                                # LOE rax r12 r13
..B7.12:                        # Preds ..B7.11                 # Infreq
..LN802:
        movl      $.L_2__STRING.0, %esi                         #48.3
..LN803:
        lea       2048(%rsp), %rdi                              #48.3
..LN804:
        movq      %rax, %rcx                                    #48.3
..LN805:
        lea       (%rsp), %rdx                                  #48.3
..LN806:
        xorl      %eax, %eax                                    #48.3
..LN807:
#       sprintf(char *__restrict__, const char *__restrict__, ...)
        call      sprintf                                       #48.3
..LN808:
                                # LOE r12 r13
..B7.13:                        # Preds ..B7.12                 # Infreq
..LN809:
	.loc    1  49  is_stmt 1
        lea       2048(%rsp), %rdi                              #49.3
..___tag_value_get_double_data.363:
..LN810:
#       error_handler(const char *)
        call      error_handler                                 #49.3
..___tag_value_get_double_data.364:
..LN811:
	.loc    1  49  epilogue_begin  is_stmt 1
        addq      $2568, %rsp                                   #49.3
	.cfi_def_cfa_offset 40
	.cfi_restore 6
..LN812:
        popq      %rbp                                          #49.3
	.cfi_def_cfa_offset 32
	.cfi_restore 3
..LN813:
        popq      %rbx                                          #49.3
	.cfi_def_cfa_offset 24
	.cfi_restore 15
..LN814:
        popq      %r15                                          #49.3
	.cfi_def_cfa_offset 16
	.cfi_restore 14
..LN815:
        popq      %r14                                          #49.3
	.cfi_def_cfa_offset 8
..LN816:
        ret                                                     #49.3
	.cfi_def_cfa_offset 2608
	.cfi_offset 3, -32
	.cfi_offset 6, -40
	.cfi_offset 14, -16
	.cfi_offset 15, -24
..LN817:
                                # LOE r12 r13
..B7.14:                        # Preds ..B7.6                  # Infreq
..LN818:
	.loc    1  284  is_stmt 1
        movl      $.L_2__STRING.10, %esi                        #284.5
..LN819:
        lea       (%rsp), %rdi                                  #284.5
..LN820:
        movq      %r14, %rdx                                    #284.5
..LN821:
        movq      %rbp, %rcx                                    #284.5
..LN822:
        xorl      %eax, %eax                                    #284.5
..LN823:
#       sprintf(char *__restrict__, const char *__restrict__, ...)
        call      sprintf                                       #284.5
..LN824:
                                # LOE rbp r12 r13 ebx
..B7.15:                        # Preds ..B7.14                 # Infreq
..LN825:
	.loc    1  48  is_stmt 1
        movl      %ebx, %edi                                    #48.35
..___tag_value_get_double_data.380:
..LN826:
#       nc_strerror(int)
        call      nc_strerror                                   #48.35
..___tag_value_get_double_data.381:
..LN827:
                                # LOE rax rbp r12 r13
..B7.16:                        # Preds ..B7.15                 # Infreq
..LN828:
        movl      $.L_2__STRING.0, %esi                         #48.3
..LN829:
        lea       1536(%rsp), %rdi                              #48.3
..LN830:
        movq      %rax, %rcx                                    #48.3
..LN831:
        lea       (%rsp), %rdx                                  #48.3
..LN832:
        xorl      %eax, %eax                                    #48.3
..LN833:
#       sprintf(char *__restrict__, const char *__restrict__, ...)
        call      sprintf                                       #48.3
..LN834:
                                # LOE rbp r12 r13
..B7.17:                        # Preds ..B7.16                 # Infreq
..LN835:
	.loc    1  49  is_stmt 1
        lea       1536(%rsp), %rdi                              #49.3
..___tag_value_get_double_data.382:
..LN836:
#       error_handler(const char *)
        call      error_handler                                 #49.3
..___tag_value_get_double_data.383:
..LN837:
        jmp       ..B7.7        # Prob 100%                     #49.3
..LN838:
                                # LOE rbp r12 r13
..B7.18:                        # Preds ..B7.4                  # Infreq
..LN839:
	.loc    1  279  is_stmt 1
        movl      $.L_2__STRING.9, %esi                         #279.5
..LN840:
        lea       (%rsp), %rdi                                  #279.5
..LN841:
        movq      %r14, %rdx                                    #279.5
..LN842:
        movq      %rbp, %rcx                                    #279.5
..LN843:
        xorl      %eax, %eax                                    #279.5
..LN844:
#       sprintf(char *__restrict__, const char *__restrict__, ...)
        call      sprintf                                       #279.5
..LN845:
                                # LOE rbx rbp r12 r13 r14 r15d
..B7.19:                        # Preds ..B7.18                 # Infreq
..LN846:
	.loc    1  48  is_stmt 1
        movl      %r15d, %edi                                   #48.35
..___tag_value_get_double_data.384:
..LN847:
#       nc_strerror(int)
        call      nc_strerror                                   #48.35
..___tag_value_get_double_data.385:
..LN848:
                                # LOE rax rbx rbp r12 r13 r14
..B7.20:                        # Preds ..B7.19                 # Infreq
..LN849:
        movl      $.L_2__STRING.0, %esi                         #48.3
..LN850:
        lea       1024(%rsp), %rdi                              #48.3
..LN851:
        movq      %rax, %rcx                                    #48.3
..LN852:
        lea       (%rsp), %rdx                                  #48.3
..LN853:
        xorl      %eax, %eax                                    #48.3
..LN854:
#       sprintf(char *__restrict__, const char *__restrict__, ...)
        call      sprintf                                       #48.3
..LN855:
                                # LOE rbx rbp r12 r13 r14
..B7.21:                        # Preds ..B7.20                 # Infreq
..LN856:
	.loc    1  49  is_stmt 1
        lea       1024(%rsp), %rdi                              #49.3
..___tag_value_get_double_data.386:
..LN857:
#       error_handler(const char *)
        call      error_handler                                 #49.3
..___tag_value_get_double_data.387:
..LN858:
        jmp       ..B7.5        # Prob 100%                     #49.3
..LN859:
                                # LOE rbx rbp r12 r13 r14
..B7.22:                        # Preds ..B7.2                  # Infreq
..LN860:
	.loc    1  274  is_stmt 1
        movl      $.L_2__STRING.4, %esi                         #274.5
..LN861:
        lea       (%rsp), %rdi                                  #274.5
..LN862:
        movq      %rbp, %rdx                                    #274.5
..LN863:
        xorl      %eax, %eax                                    #274.5
..LN864:
#       sprintf(char *__restrict__, const char *__restrict__, ...)
        call      sprintf                                       #274.5
..LN865:
                                # LOE rbx rbp r12 r13 r14 r15d
..B7.23:                        # Preds ..B7.22                 # Infreq
..LN866:
	.loc    1  48  is_stmt 1
        movl      %r15d, %edi                                   #48.35
..___tag_value_get_double_data.388:
..LN867:
#       nc_strerror(int)
        call      nc_strerror                                   #48.35
..___tag_value_get_double_data.389:
..LN868:
                                # LOE rax rbx rbp r12 r13 r14
..B7.24:                        # Preds ..B7.23                 # Infreq
..LN869:
        movl      $.L_2__STRING.0, %esi                         #48.3
..LN870:
        lea       512(%rsp), %rdi                               #48.3
..LN871:
        movq      %rax, %rcx                                    #48.3
..LN872:
        lea       (%rsp), %rdx                                  #48.3
..LN873:
        xorl      %eax, %eax                                    #48.3
..LN874:
#       sprintf(char *__restrict__, const char *__restrict__, ...)
        call      sprintf                                       #48.3
..LN875:
                                # LOE rbx rbp r12 r13 r14
..B7.25:                        # Preds ..B7.24                 # Infreq
..LN876:
	.loc    1  49  is_stmt 1
        lea       512(%rsp), %rdi                               #49.3
..___tag_value_get_double_data.390:
..LN877:
#       error_handler(const char *)
        call      error_handler                                 #49.3
..___tag_value_get_double_data.391:
..LN878:
        jmp       ..B7.3        # Prob 100%                     #49.3
..LN879:
        .align    16,0x90
	.cfi_endproc
..LN880:
                                # LOE rbx rbp r12 r13 r14
..LN881:
# mark_end;
	.type	get_double_data,@function
	.size	get_double_data,.-get_double_data
..LNget_double_data.882:
.LNget_double_data:
	.data
# -- End  get_double_data
	.text
.L_2__routine_start_get_var_text_att_7:
# -- Begin  get_var_text_att
	.text
# mark_begin;
       .align    16,0x90
	.globl get_var_text_att
# --- get_var_text_att(const char *, const char *, const char *, char *)
get_var_text_att:
# parameter 1(file): %rdi
# parameter 2(name): %rsi
# parameter 3(attname): %rdx
# parameter 4(att): %rcx
..B8.1:                         # Preds ..B8.0
	.cfi_startproc
..___tag_value_get_var_text_att.396:
..L397:
                                                        #303.1
..LN883:
	.loc    1  303  is_stmt 1
        pushq     %r13                                          #303.1
	.cfi_def_cfa_offset 16
	.cfi_offset 13, -16
..LN884:
        pushq     %r14                                          #303.1
	.cfi_def_cfa_offset 24
	.cfi_offset 14, -24
..LN885:
        pushq     %r15                                          #303.1
	.cfi_def_cfa_offset 32
	.cfi_offset 15, -32
..LN886:
        pushq     %rbx                                          #303.1
	.cfi_def_cfa_offset 40
	.cfi_offset 3, -40
..LN887:
        pushq     %rbp                                          #303.1
	.cfi_def_cfa_offset 48
	.cfi_offset 6, -48
..LN888:
        subq      $2576, %rsp                                   #303.1
	.cfi_def_cfa_offset 2624
..LN889:
        movq      %rdx, %rbx                                    #303.1
..LN890:
        movq      %rsi, %r13                                    #303.1
..LN891:
	.loc    1  308  prologue_end  is_stmt 1
        xorl      %esi, %esi                                    #308.12
..LN892:
	.loc    1  303  is_stmt 1
        movq      %rcx, %r14                                    #303.1
..LN893:
	.loc    1  308  is_stmt 1
        lea       2560(%rsp), %rdx                              #308.12
..LN894:
	.loc    1  303  is_stmt 1
        movq      %rdi, %rbp                                    #303.1
..___tag_value_get_var_text_att.410:
..LN895:
	.loc    1  308  is_stmt 1
#       nc_open(const char *, int, int *)
        call      nc_open                                       #308.12
..___tag_value_get_var_text_att.411:
..LN896:
                                # LOE rbx rbp r12 r13 r14 eax
..B8.28:                        # Preds ..B8.1
..LN897:
        movl      %eax, %r15d                                   #308.12
..LN898:
                                # LOE rbx rbp r12 r13 r14 r15d
..B8.2:                         # Preds ..B8.28
..LN899:
	.loc    1  309  is_stmt 1
        testl     %r15d, %r15d                                  #309.16
..LN900:
        jne       ..B8.22       # Prob 5%                       #309.16
..LN901:
                                # LOE rbx rbp r12 r13 r14 r15d
..B8.3:                         # Preds ..B8.25 ..B8.2
..LN902:
	.loc    1  313  is_stmt 1
        movq      %r13, %rsi                                    #313.12
..LN903:
        lea       2564(%rsp), %rdx                              #313.12
..LN904:
        movl      -4(%rdx), %edi                                #313.12
..___tag_value_get_var_text_att.412:
..LN905:
#       nc_inq_varid(int, const char *, int *)
        call      nc_inq_varid                                  #313.12
..___tag_value_get_var_text_att.413:
..LN906:
                                # LOE rbx rbp r12 r13 r14 eax
..B8.29:                        # Preds ..B8.3
..LN907:
        movl      %eax, %r15d                                   #313.12
..LN908:
                                # LOE rbx rbp r12 r13 r14 r15d
..B8.4:                         # Preds ..B8.29
..LN909:
	.loc    1  314  is_stmt 1
        testl     %r15d, %r15d                                  #314.16
..LN910:
        jne       ..B8.18       # Prob 5%                       #314.16
..LN911:
                                # LOE rbx rbp r12 r13 r14 r15d
..B8.5:                         # Preds ..B8.21 ..B8.4
..LN912:
	.loc    1  318  is_stmt 1
        movq      %rbx, %rdx                                    #318.12
..LN913:
        movq      %r14, %rcx                                    #318.12
..LN914:
        movl      2560(%rsp), %edi                              #318.12
..LN915:
        movl      2564(%rsp), %esi                              #318.12
..___tag_value_get_var_text_att.414:
..LN916:
#       nc_get_att_text(int, int, const char *, char *)
        call      nc_get_att_text                               #318.12
..___tag_value_get_var_text_att.415:
..LN917:
                                # LOE rbx rbp r12 r13 eax
..B8.30:                        # Preds ..B8.5
..LN918:
        movl      %eax, %r14d                                   #318.12
..LN919:
                                # LOE rbx rbp r12 r13 r14d
..B8.6:                         # Preds ..B8.30
..LN920:
	.loc    1  319  is_stmt 1
        testl     %r14d, %r14d                                  #319.16
..LN921:
        jne       ..B8.14       # Prob 5%                       #319.16
..LN922:
                                # LOE rbx rbp r12 r13 r14d
..B8.7:                         # Preds ..B8.17 ..B8.6
..LN923:
	.loc    1  323  is_stmt 1
        movl      2560(%rsp), %edi                              #323.12
..___tag_value_get_var_text_att.416:
..LN924:
#       nc_close(int)
        call      nc_close                                      #323.12
..___tag_value_get_var_text_att.417:
..LN925:
                                # LOE rbp r12 eax
..B8.31:                        # Preds ..B8.7
..LN926:
        movl      %eax, %ebx                                    #323.12
..LN927:
                                # LOE rbp r12 ebx
..B8.8:                         # Preds ..B8.31
..LN928:
	.loc    1  324  is_stmt 1
        testl     %ebx, %ebx                                    #324.16
..LN929:
        jne       ..B8.10       # Prob 5%                       #324.16
..LN930:
                                # LOE rbp r12 ebx
..B8.9:                         # Preds ..B8.8
..LN931:
	.loc    1  332  epilogue_begin  is_stmt 1
        addq      $2576, %rsp                                   #332.1
	.cfi_def_cfa_offset 48
	.cfi_restore 6
..LN932:
        popq      %rbp                                          #332.1
	.cfi_def_cfa_offset 40
	.cfi_restore 3
..LN933:
        popq      %rbx                                          #332.1
	.cfi_def_cfa_offset 32
	.cfi_restore 15
..LN934:
        popq      %r15                                          #332.1
	.cfi_def_cfa_offset 24
	.cfi_restore 14
..LN935:
        popq      %r14                                          #332.1
	.cfi_def_cfa_offset 16
	.cfi_restore 13
..LN936:
        popq      %r13                                          #332.1
	.cfi_def_cfa_offset 8
..LN937:
        ret                                                     #332.1
	.cfi_def_cfa_offset 2624
	.cfi_offset 3, -40
	.cfi_offset 6, -48
	.cfi_offset 13, -16
	.cfi_offset 14, -24
	.cfi_offset 15, -32
..LN938:
                                # LOE
..B8.10:                        # Preds ..B8.8                  # Infreq
..LN939:
	.loc    1  325  is_stmt 1
        movl      $.L_2__STRING.7, %esi                         #325.5
..LN940:
        lea       (%rsp), %rdi                                  #325.5
..LN941:
        movq      %rbp, %rdx                                    #325.5
..LN942:
        xorl      %eax, %eax                                    #325.5
..LN943:
#       sprintf(char *__restrict__, const char *__restrict__, ...)
        call      sprintf                                       #325.5
..LN944:
                                # LOE r12 ebx
..B8.11:                        # Preds ..B8.10                 # Infreq
..LN945:
	.loc    1  48  is_stmt 1
        movl      %ebx, %edi                                    #48.35
..___tag_value_get_var_text_att.436:
..LN946:
#       nc_strerror(int)
        call      nc_strerror                                   #48.35
..___tag_value_get_var_text_att.437:
..LN947:
                                # LOE rax r12
..B8.12:                        # Preds ..B8.11                 # Infreq
..LN948:
        movl      $.L_2__STRING.0, %esi                         #48.3
..LN949:
        lea       2048(%rsp), %rdi                              #48.3
..LN950:
        movq      %rax, %rcx                                    #48.3
..LN951:
        lea       (%rsp), %rdx                                  #48.3
..LN952:
        xorl      %eax, %eax                                    #48.3
..LN953:
#       sprintf(char *__restrict__, const char *__restrict__, ...)
        call      sprintf                                       #48.3
..LN954:
                                # LOE r12
..B8.13:                        # Preds ..B8.12                 # Infreq
..LN955:
	.loc    1  49  is_stmt 1
        lea       2048(%rsp), %rdi                              #49.3
..___tag_value_get_var_text_att.438:
..LN956:
#       error_handler(const char *)
        call      error_handler                                 #49.3
..___tag_value_get_var_text_att.439:
..LN957:
	.loc    1  49  epilogue_begin  is_stmt 1
        addq      $2576, %rsp                                   #49.3
	.cfi_def_cfa_offset 48
	.cfi_restore 6
..LN958:
        popq      %rbp                                          #49.3
	.cfi_def_cfa_offset 40
	.cfi_restore 3
..LN959:
        popq      %rbx                                          #49.3
	.cfi_def_cfa_offset 32
	.cfi_restore 15
..LN960:
        popq      %r15                                          #49.3
	.cfi_def_cfa_offset 24
	.cfi_restore 14
..LN961:
        popq      %r14                                          #49.3
	.cfi_def_cfa_offset 16
	.cfi_restore 13
..LN962:
        popq      %r13                                          #49.3
	.cfi_def_cfa_offset 8
..LN963:
        ret                                                     #49.3
	.cfi_def_cfa_offset 2624
	.cfi_offset 3, -40
	.cfi_offset 6, -48
	.cfi_offset 13, -16
	.cfi_offset 14, -24
	.cfi_offset 15, -32
..LN964:
                                # LOE r12
..B8.14:                        # Preds ..B8.6                  # Infreq
..LN965:
	.loc    1  320  is_stmt 1
        movl      $.L_2__STRING.12, %esi                        #320.5
..LN966:
        lea       (%rsp), %rdi                                  #320.5
..LN967:
        movq      %rbx, %rdx                                    #320.5
..LN968:
        movq      %r13, %rcx                                    #320.5
..LN969:
        movq      %rbp, %r8                                     #320.5
..LN970:
        xorl      %eax, %eax                                    #320.5
..LN971:
#       sprintf(char *__restrict__, const char *__restrict__, ...)
        call      sprintf                                       #320.5
..LN972:
                                # LOE rbp r12 r14d
..B8.15:                        # Preds ..B8.14                 # Infreq
..LN973:
	.loc    1  48  is_stmt 1
        movl      %r14d, %edi                                   #48.35
..___tag_value_get_var_text_att.458:
..LN974:
#       nc_strerror(int)
        call      nc_strerror                                   #48.35
..___tag_value_get_var_text_att.459:
..LN975:
                                # LOE rax rbp r12
..B8.16:                        # Preds ..B8.15                 # Infreq
..LN976:
        movl      $.L_2__STRING.0, %esi                         #48.3
..LN977:
        lea       1536(%rsp), %rdi                              #48.3
..LN978:
        movq      %rax, %rcx                                    #48.3
..LN979:
        lea       (%rsp), %rdx                                  #48.3
..LN980:
        xorl      %eax, %eax                                    #48.3
..LN981:
#       sprintf(char *__restrict__, const char *__restrict__, ...)
        call      sprintf                                       #48.3
..LN982:
                                # LOE rbp r12
..B8.17:                        # Preds ..B8.16                 # Infreq
..LN983:
	.loc    1  49  is_stmt 1
        lea       1536(%rsp), %rdi                              #49.3
..___tag_value_get_var_text_att.460:
..LN984:
#       error_handler(const char *)
        call      error_handler                                 #49.3
..___tag_value_get_var_text_att.461:
..LN985:
        jmp       ..B8.7        # Prob 100%                     #49.3
..LN986:
                                # LOE rbp r12
..B8.18:                        # Preds ..B8.4                  # Infreq
..LN987:
	.loc    1  315  is_stmt 1
        movl      $.L_2__STRING.9, %esi                         #315.5
..LN988:
        lea       (%rsp), %rdi                                  #315.5
..LN989:
        movq      %r13, %rdx                                    #315.5
..LN990:
        movq      %rbp, %rcx                                    #315.5
..LN991:
        xorl      %eax, %eax                                    #315.5
..LN992:
#       sprintf(char *__restrict__, const char *__restrict__, ...)
        call      sprintf                                       #315.5
..LN993:
                                # LOE rbx rbp r12 r13 r14 r15d
..B8.19:                        # Preds ..B8.18                 # Infreq
..LN994:
	.loc    1  48  is_stmt 1
        movl      %r15d, %edi                                   #48.35
..___tag_value_get_var_text_att.462:
..LN995:
#       nc_strerror(int)
        call      nc_strerror                                   #48.35
..___tag_value_get_var_text_att.463:
..LN996:
                                # LOE rax rbx rbp r12 r13 r14
..B8.20:                        # Preds ..B8.19                 # Infreq
..LN997:
        movl      $.L_2__STRING.0, %esi                         #48.3
..LN998:
        lea       1024(%rsp), %rdi                              #48.3
..LN999:
        movq      %rax, %rcx                                    #48.3
..LN1000:
        lea       (%rsp), %rdx                                  #48.3
..LN1001:
        xorl      %eax, %eax                                    #48.3
..LN1002:
#       sprintf(char *__restrict__, const char *__restrict__, ...)
        call      sprintf                                       #48.3
..LN1003:
                                # LOE rbx rbp r12 r13 r14
..B8.21:                        # Preds ..B8.20                 # Infreq
..LN1004:
	.loc    1  49  is_stmt 1
        lea       1024(%rsp), %rdi                              #49.3
..___tag_value_get_var_text_att.464:
..LN1005:
#       error_handler(const char *)
        call      error_handler                                 #49.3
..___tag_value_get_var_text_att.465:
..LN1006:
        jmp       ..B8.5        # Prob 100%                     #49.3
..LN1007:
                                # LOE rbx rbp r12 r13 r14
..B8.22:                        # Preds ..B8.2                  # Infreq
..LN1008:
	.loc    1  310  is_stmt 1
        movl      $.L_2__STRING.4, %esi                         #310.5
..LN1009:
        lea       (%rsp), %rdi                                  #310.5
..LN1010:
        movq      %rbp, %rdx                                    #310.5
..LN1011:
        xorl      %eax, %eax                                    #310.5
..LN1012:
#       sprintf(char *__restrict__, const char *__restrict__, ...)
        call      sprintf                                       #310.5
..LN1013:
                                # LOE rbx rbp r12 r13 r14 r15d
..B8.23:                        # Preds ..B8.22                 # Infreq
..LN1014:
	.loc    1  48  is_stmt 1
        movl      %r15d, %edi                                   #48.35
..___tag_value_get_var_text_att.466:
..LN1015:
#       nc_strerror(int)
        call      nc_strerror                                   #48.35
..___tag_value_get_var_text_att.467:
..LN1016:
                                # LOE rax rbx rbp r12 r13 r14
..B8.24:                        # Preds ..B8.23                 # Infreq
..LN1017:
        movl      $.L_2__STRING.0, %esi                         #48.3
..LN1018:
        lea       512(%rsp), %rdi                               #48.3
..LN1019:
        movq      %rax, %rcx                                    #48.3
..LN1020:
        lea       (%rsp), %rdx                                  #48.3
..LN1021:
        xorl      %eax, %eax                                    #48.3
..LN1022:
#       sprintf(char *__restrict__, const char *__restrict__, ...)
        call      sprintf                                       #48.3
..LN1023:
                                # LOE rbx rbp r12 r13 r14
..B8.25:                        # Preds ..B8.24                 # Infreq
..LN1024:
	.loc    1  49  is_stmt 1
        lea       512(%rsp), %rdi                               #49.3
..___tag_value_get_var_text_att.468:
..LN1025:
#       error_handler(const char *)
        call      error_handler                                 #49.3
..___tag_value_get_var_text_att.469:
..LN1026:
        jmp       ..B8.3        # Prob 100%                     #49.3
..LN1027:
        .align    16,0x90
	.cfi_endproc
..LN1028:
                                # LOE rbx rbp r12 r13 r14
..LN1029:
# mark_end;
	.type	get_var_text_att,@function
	.size	get_var_text_att,.-get_var_text_att
..LNget_var_text_att.1030:
.LNget_var_text_att:
	.data
# -- End  get_var_text_att
	.text
.L_2__routine_start_read_mosaic_xgrid_size__8:
# -- Begin  read_mosaic_xgrid_size_
	.text
# mark_begin;
       .align    16,0x90
	.globl read_mosaic_xgrid_size_
# --- read_mosaic_xgrid_size_(const char *)
read_mosaic_xgrid_size_:
# parameter 1(xgrid_file): %rdi
..B9.1:                         # Preds ..B9.0
	.cfi_startproc
..___tag_value_read_mosaic_xgrid_size_.474:
..L475:
                                                        #339.1
..LN1031:
	.loc    1  339  is_stmt 1
        pushq     %r15                                          #339.1
	.cfi_def_cfa_offset 16
	.cfi_offset 15, -16
..LN1032:
        pushq     %rbx                                          #339.1
	.cfi_def_cfa_offset 24
	.cfi_offset 3, -24
..LN1033:
        pushq     %rbp                                          #339.1
	.cfi_def_cfa_offset 32
	.cfi_offset 6, -32
..LN1034:
        subq      $3088, %rsp                                   #339.1
	.cfi_def_cfa_offset 3120
..LN1035:
	.loc    1  115  prologue_end  is_stmt 1
        xorl      %esi, %esi                                    #115.12
..LN1036:
	.loc    1  339  is_stmt 1
        movq      %rdi, %r15                                    #339.1
..LN1037:
	.loc    1  115  is_stmt 1
        lea       3080(%rsp), %rdx                              #115.12
..___tag_value_read_mosaic_xgrid_size_.484:
..LN1038:
#       nc_open(const char *, int, int *)
        call      nc_open                                       #115.12
..___tag_value_read_mosaic_xgrid_size_.485:
..LN1039:
                                # LOE r12 r13 r14 r15 eax
..B9.33:                        # Preds ..B9.1
..LN1040:
        movl      %eax, %ebx                                    #115.12
..LN1041:
                                # LOE r12 r13 r14 r15 ebx
..B9.2:                         # Preds ..B9.33
..LN1042:
	.loc    1  116  is_stmt 1
        testl     %ebx, %ebx                                    #116.16
..LN1043:
        jne       ..B9.27       # Prob 5%                       #116.16
..LN1044:
                                # LOE r12 r13 r14 r15 ebx
..B9.3:                         # Preds ..B9.30 ..B9.2
..LN1045:
	.loc    1  121  is_stmt 1
        movl      $.L_2__STRING.13, %esi                        #121.12
..LN1046:
        lea       3084(%rsp), %rdx                              #121.12
..LN1047:
        movl      -4(%rdx), %edi                                #121.12
..___tag_value_read_mosaic_xgrid_size_.486:
..LN1048:
#       nc_inq_dimid(int, const char *, int *)
        call      nc_inq_dimid                                  #121.12
..___tag_value_read_mosaic_xgrid_size_.487:
..LN1049:
                                # LOE r12 r13 r14 r15 eax
..B9.34:                        # Preds ..B9.3
..LN1050:
        movl      %eax, %ebx                                    #121.12
..LN1051:
                                # LOE r12 r13 r14 r15 ebx
..B9.4:                         # Preds ..B9.34
..LN1052:
	.loc    1  122  is_stmt 1
        testl     %ebx, %ebx                                    #122.16
..LN1053:
        jne       ..B9.23       # Prob 5%                       #122.16
..LN1054:
                                # LOE r12 r13 r14 r15 ebx
..B9.5:                         # Preds ..B9.26 ..B9.4
..LN1055:
	.loc    1  127  is_stmt 1
        movl      3080(%rsp), %edi                              #127.12
..LN1056:
        lea       3072(%rsp), %rdx                              #127.12
..LN1057:
        movl      12(%rdx), %esi                                #127.12
..___tag_value_read_mosaic_xgrid_size_.488:
..LN1058:
#       nc_inq_dimlen(int, int, size_t *)
        call      nc_inq_dimlen                                 #127.12
..___tag_value_read_mosaic_xgrid_size_.489:
..LN1059:
                                # LOE r12 r13 r14 r15 eax
..B9.35:                        # Preds ..B9.5
..LN1060:
        movl      %eax, %ebx                                    #127.12
..LN1061:
                                # LOE r12 r13 r14 r15 ebx
..B9.6:                         # Preds ..B9.35
..LN1062:
	.loc    1  128  is_stmt 1
        testl     %ebx, %ebx                                    #128.16
..LN1063:
        jne       ..B9.19       # Prob 5%                       #128.16
..LN1064:
                                # LOE r12 r13 r14 r15 ebx
..B9.7:                         # Preds ..B9.22 ..B9.6
..LN1065:
	.loc    1  132  is_stmt 1
        movl      3080(%rsp), %edi                              #132.12
..___tag_value_read_mosaic_xgrid_size_.490:
..LN1066:
#       nc_close(int)
        call      nc_close                                      #132.12
..___tag_value_read_mosaic_xgrid_size_.491:
..LN1067:
                                # LOE r12 r13 r14 r15 eax
..B9.36:                        # Preds ..B9.7
..LN1068:
        movl      %eax, %ebp                                    #132.12
..LN1069:
                                # LOE r12 r13 r14 r15 ebp
..B9.8:                         # Preds ..B9.36
..LN1070:
	.loc    1  133  is_stmt 1
        testl     %ebp, %ebp                                    #133.16
..LN1071:
        jne       ..B9.11       # Prob 5%                       #133.16
..LN1072:
                                # LOE r12 r13 r14 r15 ebp
..B9.9:                         # Preds ..B9.8
..LN1073:
	.loc    1  138  is_stmt 1
        movl      3072(%rsp), %ebx                              #138.9
..LN1074:
                                # LOE r12 r13 r14 ebx
..B9.10:                        # Preds ..B9.9 ..B9.18
..LN1075:
	.loc    1  340  is_stmt 1
        movl      %ebx, %eax                                    #340.10
..LN1076:
	.loc    1  340  epilogue_begin  is_stmt 1
        addq      $3088, %rsp                                   #340.10
	.cfi_def_cfa_offset 32
	.cfi_restore 6
..LN1077:
        popq      %rbp                                          #340.10
	.cfi_def_cfa_offset 24
	.cfi_restore 3
..LN1078:
        popq      %rbx                                          #340.10
	.cfi_def_cfa_offset 16
	.cfi_restore 15
..LN1079:
        popq      %r15                                          #340.10
	.cfi_def_cfa_offset 8
..LN1080:
        ret                                                     #340.10
	.cfi_def_cfa_offset 3120
	.cfi_offset 3, -24
	.cfi_offset 6, -32
	.cfi_offset 15, -16
..LN1081:
                                # LOE
..B9.11:                        # Preds ..B9.8                  # Infreq
..LN1082:
	.loc    1  134  is_stmt 1
        movl      $.L_2__STRING.7, %esi                         #134.5
..LN1083:
        lea       2560(%rsp), %rdi                              #134.5
..LN1084:
        movq      %r15, %rdx                                    #134.5
..LN1085:
        xorl      %eax, %eax                                    #134.5
..LN1086:
#       sprintf(char *__restrict__, const char *__restrict__, ...)
        call      sprintf                                       #134.5
..LN1087:
                                # LOE r12 r13 r14 r15 ebp
..B9.12:                        # Preds ..B9.11                 # Infreq
..LN1088:
	.loc    1  48  is_stmt 1
        movl      %ebp, %edi                                    #48.35
..___tag_value_read_mosaic_xgrid_size_.504:
..LN1089:
#       nc_strerror(int)
        call      nc_strerror                                   #48.35
..___tag_value_read_mosaic_xgrid_size_.505:
..LN1090:
                                # LOE rax r12 r13 r14 r15 ebp
..B9.13:                        # Preds ..B9.12                 # Infreq
..LN1091:
        movl      $.L_2__STRING.0, %esi                         #48.3
..LN1092:
        lea       1536(%rsp), %rdi                              #48.3
..LN1093:
        movq      %rax, %rcx                                    #48.3
..LN1094:
        lea       2560(%rsp), %rdx                              #48.3
..LN1095:
        xorl      %eax, %eax                                    #48.3
..LN1096:
#       sprintf(char *__restrict__, const char *__restrict__, ...)
        call      sprintf                                       #48.3
..LN1097:
                                # LOE r12 r13 r14 r15 ebp
..B9.14:                        # Preds ..B9.13                 # Infreq
..LN1098:
	.loc    1  49  is_stmt 1
        lea       1536(%rsp), %rdi                              #49.3
..___tag_value_read_mosaic_xgrid_size_.506:
..LN1099:
#       error_handler(const char *)
        call      error_handler                                 #49.3
..___tag_value_read_mosaic_xgrid_size_.507:
..LN1100:
                                # LOE r12 r13 r14 r15 ebp
..B9.15:                        # Preds ..B9.14                 # Infreq
..LN1101:
	.loc    1  140  is_stmt 1
        movl      $.L_2__STRING.8, %esi                         #140.5
..LN1102:
        lea       2560(%rsp), %rdi                              #140.5
..LN1103:
        movq      %r15, %rdx                                    #140.5
..LN1104:
        xorl      %eax, %eax                                    #140.5
..LN1105:
	.loc    1  138  is_stmt 1
        movl      512(%rdi), %ebx                               #138.9
..LN1106:
	.loc    1  140  is_stmt 1
#       sprintf(char *__restrict__, const char *__restrict__, ...)
        call      sprintf                                       #140.5
..LN1107:
                                # LOE r12 r13 r14 ebx ebp
..B9.16:                        # Preds ..B9.15                 # Infreq
..LN1108:
	.loc    1  48  is_stmt 1
        movl      %ebp, %edi                                    #48.35
..___tag_value_read_mosaic_xgrid_size_.508:
..LN1109:
#       nc_strerror(int)
        call      nc_strerror                                   #48.35
..___tag_value_read_mosaic_xgrid_size_.509:
..LN1110:
                                # LOE rax r12 r13 r14 ebx
..B9.17:                        # Preds ..B9.16                 # Infreq
..LN1111:
        movl      $.L_2__STRING.0, %esi                         #48.3
..LN1112:
        lea       2048(%rsp), %rdi                              #48.3
..LN1113:
        movq      %rax, %rcx                                    #48.3
..LN1114:
        lea       2560(%rsp), %rdx                              #48.3
..LN1115:
        xorl      %eax, %eax                                    #48.3
..LN1116:
#       sprintf(char *__restrict__, const char *__restrict__, ...)
        call      sprintf                                       #48.3
..LN1117:
                                # LOE r12 r13 r14 ebx
..B9.18:                        # Preds ..B9.17                 # Infreq
..LN1118:
	.loc    1  49  is_stmt 1
        lea       2048(%rsp), %rdi                              #49.3
..___tag_value_read_mosaic_xgrid_size_.510:
..LN1119:
#       error_handler(const char *)
        call      error_handler                                 #49.3
..___tag_value_read_mosaic_xgrid_size_.511:
..LN1120:
        jmp       ..B9.10       # Prob 100%                     #49.3
..LN1121:
                                # LOE r12 r13 r14 ebx
..B9.19:                        # Preds ..B9.6                  # Infreq
..LN1122:
	.loc    1  129  is_stmt 1
        movl      $.L_2__STRING.6, %esi                         #129.5
..LN1123:
        lea       2560(%rsp), %rdi                              #129.5
..LN1124:
        movl      $.L_2__STRING.13, %edx                        #129.5
..LN1125:
        movq      %r15, %rcx                                    #129.5
..LN1126:
        xorl      %eax, %eax                                    #129.5
..LN1127:
#       sprintf(char *__restrict__, const char *__restrict__, ...)
        call      sprintf                                       #129.5
..LN1128:
                                # LOE r12 r13 r14 r15 ebx
..B9.20:                        # Preds ..B9.19                 # Infreq
..LN1129:
	.loc    1  48  is_stmt 1
        movl      %ebx, %edi                                    #48.35
..___tag_value_read_mosaic_xgrid_size_.512:
..LN1130:
#       nc_strerror(int)
        call      nc_strerror                                   #48.35
..___tag_value_read_mosaic_xgrid_size_.513:
..LN1131:
                                # LOE rax r12 r13 r14 r15
..B9.21:                        # Preds ..B9.20                 # Infreq
..LN1132:
        movl      $.L_2__STRING.0, %esi                         #48.3
..LN1133:
        lea       1024(%rsp), %rdi                              #48.3
..LN1134:
        movq      %rax, %rcx                                    #48.3
..LN1135:
        lea       2560(%rsp), %rdx                              #48.3
..LN1136:
        xorl      %eax, %eax                                    #48.3
..LN1137:
#       sprintf(char *__restrict__, const char *__restrict__, ...)
        call      sprintf                                       #48.3
..LN1138:
                                # LOE r12 r13 r14 r15
..B9.22:                        # Preds ..B9.21                 # Infreq
..LN1139:
	.loc    1  49  is_stmt 1
        lea       1024(%rsp), %rdi                              #49.3
..___tag_value_read_mosaic_xgrid_size_.514:
..LN1140:
#       error_handler(const char *)
        call      error_handler                                 #49.3
..___tag_value_read_mosaic_xgrid_size_.515:
..LN1141:
        jmp       ..B9.7        # Prob 100%                     #49.3
..LN1142:
                                # LOE r12 r13 r14 r15
..B9.23:                        # Preds ..B9.4                  # Infreq
..LN1143:
	.loc    1  123  is_stmt 1
        movl      $.L_2__STRING.5, %esi                         #123.5
..LN1144:
        lea       2560(%rsp), %rdi                              #123.5
..LN1145:
        movl      $.L_2__STRING.13, %edx                        #123.5
..LN1146:
        movq      %r15, %rcx                                    #123.5
..LN1147:
        xorl      %eax, %eax                                    #123.5
..LN1148:
#       sprintf(char *__restrict__, const char *__restrict__, ...)
        call      sprintf                                       #123.5
..LN1149:
                                # LOE r12 r13 r14 r15 ebx
..B9.24:                        # Preds ..B9.23                 # Infreq
..LN1150:
	.loc    1  48  is_stmt 1
        movl      %ebx, %edi                                    #48.35
..___tag_value_read_mosaic_xgrid_size_.516:
..LN1151:
#       nc_strerror(int)
        call      nc_strerror                                   #48.35
..___tag_value_read_mosaic_xgrid_size_.517:
..LN1152:
                                # LOE rax r12 r13 r14 r15
..B9.25:                        # Preds ..B9.24                 # Infreq
..LN1153:
        movl      $.L_2__STRING.0, %esi                         #48.3
..LN1154:
        lea       512(%rsp), %rdi                               #48.3
..LN1155:
        movq      %rax, %rcx                                    #48.3
..LN1156:
        lea       2560(%rsp), %rdx                              #48.3
..LN1157:
        xorl      %eax, %eax                                    #48.3
..LN1158:
#       sprintf(char *__restrict__, const char *__restrict__, ...)
        call      sprintf                                       #48.3
..LN1159:
                                # LOE r12 r13 r14 r15
..B9.26:                        # Preds ..B9.25                 # Infreq
..LN1160:
	.loc    1  49  is_stmt 1
        lea       512(%rsp), %rdi                               #49.3
..___tag_value_read_mosaic_xgrid_size_.518:
..LN1161:
#       error_handler(const char *)
        call      error_handler                                 #49.3
..___tag_value_read_mosaic_xgrid_size_.519:
..LN1162:
        jmp       ..B9.5        # Prob 100%                     #49.3
..LN1163:
                                # LOE r12 r13 r14 r15
..B9.27:                        # Preds ..B9.2                  # Infreq
..LN1164:
	.loc    1  117  is_stmt 1
        movl      $.L_2__STRING.4, %esi                         #117.5
..LN1165:
        lea       2560(%rsp), %rdi                              #117.5
..LN1166:
        movq      %r15, %rdx                                    #117.5
..LN1167:
        xorl      %eax, %eax                                    #117.5
..LN1168:
#       sprintf(char *__restrict__, const char *__restrict__, ...)
        call      sprintf                                       #117.5
..LN1169:
                                # LOE r12 r13 r14 r15 ebx
..B9.28:                        # Preds ..B9.27                 # Infreq
..LN1170:
	.loc    1  48  is_stmt 1
        movl      %ebx, %edi                                    #48.35
..___tag_value_read_mosaic_xgrid_size_.520:
..LN1171:
#       nc_strerror(int)
        call      nc_strerror                                   #48.35
..___tag_value_read_mosaic_xgrid_size_.521:
..LN1172:
                                # LOE rax r12 r13 r14 r15
..B9.29:                        # Preds ..B9.28                 # Infreq
..LN1173:
        movl      $.L_2__STRING.0, %esi                         #48.3
..LN1174:
        lea       (%rsp), %rdi                                  #48.3
..LN1175:
        movq      %rax, %rcx                                    #48.3
..LN1176:
        lea       2560(%rsp), %rdx                              #48.3
..LN1177:
        xorl      %eax, %eax                                    #48.3
..LN1178:
#       sprintf(char *__restrict__, const char *__restrict__, ...)
        call      sprintf                                       #48.3
..LN1179:
                                # LOE r12 r13 r14 r15
..B9.30:                        # Preds ..B9.29                 # Infreq
..LN1180:
	.loc    1  49  is_stmt 1
        lea       (%rsp), %rdi                                  #49.3
..___tag_value_read_mosaic_xgrid_size_.522:
..LN1181:
#       error_handler(const char *)
        call      error_handler                                 #49.3
..___tag_value_read_mosaic_xgrid_size_.523:
..LN1182:
        jmp       ..B9.3        # Prob 100%                     #49.3
..LN1183:
        .align    16,0x90
	.cfi_endproc
..LN1184:
                                # LOE r12 r13 r14 r15
..LN1185:
# mark_end;
	.type	read_mosaic_xgrid_size_,@function
	.size	read_mosaic_xgrid_size_,.-read_mosaic_xgrid_size_
..LNread_mosaic_xgrid_size_.1186:
.LNread_mosaic_xgrid_size_:
	.data
# -- End  read_mosaic_xgrid_size_
	.text
.L_2__routine_start_read_mosaic_xgrid_size_9:
# -- Begin  read_mosaic_xgrid_size
	.text
# mark_begin;
       .align    16,0x90
	.globl read_mosaic_xgrid_size
# --- read_mosaic_xgrid_size(const char *)
read_mosaic_xgrid_size:
# parameter 1(xgrid_file): %rdi
..B10.1:                        # Preds ..B10.0
	.cfi_startproc
..___tag_value_read_mosaic_xgrid_size.527:
..L528:
                                                        #345.1
..LN1187:
	.loc    1  345  is_stmt 1
        pushq     %r15                                          #345.1
	.cfi_def_cfa_offset 16
	.cfi_offset 15, -16
..LN1188:
        pushq     %rbx                                          #345.1
	.cfi_def_cfa_offset 24
	.cfi_offset 3, -24
..LN1189:
        pushq     %rbp                                          #345.1
	.cfi_def_cfa_offset 32
	.cfi_offset 6, -32
..LN1190:
        subq      $3088, %rsp                                   #345.1
	.cfi_def_cfa_offset 3120
..LN1191:
	.loc    1  115  prologue_end  is_stmt 1
        xorl      %esi, %esi                                    #115.12
..LN1192:
	.loc    1  345  is_stmt 1
        movq      %rdi, %r15                                    #345.1
..LN1193:
	.loc    1  115  is_stmt 1
        lea       3080(%rsp), %rdx                              #115.12
..___tag_value_read_mosaic_xgrid_size.537:
..LN1194:
#       nc_open(const char *, int, int *)
        call      nc_open                                       #115.12
..___tag_value_read_mosaic_xgrid_size.538:
..LN1195:
                                # LOE r12 r13 r14 r15 eax
..B10.33:                       # Preds ..B10.1
..LN1196:
        movl      %eax, %ebx                                    #115.12
..LN1197:
                                # LOE r12 r13 r14 r15 ebx
..B10.2:                        # Preds ..B10.33
..LN1198:
	.loc    1  116  is_stmt 1
        testl     %ebx, %ebx                                    #116.16
..LN1199:
        jne       ..B10.27      # Prob 5%                       #116.16
..LN1200:
                                # LOE r12 r13 r14 r15 ebx
..B10.3:                        # Preds ..B10.30 ..B10.2
..LN1201:
	.loc    1  121  is_stmt 1
        movl      $.L_2__STRING.13, %esi                        #121.12
..LN1202:
        lea       3084(%rsp), %rdx                              #121.12
..LN1203:
        movl      -4(%rdx), %edi                                #121.12
..___tag_value_read_mosaic_xgrid_size.539:
..LN1204:
#       nc_inq_dimid(int, const char *, int *)
        call      nc_inq_dimid                                  #121.12
..___tag_value_read_mosaic_xgrid_size.540:
..LN1205:
                                # LOE r12 r13 r14 r15 eax
..B10.34:                       # Preds ..B10.3
..LN1206:
        movl      %eax, %ebx                                    #121.12
..LN1207:
                                # LOE r12 r13 r14 r15 ebx
..B10.4:                        # Preds ..B10.34
..LN1208:
	.loc    1  122  is_stmt 1
        testl     %ebx, %ebx                                    #122.16
..LN1209:
        jne       ..B10.23      # Prob 5%                       #122.16
..LN1210:
                                # LOE r12 r13 r14 r15 ebx
..B10.5:                        # Preds ..B10.26 ..B10.4
..LN1211:
	.loc    1  127  is_stmt 1
        movl      3080(%rsp), %edi                              #127.12
..LN1212:
        lea       3072(%rsp), %rdx                              #127.12
..LN1213:
        movl      12(%rdx), %esi                                #127.12
..___tag_value_read_mosaic_xgrid_size.541:
..LN1214:
#       nc_inq_dimlen(int, int, size_t *)
        call      nc_inq_dimlen                                 #127.12
..___tag_value_read_mosaic_xgrid_size.542:
..LN1215:
                                # LOE r12 r13 r14 r15 eax
..B10.35:                       # Preds ..B10.5
..LN1216:
        movl      %eax, %ebx                                    #127.12
..LN1217:
                                # LOE r12 r13 r14 r15 ebx
..B10.6:                        # Preds ..B10.35
..LN1218:
	.loc    1  128  is_stmt 1
        testl     %ebx, %ebx                                    #128.16
..LN1219:
        jne       ..B10.19      # Prob 5%                       #128.16
..LN1220:
                                # LOE r12 r13 r14 r15 ebx
..B10.7:                        # Preds ..B10.22 ..B10.6
..LN1221:
	.loc    1  132  is_stmt 1
        movl      3080(%rsp), %edi                              #132.12
..___tag_value_read_mosaic_xgrid_size.543:
..LN1222:
#       nc_close(int)
        call      nc_close                                      #132.12
..___tag_value_read_mosaic_xgrid_size.544:
..LN1223:
                                # LOE r12 r13 r14 r15 eax
..B10.36:                       # Preds ..B10.7
..LN1224:
        movl      %eax, %ebp                                    #132.12
..LN1225:
                                # LOE r12 r13 r14 r15 ebp
..B10.8:                        # Preds ..B10.36
..LN1226:
	.loc    1  133  is_stmt 1
        testl     %ebp, %ebp                                    #133.16
..LN1227:
        jne       ..B10.11      # Prob 5%                       #133.16
..LN1228:
                                # LOE r12 r13 r14 r15 ebp
..B10.9:                        # Preds ..B10.8
..LN1229:
	.loc    1  138  is_stmt 1
        movl      3072(%rsp), %ebx                              #138.9
..LN1230:
                                # LOE r12 r13 r14 ebx
..B10.10:                       # Preds ..B10.9 ..B10.18
..LN1231:
	.loc    1  349  is_stmt 1
        movl      %ebx, %eax                                    #349.10
..LN1232:
	.loc    1  349  epilogue_begin  is_stmt 1
        addq      $3088, %rsp                                   #349.10
	.cfi_def_cfa_offset 32
	.cfi_restore 6
..LN1233:
        popq      %rbp                                          #349.10
	.cfi_def_cfa_offset 24
	.cfi_restore 3
..LN1234:
        popq      %rbx                                          #349.10
	.cfi_def_cfa_offset 16
	.cfi_restore 15
..LN1235:
        popq      %r15                                          #349.10
	.cfi_def_cfa_offset 8
..LN1236:
        ret                                                     #349.10
	.cfi_def_cfa_offset 3120
	.cfi_offset 3, -24
	.cfi_offset 6, -32
	.cfi_offset 15, -16
..LN1237:
                                # LOE
..B10.11:                       # Preds ..B10.8                 # Infreq
..LN1238:
	.loc    1  134  is_stmt 1
        movl      $.L_2__STRING.7, %esi                         #134.5
..LN1239:
        lea       2560(%rsp), %rdi                              #134.5
..LN1240:
        movq      %r15, %rdx                                    #134.5
..LN1241:
        xorl      %eax, %eax                                    #134.5
..LN1242:
#       sprintf(char *__restrict__, const char *__restrict__, ...)
        call      sprintf                                       #134.5
..LN1243:
                                # LOE r12 r13 r14 r15 ebp
..B10.12:                       # Preds ..B10.11                # Infreq
..LN1244:
	.loc    1  48  is_stmt 1
        movl      %ebp, %edi                                    #48.35
..___tag_value_read_mosaic_xgrid_size.557:
..LN1245:
#       nc_strerror(int)
        call      nc_strerror                                   #48.35
..___tag_value_read_mosaic_xgrid_size.558:
..LN1246:
                                # LOE rax r12 r13 r14 r15 ebp
..B10.13:                       # Preds ..B10.12                # Infreq
..LN1247:
        movl      $.L_2__STRING.0, %esi                         #48.3
..LN1248:
        lea       1536(%rsp), %rdi                              #48.3
..LN1249:
        movq      %rax, %rcx                                    #48.3
..LN1250:
        lea       2560(%rsp), %rdx                              #48.3
..LN1251:
        xorl      %eax, %eax                                    #48.3
..LN1252:
#       sprintf(char *__restrict__, const char *__restrict__, ...)
        call      sprintf                                       #48.3
..LN1253:
                                # LOE r12 r13 r14 r15 ebp
..B10.14:                       # Preds ..B10.13                # Infreq
..LN1254:
	.loc    1  49  is_stmt 1
        lea       1536(%rsp), %rdi                              #49.3
..___tag_value_read_mosaic_xgrid_size.559:
..LN1255:
#       error_handler(const char *)
        call      error_handler                                 #49.3
..___tag_value_read_mosaic_xgrid_size.560:
..LN1256:
                                # LOE r12 r13 r14 r15 ebp
..B10.15:                       # Preds ..B10.14                # Infreq
..LN1257:
	.loc    1  140  is_stmt 1
        movl      $.L_2__STRING.8, %esi                         #140.5
..LN1258:
        lea       2560(%rsp), %rdi                              #140.5
..LN1259:
        movq      %r15, %rdx                                    #140.5
..LN1260:
        xorl      %eax, %eax                                    #140.5
..LN1261:
	.loc    1  138  is_stmt 1
        movl      512(%rdi), %ebx                               #138.9
..LN1262:
	.loc    1  140  is_stmt 1
#       sprintf(char *__restrict__, const char *__restrict__, ...)
        call      sprintf                                       #140.5
..LN1263:
                                # LOE r12 r13 r14 ebx ebp
..B10.16:                       # Preds ..B10.15                # Infreq
..LN1264:
	.loc    1  48  is_stmt 1
        movl      %ebp, %edi                                    #48.35
..___tag_value_read_mosaic_xgrid_size.561:
..LN1265:
#       nc_strerror(int)
        call      nc_strerror                                   #48.35
..___tag_value_read_mosaic_xgrid_size.562:
..LN1266:
                                # LOE rax r12 r13 r14 ebx
..B10.17:                       # Preds ..B10.16                # Infreq
..LN1267:
        movl      $.L_2__STRING.0, %esi                         #48.3
..LN1268:
        lea       2048(%rsp), %rdi                              #48.3
..LN1269:
        movq      %rax, %rcx                                    #48.3
..LN1270:
        lea       2560(%rsp), %rdx                              #48.3
..LN1271:
        xorl      %eax, %eax                                    #48.3
..LN1272:
#       sprintf(char *__restrict__, const char *__restrict__, ...)
        call      sprintf                                       #48.3
..LN1273:
                                # LOE r12 r13 r14 ebx
..B10.18:                       # Preds ..B10.17                # Infreq
..LN1274:
	.loc    1  49  is_stmt 1
        lea       2048(%rsp), %rdi                              #49.3
..___tag_value_read_mosaic_xgrid_size.563:
..LN1275:
#       error_handler(const char *)
        call      error_handler                                 #49.3
..___tag_value_read_mosaic_xgrid_size.564:
..LN1276:
        jmp       ..B10.10      # Prob 100%                     #49.3
..LN1277:
                                # LOE r12 r13 r14 ebx
..B10.19:                       # Preds ..B10.6                 # Infreq
..LN1278:
	.loc    1  129  is_stmt 1
        movl      $.L_2__STRING.6, %esi                         #129.5
..LN1279:
        lea       2560(%rsp), %rdi                              #129.5
..LN1280:
        movl      $.L_2__STRING.13, %edx                        #129.5
..LN1281:
        movq      %r15, %rcx                                    #129.5
..LN1282:
        xorl      %eax, %eax                                    #129.5
..LN1283:
#       sprintf(char *__restrict__, const char *__restrict__, ...)
        call      sprintf                                       #129.5
..LN1284:
                                # LOE r12 r13 r14 r15 ebx
..B10.20:                       # Preds ..B10.19                # Infreq
..LN1285:
	.loc    1  48  is_stmt 1
        movl      %ebx, %edi                                    #48.35
..___tag_value_read_mosaic_xgrid_size.565:
..LN1286:
#       nc_strerror(int)
        call      nc_strerror                                   #48.35
..___tag_value_read_mosaic_xgrid_size.566:
..LN1287:
                                # LOE rax r12 r13 r14 r15
..B10.21:                       # Preds ..B10.20                # Infreq
..LN1288:
        movl      $.L_2__STRING.0, %esi                         #48.3
..LN1289:
        lea       1024(%rsp), %rdi                              #48.3
..LN1290:
        movq      %rax, %rcx                                    #48.3
..LN1291:
        lea       2560(%rsp), %rdx                              #48.3
..LN1292:
        xorl      %eax, %eax                                    #48.3
..LN1293:
#       sprintf(char *__restrict__, const char *__restrict__, ...)
        call      sprintf                                       #48.3
..LN1294:
                                # LOE r12 r13 r14 r15
..B10.22:                       # Preds ..B10.21                # Infreq
..LN1295:
	.loc    1  49  is_stmt 1
        lea       1024(%rsp), %rdi                              #49.3
..___tag_value_read_mosaic_xgrid_size.567:
..LN1296:
#       error_handler(const char *)
        call      error_handler                                 #49.3
..___tag_value_read_mosaic_xgrid_size.568:
..LN1297:
        jmp       ..B10.7       # Prob 100%                     #49.3
..LN1298:
                                # LOE r12 r13 r14 r15
..B10.23:                       # Preds ..B10.4                 # Infreq
..LN1299:
	.loc    1  123  is_stmt 1
        movl      $.L_2__STRING.5, %esi                         #123.5
..LN1300:
        lea       2560(%rsp), %rdi                              #123.5
..LN1301:
        movl      $.L_2__STRING.13, %edx                        #123.5
..LN1302:
        movq      %r15, %rcx                                    #123.5
..LN1303:
        xorl      %eax, %eax                                    #123.5
..LN1304:
#       sprintf(char *__restrict__, const char *__restrict__, ...)
        call      sprintf                                       #123.5
..LN1305:
                                # LOE r12 r13 r14 r15 ebx
..B10.24:                       # Preds ..B10.23                # Infreq
..LN1306:
	.loc    1  48  is_stmt 1
        movl      %ebx, %edi                                    #48.35
..___tag_value_read_mosaic_xgrid_size.569:
..LN1307:
#       nc_strerror(int)
        call      nc_strerror                                   #48.35
..___tag_value_read_mosaic_xgrid_size.570:
..LN1308:
                                # LOE rax r12 r13 r14 r15
..B10.25:                       # Preds ..B10.24                # Infreq
..LN1309:
        movl      $.L_2__STRING.0, %esi                         #48.3
..LN1310:
        lea       512(%rsp), %rdi                               #48.3
..LN1311:
        movq      %rax, %rcx                                    #48.3
..LN1312:
        lea       2560(%rsp), %rdx                              #48.3
..LN1313:
        xorl      %eax, %eax                                    #48.3
..LN1314:
#       sprintf(char *__restrict__, const char *__restrict__, ...)
        call      sprintf                                       #48.3
..LN1315:
                                # LOE r12 r13 r14 r15
..B10.26:                       # Preds ..B10.25                # Infreq
..LN1316:
	.loc    1  49  is_stmt 1
        lea       512(%rsp), %rdi                               #49.3
..___tag_value_read_mosaic_xgrid_size.571:
..LN1317:
#       error_handler(const char *)
        call      error_handler                                 #49.3
..___tag_value_read_mosaic_xgrid_size.572:
..LN1318:
        jmp       ..B10.5       # Prob 100%                     #49.3
..LN1319:
                                # LOE r12 r13 r14 r15
..B10.27:                       # Preds ..B10.2                 # Infreq
..LN1320:
	.loc    1  117  is_stmt 1
        movl      $.L_2__STRING.4, %esi                         #117.5
..LN1321:
        lea       2560(%rsp), %rdi                              #117.5
..LN1322:
        movq      %r15, %rdx                                    #117.5
..LN1323:
        xorl      %eax, %eax                                    #117.5
..LN1324:
#       sprintf(char *__restrict__, const char *__restrict__, ...)
        call      sprintf                                       #117.5
..LN1325:
                                # LOE r12 r13 r14 r15 ebx
..B10.28:                       # Preds ..B10.27                # Infreq
..LN1326:
	.loc    1  48  is_stmt 1
        movl      %ebx, %edi                                    #48.35
..___tag_value_read_mosaic_xgrid_size.573:
..LN1327:
#       nc_strerror(int)
        call      nc_strerror                                   #48.35
..___tag_value_read_mosaic_xgrid_size.574:
..LN1328:
                                # LOE rax r12 r13 r14 r15
..B10.29:                       # Preds ..B10.28                # Infreq
..LN1329:
        movl      $.L_2__STRING.0, %esi                         #48.3
..LN1330:
        lea       (%rsp), %rdi                                  #48.3
..LN1331:
        movq      %rax, %rcx                                    #48.3
..LN1332:
        lea       2560(%rsp), %rdx                              #48.3
..LN1333:
        xorl      %eax, %eax                                    #48.3
..LN1334:
#       sprintf(char *__restrict__, const char *__restrict__, ...)
        call      sprintf                                       #48.3
..LN1335:
                                # LOE r12 r13 r14 r15
..B10.30:                       # Preds ..B10.29                # Infreq
..LN1336:
	.loc    1  49  is_stmt 1
        lea       (%rsp), %rdi                                  #49.3
..___tag_value_read_mosaic_xgrid_size.575:
..LN1337:
#       error_handler(const char *)
        call      error_handler                                 #49.3
..___tag_value_read_mosaic_xgrid_size.576:
..LN1338:
        jmp       ..B10.3       # Prob 100%                     #49.3
..LN1339:
        .align    16,0x90
	.cfi_endproc
..LN1340:
                                # LOE r12 r13 r14 r15
..LN1341:
# mark_end;
	.type	read_mosaic_xgrid_size,@function
	.size	read_mosaic_xgrid_size,.-read_mosaic_xgrid_size
..LNread_mosaic_xgrid_size.1342:
.LNread_mosaic_xgrid_size:
	.data
# -- End  read_mosaic_xgrid_size
	.text
.L_2__routine_start_read_mosaic_xgrid_order1__10:
# -- Begin  read_mosaic_xgrid_order1_
	.text
# mark_begin;
       .align    16,0x90
	.globl read_mosaic_xgrid_order1_
# --- read_mosaic_xgrid_order1_(const char *, int *, int *, int *, int *, double *)
read_mosaic_xgrid_order1_:
# parameter 1(xgrid_file): %rdi
# parameter 2(i1): %rsi
# parameter 3(j1): %rdx
# parameter 4(i2): %rcx
# parameter 5(j2): %r8
# parameter 6(area): %r9
..B11.1:                        # Preds ..B11.0
	.cfi_startproc
..___tag_value_read_mosaic_xgrid_order1_.580:
..L581:
                                                        #357.1
..LN1343:
	.loc    1  357  is_stmt 1
        pushq     %rbp                                          #357.1
	.cfi_def_cfa_offset 16
..LN1344:
        movq      %rsp, %rbp                                    #357.1
	.cfi_def_cfa 6, 16
	.cfi_offset 6, -16
..LN1345:
        andq      $-32, %rsp                                    #357.1
..LN1346:
        pushq     %r12                                          #357.1
..LN1347:
        pushq     %r13                                          #357.1
..LN1348:
        pushq     %r14                                          #357.1
..LN1349:
        pushq     %r15                                          #357.1
..LN1350:
        pushq     %rbx                                          #357.1
..LN1351:
        subq      $10840, %rsp                                  #357.1
	.cfi_escape 0x10, 0x03, 0x0e, 0x38, 0x1c, 0x0d, 0xe0, 0xff, 0xff, 0xff, 0x1a, 0x0d, 0xd8, 0xff, 0xff, 0xff, 0x22
	.cfi_escape 0x10, 0x0c, 0x0e, 0x38, 0x1c, 0x0d, 0xe0, 0xff, 0xff, 0xff, 0x1a, 0x0d, 0xf8, 0xff, 0xff, 0xff, 0x22
	.cfi_escape 0x10, 0x0d, 0x0e, 0x38, 0x1c, 0x0d, 0xe0, 0xff, 0xff, 0xff, 0x1a, 0x0d, 0xf0, 0xff, 0xff, 0xff, 0x22
	.cfi_escape 0x10, 0x0e, 0x0e, 0x38, 0x1c, 0x0d, 0xe0, 0xff, 0xff, 0xff, 0x1a, 0x0d, 0xe8, 0xff, 0xff, 0xff, 0x22
	.cfi_escape 0x10, 0x0f, 0x0e, 0x38, 0x1c, 0x0d, 0xe0, 0xff, 0xff, 0xff, 0x1a, 0x0d, 0xe0, 0xff, 0xff, 0xff, 0x22
..LN1352:
        movq      %r9, %r15                                     #357.1
..LN1353:
        movq      %rdx, 10768(%rsp)                             #357.1
..LN1354:
	.loc    1  115  prologue_end  is_stmt 1
        lea       10800(%rsp), %rdx                             #115.12
..LN1355:
	.loc    1  357  is_stmt 1
        movq      %rsi, -40(%rdx)                               #357.1
..LN1356:
	.loc    1  115  is_stmt 1
        xorl      %esi, %esi                                    #115.12
..LN1357:
	.loc    1  357  is_stmt 1
        movq      %r8, -16(%rdx)                                #357.1
..LN1358:
        movq      %rdi, %rbx                                    #357.1
..LN1359:
        movq      %rcx, -24(%rdx)                               #357.1
..___tag_value_read_mosaic_xgrid_order1_.591:
..LN1360:
	.loc    1  115  is_stmt 1
#       nc_open(const char *, int, int *)
        call      nc_open                                       #115.12
..___tag_value_read_mosaic_xgrid_order1_.592:
..LN1361:
                                # LOE rbx r15 eax
..B11.137:                      # Preds ..B11.1
..LN1362:
        movl      %eax, %r12d                                   #115.12
..LN1363:
                                # LOE rbx r15 r12d
..B11.2:                        # Preds ..B11.137
..LN1364:
	.loc    1  116  is_stmt 1
        testl     %r12d, %r12d                                  #116.16
..LN1365:
        jne       ..B11.131     # Prob 5%                       #116.16
..LN1366:
                                # LOE rbx r15 r12d
..B11.3:                        # Preds ..B11.134 ..B11.2
..LN1367:
	.loc    1  121  is_stmt 1
        movl      $.L_2__STRING.13, %esi                        #121.12
..LN1368:
        lea       10804(%rsp), %rdx                             #121.12
..LN1369:
        movl      -4(%rdx), %edi                                #121.12
..___tag_value_read_mosaic_xgrid_order1_.593:
..LN1370:
#       nc_inq_dimid(int, const char *, int *)
        call      nc_inq_dimid                                  #121.12
..___tag_value_read_mosaic_xgrid_order1_.594:
..LN1371:
                                # LOE rbx r15 eax
..B11.138:                      # Preds ..B11.3
..LN1372:
        movl      %eax, %r12d                                   #121.12
..LN1373:
                                # LOE rbx r15 r12d
..B11.4:                        # Preds ..B11.138
..LN1374:
	.loc    1  122  is_stmt 1
        testl     %r12d, %r12d                                  #122.16
..LN1375:
        jne       ..B11.127     # Prob 5%                       #122.16
..LN1376:
                                # LOE rbx r15 r12d
..B11.5:                        # Preds ..B11.130 ..B11.4
..LN1377:
	.loc    1  127  is_stmt 1
        movl      10800(%rsp), %edi                             #127.12
..LN1378:
        lea       10752(%rsp), %rdx                             #127.12
..LN1379:
        movl      52(%rdx), %esi                                #127.12
..___tag_value_read_mosaic_xgrid_order1_.595:
..LN1380:
#       nc_inq_dimlen(int, int, size_t *)
        call      nc_inq_dimlen                                 #127.12
..___tag_value_read_mosaic_xgrid_order1_.596:
..LN1381:
                                # LOE rbx r15 eax
..B11.139:                      # Preds ..B11.5
..LN1382:
        movl      %eax, %r12d                                   #127.12
..LN1383:
                                # LOE rbx r15 r12d
..B11.6:                        # Preds ..B11.139
..LN1384:
	.loc    1  128  is_stmt 1
        testl     %r12d, %r12d                                  #128.16
..LN1385:
        jne       ..B11.123     # Prob 5%                       #128.16
..LN1386:
                                # LOE rbx r15 r12d
..B11.7:                        # Preds ..B11.126 ..B11.6
..LN1387:
	.loc    1  132  is_stmt 1
        movl      10800(%rsp), %edi                             #132.12
..___tag_value_read_mosaic_xgrid_order1_.597:
..LN1388:
#       nc_close(int)
        call      nc_close                                      #132.12
..___tag_value_read_mosaic_xgrid_order1_.598:
..LN1389:
                                # LOE rbx r15 eax
..B11.140:                      # Preds ..B11.7
..LN1390:
        movl      %eax, %r12d                                   #132.12
..LN1391:
                                # LOE rbx r15 r12d
..B11.8:                        # Preds ..B11.140
..LN1392:
	.loc    1  133  is_stmt 1
        testl     %r12d, %r12d                                  #133.16
..LN1393:
        jne       ..B11.119     # Prob 5%                       #133.16
..LN1394:
                                # LOE rbx r15 r12d
..B11.9:                        # Preds ..B11.122 ..B11.8
..LN1395:
	.loc    1  138  is_stmt 1
        movq      10752(%rsp), %r13                             #138.9
..LN1396:
        movq      %r13, 10792(%rsp)                             #138.9
..LN1397:
	.loc    1  139  is_stmt 1
        jne       ..B11.115     # Prob 5%                       #139.16
..LN1398:
                                # LOE rbx r15 r12d r13d
..B11.10:                       # Preds ..B11.118 ..B11.9
..LN1399:
	.loc    1  371  is_stmt 1
        lea       (%r13,%r13), %edi                             #371.43
..LN1400:
        movslq    %edi, %r12                                    #371.43
..LN1401:
        shlq      $2, %r12                                      #371.45
..LN1402:
        movq      %r12, %rdi                                    #371.29
..LN1403:
#       malloc(size_t)
        call      malloc                                        #371.29
..LN1404:
                                # LOE rax rbx r12 r15 r13d
..B11.141:                      # Preds ..B11.10
..LN1405:
        movq      %rax, %r14                                    #371.29
..LN1406:
                                # LOE rbx r12 r14 r15 r13d
..B11.11:                       # Preds ..B11.141
..LN1407:
	.loc    1  372  is_stmt 1
        movq      %r12, %rdi                                    #372.29
..LN1408:
#       malloc(size_t)
        call      malloc                                        #372.29
..LN1409:
                                # LOE rax rbx r14 r15 r13d
..B11.142:                      # Preds ..B11.11
..LN1410:
        movq      %rax, %r12                                    #372.29
..LN1411:
                                # LOE rbx r12 r14 r15 r13d
..B11.12:                       # Preds ..B11.142
..LN1412:
	.loc    1  236  is_stmt 1
        movq      %rbx, %rdi                                    #236.12
..LN1413:
        xorl      %esi, %esi                                    #236.12
..LN1414:
        lea       10808(%rsp), %rdx                             #236.12
..___tag_value_read_mosaic_xgrid_order1_.599:
..LN1415:
#       nc_open(const char *, int, int *)
        call      nc_open                                       #236.12
..___tag_value_read_mosaic_xgrid_order1_.600:
..LN1416:
                                # LOE rbx r12 r14 r15 eax r13d
..B11.143:                      # Preds ..B11.12
..LN1417:
        movl      %eax, %r8d                                    #236.12
..LN1418:
                                # LOE rbx r12 r14 r15 r8d r13d
..B11.13:                       # Preds ..B11.143
..LN1419:
	.loc    1  237  is_stmt 1
        testl     %r8d, %r8d                                    #237.16
..LN1420:
        jne       ..B11.111     # Prob 5%                       #237.16
..LN1421:
                                # LOE rbx r12 r14 r15 r8d r13d
..B11.14:                       # Preds ..B11.114 ..B11.13
..LN1422:
	.loc    1  241  is_stmt 1
        movl      $.L_2__STRING.14, %esi                        #241.12
..LN1423:
        lea       10812(%rsp), %rdx                             #241.12
..LN1424:
        movl      -4(%rdx), %edi                                #241.12
..___tag_value_read_mosaic_xgrid_order1_.601:
..LN1425:
#       nc_inq_varid(int, const char *, int *)
        call      nc_inq_varid                                  #241.12
..___tag_value_read_mosaic_xgrid_order1_.602:
..LN1426:
                                # LOE rbx r12 r14 r15 eax r13d
..B11.144:                      # Preds ..B11.14
..LN1427:
        movl      %eax, %r8d                                    #241.12
..LN1428:
                                # LOE rbx r12 r14 r15 r8d r13d
..B11.15:                       # Preds ..B11.144
..LN1429:
	.loc    1  242  is_stmt 1
        testl     %r8d, %r8d                                    #242.16
..LN1430:
        jne       ..B11.107     # Prob 5%                       #242.16
..LN1431:
                                # LOE rbx r12 r14 r15 r8d r13d
..B11.16:                       # Preds ..B11.110 ..B11.15
..LN1432:
	.loc    1  246  is_stmt 1
        movq      %r14, %rdx                                    #246.12
..LN1433:
        movl      10808(%rsp), %edi                             #246.12
..LN1434:
        movl      10812(%rsp), %esi                             #246.12
..___tag_value_read_mosaic_xgrid_order1_.603:
..LN1435:
#       nc_get_var_int(int, int, int *)
        call      nc_get_var_int                                #246.12
..___tag_value_read_mosaic_xgrid_order1_.604:
..LN1436:
                                # LOE rbx r12 r14 r15 eax r13d
..B11.145:                      # Preds ..B11.16
..LN1437:
        movl      %eax, %r8d                                    #246.12
..LN1438:
                                # LOE rbx r12 r14 r15 r8d r13d
..B11.17:                       # Preds ..B11.145
..LN1439:
	.loc    1  247  is_stmt 1
        testl     %r8d, %r8d                                    #247.16
..LN1440:
        jne       ..B11.103     # Prob 5%                       #247.16
..LN1441:
                                # LOE rbx r12 r14 r15 r8d r13d
..B11.18:                       # Preds ..B11.106 ..B11.17
..LN1442:
	.loc    1  251  is_stmt 1
        movl      10808(%rsp), %edi                             #251.12
..___tag_value_read_mosaic_xgrid_order1_.605:
..LN1443:
#       nc_close(int)
        call      nc_close                                      #251.12
..___tag_value_read_mosaic_xgrid_order1_.606:
..LN1444:
                                # LOE rbx r12 r14 r15 eax r13d
..B11.146:                      # Preds ..B11.18
..LN1445:
        movl      %eax, %r8d                                    #251.12
..LN1446:
                                # LOE rbx r12 r14 r15 r8d r13d
..B11.19:                       # Preds ..B11.146
..LN1447:
	.loc    1  252  is_stmt 1
        testl     %r8d, %r8d                                    #252.16
..LN1448:
        jne       ..B11.99      # Prob 5%                       #252.16
..LN1449:
                                # LOE rbx r12 r14 r15 r8d r13d
..B11.20:                       # Preds ..B11.102 ..B11.19
..LN1450:
	.loc    1  236  is_stmt 1
        movq      %rbx, %rdi                                    #236.12
..LN1451:
        xorl      %esi, %esi                                    #236.12
..LN1452:
        lea       10816(%rsp), %rdx                             #236.12
..___tag_value_read_mosaic_xgrid_order1_.607:
..LN1453:
#       nc_open(const char *, int, int *)
        call      nc_open                                       #236.12
..___tag_value_read_mosaic_xgrid_order1_.608:
..LN1454:
                                # LOE rbx r12 r14 r15 eax r13d
..B11.147:                      # Preds ..B11.20
..LN1455:
        movl      %eax, %r8d                                    #236.12
..LN1456:
                                # LOE rbx r12 r14 r15 r8d r13d
..B11.21:                       # Preds ..B11.147
..LN1457:
	.loc    1  237  is_stmt 1
        testl     %r8d, %r8d                                    #237.16
..LN1458:
        jne       ..B11.95      # Prob 5%                       #237.16
..LN1459:
                                # LOE rbx r12 r14 r15 r8d r13d
..B11.22:                       # Preds ..B11.98 ..B11.21
..LN1460:
	.loc    1  241  is_stmt 1
        movl      $.L_2__STRING.15, %esi                        #241.12
..LN1461:
        lea       10820(%rsp), %rdx                             #241.12
..LN1462:
        movl      -4(%rdx), %edi                                #241.12
..___tag_value_read_mosaic_xgrid_order1_.609:
..LN1463:
#       nc_inq_varid(int, const char *, int *)
        call      nc_inq_varid                                  #241.12
..___tag_value_read_mosaic_xgrid_order1_.610:
..LN1464:
                                # LOE rbx r12 r14 r15 eax r13d
..B11.148:                      # Preds ..B11.22
..LN1465:
        movl      %eax, %r8d                                    #241.12
..LN1466:
                                # LOE rbx r12 r14 r15 r8d r13d
..B11.23:                       # Preds ..B11.148
..LN1467:
	.loc    1  242  is_stmt 1
        testl     %r8d, %r8d                                    #242.16
..LN1468:
        jne       ..B11.91      # Prob 5%                       #242.16
..LN1469:
                                # LOE rbx r12 r14 r15 r8d r13d
..B11.24:                       # Preds ..B11.94 ..B11.23
..LN1470:
	.loc    1  246  is_stmt 1
        movq      %r12, %rdx                                    #246.12
..LN1471:
        movl      10816(%rsp), %edi                             #246.12
..LN1472:
        movl      10820(%rsp), %esi                             #246.12
..___tag_value_read_mosaic_xgrid_order1_.611:
..LN1473:
#       nc_get_var_int(int, int, int *)
        call      nc_get_var_int                                #246.12
..___tag_value_read_mosaic_xgrid_order1_.612:
..LN1474:
                                # LOE rbx r12 r14 r15 eax r13d
..B11.149:                      # Preds ..B11.24
..LN1475:
        movl      %eax, %r8d                                    #246.12
..LN1476:
                                # LOE rbx r12 r14 r15 r8d r13d
..B11.25:                       # Preds ..B11.149
..LN1477:
	.loc    1  247  is_stmt 1
        testl     %r8d, %r8d                                    #247.16
..LN1478:
        jne       ..B11.87      # Prob 5%                       #247.16
..LN1479:
                                # LOE rbx r12 r14 r15 r8d r13d
..B11.26:                       # Preds ..B11.90 ..B11.25
..LN1480:
	.loc    1  251  is_stmt 1
        movl      10816(%rsp), %edi                             #251.12
..___tag_value_read_mosaic_xgrid_order1_.613:
..LN1481:
#       nc_close(int)
        call      nc_close                                      #251.12
..___tag_value_read_mosaic_xgrid_order1_.614:
..LN1482:
                                # LOE rbx r12 r14 r15 eax r13d
..B11.150:                      # Preds ..B11.26
..LN1483:
        movl      %eax, %r8d                                    #251.12
..LN1484:
                                # LOE rbx r12 r14 r15 r8d r13d
..B11.27:                       # Preds ..B11.150
..LN1485:
	.loc    1  252  is_stmt 1
        testl     %r8d, %r8d                                    #252.16
..LN1486:
        jne       ..B11.83      # Prob 5%                       #252.16
..LN1487:
                                # LOE rbx r12 r14 r15 r8d r13d
..B11.28:                       # Preds ..B11.86 ..B11.27
..LN1488:
	.loc    1  272  is_stmt 1
        movq      %rbx, %rdi                                    #272.12
..LN1489:
        xorl      %esi, %esi                                    #272.12
..LN1490:
        lea       10824(%rsp), %rdx                             #272.12
..___tag_value_read_mosaic_xgrid_order1_.615:
..LN1491:
#       nc_open(const char *, int, int *)
        call      nc_open                                       #272.12
..___tag_value_read_mosaic_xgrid_order1_.616:
..LN1492:
                                # LOE rbx r12 r14 r15 eax r13d
..B11.151:                      # Preds ..B11.28
..LN1493:
        movl      %eax, %r8d                                    #272.12
..LN1494:
                                # LOE rbx r12 r14 r15 r8d r13d
..B11.29:                       # Preds ..B11.151
..LN1495:
	.loc    1  273  is_stmt 1
        testl     %r8d, %r8d                                    #273.16
..LN1496:
        jne       ..B11.79      # Prob 5%                       #273.16
..LN1497:
                                # LOE rbx r12 r14 r15 r8d r13d
..B11.30:                       # Preds ..B11.82 ..B11.29
..LN1498:
	.loc    1  277  is_stmt 1
        movl      $.L_2__STRING.16, %esi                        #277.12
..LN1499:
        lea       10828(%rsp), %rdx                             #277.12
..LN1500:
        movl      -4(%rdx), %edi                                #277.12
..___tag_value_read_mosaic_xgrid_order1_.617:
..LN1501:
#       nc_inq_varid(int, const char *, int *)
        call      nc_inq_varid                                  #277.12
..___tag_value_read_mosaic_xgrid_order1_.618:
..LN1502:
                                # LOE rbx r12 r14 r15 eax r13d
..B11.152:                      # Preds ..B11.30
..LN1503:
        movl      %eax, %r8d                                    #277.12
..LN1504:
                                # LOE rbx r12 r14 r15 r8d r13d
..B11.31:                       # Preds ..B11.152
..LN1505:
	.loc    1  278  is_stmt 1
        testl     %r8d, %r8d                                    #278.16
..LN1506:
        jne       ..B11.75      # Prob 5%                       #278.16
..LN1507:
                                # LOE rbx r12 r14 r15 r8d r13d
..B11.32:                       # Preds ..B11.78 ..B11.31
..LN1508:
	.loc    1  282  is_stmt 1
        movq      %r15, %rdx                                    #282.12
..LN1509:
        movl      10824(%rsp), %edi                             #282.12
..LN1510:
        movl      10828(%rsp), %esi                             #282.12
..___tag_value_read_mosaic_xgrid_order1_.619:
..LN1511:
#       nc_get_var_double(int, int, double *)
        call      nc_get_var_double                             #282.12
..___tag_value_read_mosaic_xgrid_order1_.620:
..LN1512:
                                # LOE rbx r12 r14 r15 eax r13d
..B11.153:                      # Preds ..B11.32
..LN1513:
        movl      %eax, %r8d                                    #282.12
..LN1514:
                                # LOE rbx r12 r14 r15 r8d r13d
..B11.33:                       # Preds ..B11.153
..LN1515:
	.loc    1  283  is_stmt 1
        testl     %r8d, %r8d                                    #283.16
..LN1516:
        jne       ..B11.71      # Prob 5%                       #283.16
..LN1517:
                                # LOE rbx r12 r14 r15 r8d r13d
..B11.34:                       # Preds ..B11.74 ..B11.33
..LN1518:
	.loc    1  287  is_stmt 1
        movl      10824(%rsp), %edi                             #287.12
..___tag_value_read_mosaic_xgrid_order1_.621:
..LN1519:
#       nc_close(int)
        call      nc_close                                      #287.12
..___tag_value_read_mosaic_xgrid_order1_.622:
..LN1520:
                                # LOE rbx r12 r14 r15 eax r13d
..B11.154:                      # Preds ..B11.34
..LN1521:
        movl      %eax, %r8d                                    #287.12
..LN1522:
                                # LOE rbx r12 r14 r15 r8d r13d
..B11.35:                       # Preds ..B11.154
..LN1523:
	.loc    1  288  is_stmt 1
        testl     %r8d, %r8d                                    #288.16
..LN1524:
        jne       ..B11.67      # Prob 5%                       #288.16
..LN1525:
                                # LOE rbx r12 r14 r15 r8d r13d
..B11.36:                       # Preds ..B11.70 ..B11.35
..LN1526:
	.loc    1  378  is_stmt 1
        xorl      %r9d, %r9d                                    #378.3
..LN1527:
	.loc    1  379  is_stmt 1
        xorl      %eax, %eax                                    #379.5
..LN1528:
	.loc    1  378  is_stmt 1
        testl     %r13d, %r13d                                  #378.14
..LN1529:
        jle       ..B11.60      # Prob 9%                       #378.14
..LN1530:
                                # LOE rax r12 r14 r15 r9d r13d
..B11.37:                       # Preds ..B11.36
..LN1531:
        movq      10760(%rsp), %r8                              #
..LN1532:
        movq      10768(%rsp), %rsi                             #
..LN1533:
        movq      10776(%rsp), %rcx                             #
..LN1534:
        movq      10784(%rsp), %rbx                             #
..LN1535:
                                # LOE rax rcx rbx rsi r8 r12 r14 r15 r9d r13d
..B11.38:                       # Preds ..B11.38 ..B11.37
..L623:         # optimization report
                # LOOP WAS DISTRIBUTED, CHUNK 1
                # %s was not vectorized: vector dependence prevents vectorization%s
                # VECTOR TRIP COUNT IS ESTIMATED CONSTANT
..LN1536:
	.loc    1  379  is_stmt 1
        lea       (%r9,%r9), %r10d                              #379.13
..LN1537:
        movslq    %r10d, %r10                                   #379.13
..LN1538:
	.loc    1  378  is_stmt 1
        incl      %r9d                                          #378.3
..LN1539:
	.loc    1  379  is_stmt 1
        movl      (%r14,%r10,4), %r11d                          #379.13
..LN1540:
        decl      %r11d                                         #379.31
..LN1541:
        movl      %r11d, (%r8,%rax,4)                           #379.5
..LN1542:
	.loc    1  380  is_stmt 1
        movl      4(%r14,%r10,4), %r11d                         #380.13
..LN1543:
        decl      %r11d                                         #380.33
..LN1544:
        movl      %r11d, (%rsi,%rax,4)                          #380.5
..LN1545:
	.loc    1  381  is_stmt 1
        movl      (%r12,%r10,4), %r11d                          #381.13
..LN1546:
	.loc    1  382  is_stmt 1
        movl      4(%r12,%r10,4), %r10d                         #382.13
..LN1547:
	.loc    1  381  is_stmt 1
        decl      %r11d                                         #381.31
..LN1548:
        movl      %r11d, (%rcx,%rax,4)                          #381.5
..LN1549:
	.loc    1  382  is_stmt 1
        decl      %r10d                                         #382.33
..LN1550:
        movl      %r10d, (%rbx,%rax,4)                          #382.5
..LN1551:
	.loc    1  378  is_stmt 1
        incq      %rax                                          #378.3
..LN1552:
        cmpl      %r13d, %r9d                                   #378.3
..LN1553:
        jb        ..B11.38      # Prob 82%                      #378.3
..LN1554:
                                # LOE rax rcx rbx rsi r8 r12 r14 r15 r9d r13d
..B11.39:                       # Preds ..B11.38
..LN1555:
        cmpl      $16, %r13d                                    #378.3
..LN1556:
        jl        ..B11.64      # Prob 10%                      #378.3
..LN1557:
                                # LOE r12 r14 r15 r13d
..B11.40:                       # Preds ..B11.39
..LN1558:
        movq      %r15, %rcx                                    #378.3
..LN1559:
        andq      $31, %rcx                                     #378.3
..LN1560:
        movl      %ecx, %ecx                                    #378.3
..LN1561:
        testl     %ecx, %ecx                                    #378.3
..LN1562:
        je        ..B11.43      # Prob 50%                      #378.3
..LN1563:
                                # LOE rcx r12 r14 r15 r13d
..B11.41:                       # Preds ..B11.40
..LN1564:
        testb     $7, %cl                                       #378.3
..LN1565:
        jne       ..B11.64      # Prob 10%                      #378.3
..LN1566:
                                # LOE rcx r12 r14 r15 r13d
..B11.42:                       # Preds ..B11.41
..LN1567:
        negl      %ecx                                          #378.3
..LN1568:
        addl      $32, %ecx                                     #378.3
..LN1569:
        shrl      $3, %ecx                                      #378.3
..LN1570:
                                # LOE rcx r12 r14 r15 r13d
..B11.43:                       # Preds ..B11.42 ..B11.40
..LN1571:
        lea       16(%rcx), %eax                                #378.3
..LN1572:
        cmpl      %eax, %r13d                                   #378.3
..LN1573:
        jl        ..B11.64      # Prob 10%                      #378.3
..LN1574:
                                # LOE rcx r12 r14 r15 r13d
..B11.44:                       # Preds ..B11.43
..LN1575:
        movl      %r13d, %eax                                   #378.3
..LN1576:
        xorl      %ebx, %ebx                                    #378.3
..LN1577:
        subl      %ecx, %eax                                    #378.3
..LN1578:
        andl      $15, %eax                                     #378.3
..LN1579:
        negl      %eax                                          #378.3
..LN1580:
        addl      %r13d, %eax                                   #378.3
..LN1581:
        testq     %rcx, %rcx                                    #378.3
..LN1582:
        jbe       ..B11.48      # Prob 9%                       #378.3
..LN1583:
                                # LOE rcx rbx r12 r14 r15 eax r13d
..B11.45:                       # Preds ..B11.44
..LN1584:
	.loc    1  376  is_stmt 1
        vmovsd    .L_2il0floatpacket.2(%rip), %xmm0             #376.11
..LN1585:
                                # LOE rcx rbx r12 r14 r15 eax r13d xmm0
..B11.46:                       # Preds ..B11.46 ..B11.45
..L624:         # optimization report
                # LOOP WAS DISTRIBUTED, CHUNK 2
                # LOOP WAS UNROLLED BY 4
                # PEELED LOOP FOR VECTORIZATION
                # VECTORIZATION SPEEDUP COEFFECIENT 3.384766
                # VECTOR TRIP COUNT IS ESTIMATED CONSTANT
                # VECTOR LENGTH 4
                # NORMALIZED VECTORIZATION OVERHEAD 0.070312
..LN1586:
	.loc    1  383  is_stmt 1
        vmovsd    (%r15,%rbx,8), %xmm1                          #383.5
..LN1587:
        vdivsd    %xmm0, %xmm1, %xmm2                           #383.5
..LN1588:
        vmovsd    %xmm2, (%r15,%rbx,8)                          #383.5
..LN1589:
	.loc    1  378  is_stmt 1
        incq      %rbx                                          #378.3
..LN1590:
        cmpq      %rcx, %rbx                                    #378.3
..LN1591:
        jb        ..B11.46      # Prob 82%                      #378.3
..LN1592:
                                # LOE rcx rbx r12 r14 r15 eax r13d xmm0
..B11.48:                       # Preds ..B11.46 ..B11.44
..LN1593:
	.loc    1  376  is_stmt 1
        vmovupd   .L_2il0floatpacket.3(%rip), %ymm0             #376.11
..LN1594:
	.loc    1  378  is_stmt 1
        movslq    %eax, %rbx                                    #378.3
..LN1595:
        .align    16,0x90
..LN1596:
                                # LOE rcx rbx r12 r14 r15 eax r13d ymm0
..B11.49:                       # Preds ..B11.49 ..B11.48
..L625:         # optimization report
                # LOOP WAS DISTRIBUTED, CHUNK 2
                # LOOP WAS UNROLLED BY 4
                # LOOP WAS VECTORIZED
                # VECTORIZATION SPEEDUP COEFFECIENT 3.384766
                # VECTOR TRIP COUNT IS ESTIMATED CONSTANT
                # VECTOR LENGTH 4
                # NORMALIZED VECTORIZATION OVERHEAD 0.070312
                # MAIN VECTOR TYPE: 64-bits floating point
..LN1597:
	.loc    1  383  is_stmt 1
        lea       (%r15,%rcx,8), %rsi                           #383.5
..LN1598:
        vmovupd   (%rsi), %ymm1                                 #383.5
..LN1599:
        vmovupd   32(%rsi), %ymm2                               #383.5
..LN1600:
        vmovupd   64(%rsi), %ymm3                               #383.5
..LN1601:
        vmovupd   96(%rsi), %ymm4                               #383.5
..LN1602:
        vdivpd    %ymm0, %ymm1, %ymm5                           #383.5
..LN1603:
        vdivpd    %ymm0, %ymm2, %ymm6                           #383.5
..LN1604:
        vdivpd    %ymm0, %ymm3, %ymm7                           #383.5
..LN1605:
        vdivpd    %ymm0, %ymm4, %ymm8                           #383.5
..LN1606:
        vmovupd   %ymm5, (%rsi)                                 #383.5
..LN1607:
        vmovupd   %ymm6, 32(%rsi)                               #383.5
..LN1608:
        vmovupd   %ymm7, 64(%rsi)                               #383.5
..LN1609:
        vmovupd   %ymm8, 96(%rsi)                               #383.5
..LN1610:
	.loc    1  378  is_stmt 1
        addq      $16, %rcx                                     #378.3
..LN1611:
        cmpq      %rbx, %rcx                                    #378.3
..LN1612:
        jb        ..B11.49      # Prob 82%                      #378.3
..LN1613:
                                # LOE rcx rbx r12 r14 r15 eax r13d ymm0
..B11.51:                       # Preds ..B11.49 ..B11.64
..LN1614:
        lea       1(%rax), %ecx                                 #378.3
..LN1615:
        cmpl      %ecx, %r13d                                   #378.3
..LN1616:
        jb        ..B11.60      # Prob 50%                      #378.3
..LN1617:
                                # LOE r12 r14 r15 eax
..B11.52:                       # Preds ..B11.51
..LN1618:
        movslq    %eax, %rax                                    #378.3
..LN1619:
        movslq    10792(%rsp), %r8                              #378.3
..LN1620:
        subq      %rax, %r8                                     #378.3
..LN1621:
        cmpq      $4, %r8                                       #378.3
..LN1622:
        jl        ..B11.63      # Prob 10%                      #378.3
..LN1623:
                                # LOE r8 r12 r14 r15 eax
..B11.53:                       # Preds ..B11.52
..LN1624:
	.loc    1  383  is_stmt 1
        movslq    %eax, %rax                                    #383.5
..LN1625:
	.loc    1  378  is_stmt 1
        movl      %r8d, %ecx                                    #378.3
..LN1626:
        andl      $-4, %ecx                                     #378.3
..LN1627:
        xorl      %esi, %esi                                    #378.3
..LN1628:
        movslq    %ecx, %rcx                                    #378.3
..LN1629:
	.loc    1  376  is_stmt 1
        vmovupd   .L_2il0floatpacket.1(%rip), %ymm0             #376.11
..LN1630:
	.loc    1  383  is_stmt 1
        lea       (%r15,%rax,8), %rbx                           #383.5
..LN1631:
                                # LOE rcx rbx rsi r8 r12 r14 r15 eax ymm0
..B11.54:                       # Preds ..B11.54 ..B11.53
..L626:         # optimization report
                # LOOP WAS DISTRIBUTED, CHUNK 2
                # LOOP WAS VECTORIZED
                # REMAINDER LOOP FOR VECTORIZATION
                # VECTORIZATION HAS UNALIGNED MEMORY REFERENCES
                # VECTORIZATION SPEEDUP COEFFECIENT 2.162109
                # VECTOR TRIP COUNT IS ESTIMATED CONSTANT
                # VECTOR LENGTH 4
                # NORMALIZED VECTORIZATION OVERHEAD 0.406250
                # MAIN VECTOR TYPE: 64-bits floating point
..LN1632:
	.loc    1  378  is_stmt 1
        addq      $4, %rsi                                      #378.3
..LN1633:
	.loc    1  383  is_stmt 1
        vmovupd   (%rbx), %ymm1                                 #383.5
..LN1634:
        vdivpd    %ymm0, %ymm1, %ymm2                           #383.5
..LN1635:
        vmovupd   %ymm2, (%rbx)                                 #383.5
..LN1636:
	.loc    1  378  is_stmt 1
        addq      $32, %rbx                                     #378.3
..LN1637:
        cmpq      %rcx, %rsi                                    #378.3
..LN1638:
        jb        ..B11.54      # Prob 82%                      #378.3
..LN1639:
                                # LOE rcx rbx rsi r8 r12 r14 r15 eax ymm0
..B11.56:                       # Preds ..B11.54 ..B11.63
..LN1640:
        cmpq      %r8, %rcx                                     #378.3
..LN1641:
        jae       ..B11.60      # Prob 9%                       #378.3
..LN1642:
                                # LOE rcx r8 r12 r14 r15 eax
..B11.57:                       # Preds ..B11.56
..LN1643:
	.loc    1  383  is_stmt 1
        movslq    %eax, %rax                                    #383.5
..LN1644:
	.loc    1  376  is_stmt 1
        vmovsd    .L_2il0floatpacket.2(%rip), %xmm0             #376.11
..LN1645:
	.loc    1  383  is_stmt 1
        lea       (%r15,%rax,8), %rbx                           #383.5
..LN1646:
        lea       (%rbx,%rcx,8), %rax                           #383.5
..LN1647:
                                # LOE rax rcx r8 r12 r14 xmm0
..B11.58:                       # Preds ..B11.58 ..B11.57
..L627:         # optimization report
                # LOOP WAS DISTRIBUTED, CHUNK 2
                # REMAINDER LOOP FOR VECTORIZATION
                # VECTORIZATION SPEEDUP COEFFECIENT 2.162109
                # VECTOR TRIP COUNT IS ESTIMATED CONSTANT
                # VECTOR LENGTH 4
                # NORMALIZED VECTORIZATION OVERHEAD 0.406250
..LN1648:
	.loc    1  378  is_stmt 1
        incq      %rcx                                          #378.3
..LN1649:
	.loc    1  383  is_stmt 1
        vmovsd    (%rax), %xmm1                                 #383.5
..LN1650:
        vdivsd    %xmm0, %xmm1, %xmm2                           #383.5
..LN1651:
        vmovsd    %xmm2, (%rax)                                 #383.5
..LN1652:
	.loc    1  378  is_stmt 1
        addq      $8, %rax                                      #378.3
..LN1653:
        cmpq      %r8, %rcx                                     #378.3
..LN1654:
        jb        ..B11.58      # Prob 82%                      #378.3
..LN1655:
                                # LOE rax rcx r8 r12 r14 xmm0
..B11.60:                       # Preds ..B11.58 ..B11.56 ..B11.51 ..B11.36
..LN1656:
	.loc    1  386  is_stmt 1
        movq      %r14, %rdi                                    #386.3
..LN1657:
        vzeroupper                                              #386.3
..LN1658:
#       free(void *)
        call      free                                          #386.3
..LN1659:
                                # LOE r12
..B11.61:                       # Preds ..B11.60
..LN1660:
	.loc    1  387  is_stmt 1
        movq      %r12, %rdi                                    #387.3
..LN1661:
#       free(void *)
        call      free                                          #387.3
..LN1662:
                                # LOE
..B11.62:                       # Preds ..B11.61
..LN1663:
	.loc    1  360  epilogue_begin  is_stmt 1
        addq      $10840, %rsp                                  #360.1
	.cfi_restore 3
..LN1664:
        popq      %rbx                                          #360.1
	.cfi_restore 15
..LN1665:
        popq      %r15                                          #360.1
	.cfi_restore 14
..LN1666:
        popq      %r14                                          #360.1
	.cfi_restore 13
..LN1667:
        popq      %r13                                          #360.1
	.cfi_restore 12
..LN1668:
        popq      %r12                                          #360.1
..LN1669:
        movq      %rbp, %rsp                                    #360.1
..LN1670:
        popq      %rbp                                          #360.1
	.cfi_def_cfa 7, 8
	.cfi_restore 6
..LN1671:
        ret                                                     #360.1
	.cfi_def_cfa 6, 16
	.cfi_escape 0x10, 0x03, 0x0e, 0x38, 0x1c, 0x0d, 0xe0, 0xff, 0xff, 0xff, 0x1a, 0x0d, 0xd8, 0xff, 0xff, 0xff, 0x22
	.cfi_offset 6, -16
	.cfi_escape 0x10, 0x0c, 0x0e, 0x38, 0x1c, 0x0d, 0xe0, 0xff, 0xff, 0xff, 0x1a, 0x0d, 0xf8, 0xff, 0xff, 0xff, 0x22
	.cfi_escape 0x10, 0x0d, 0x0e, 0x38, 0x1c, 0x0d, 0xe0, 0xff, 0xff, 0xff, 0x1a, 0x0d, 0xf0, 0xff, 0xff, 0xff, 0x22
	.cfi_escape 0x10, 0x0e, 0x0e, 0x38, 0x1c, 0x0d, 0xe0, 0xff, 0xff, 0xff, 0x1a, 0x0d, 0xe8, 0xff, 0xff, 0xff, 0x22
	.cfi_escape 0x10, 0x0f, 0x0e, 0x38, 0x1c, 0x0d, 0xe0, 0xff, 0xff, 0xff, 0x1a, 0x0d, 0xe0, 0xff, 0xff, 0xff, 0x22
..LN1672:
                                # LOE
..B11.63:                       # Preds ..B11.52                # Infreq
..LN1673:
	.loc    1  378  is_stmt 1
        xorl      %ecx, %ecx                                    #378.3
..LN1674:
        jmp       ..B11.56      # Prob 100%                     #378.3
..LN1675:
                                # LOE rcx r8 r12 r14 r15 eax
..B11.64:                       # Preds ..B11.39 ..B11.41 ..B11.43 # Infreq
..LN1676:
        xorl      %eax, %eax                                    #378.3
..LN1677:
        jmp       ..B11.51      # Prob 100%                     #378.3
..LN1678:
                                # LOE r12 r14 r15 eax r13d
..B11.67:                       # Preds ..B11.35                # Infreq
..LN1679:
	.loc    1  289  is_stmt 1
        movl      $.L_2__STRING.7, %esi                         #289.5
..LN1680:
        lea       8192(%rsp), %rdi                              #289.5
..LN1681:
        movq      %rbx, %rdx                                    #289.5
..LN1682:
        xorl      %eax, %eax                                    #289.5
..LN1683:
        movl      %r8d, 2048(%rdi)                              #289.5
..LN1684:
#       sprintf(char *__restrict__, const char *__restrict__, ...)
        call      sprintf                                       #289.5
..LN1685:
                                # LOE r12 r14 r15 r13d
..B11.68:                       # Preds ..B11.67                # Infreq
..LN1686:
        movl      10240(%rsp), %r8d                             #
..LN1687:
	.loc    1  48  is_stmt 1
        movl      %r8d, %edi                                    #48.35
..___tag_value_read_mosaic_xgrid_order1_.643:
..LN1688:
#       nc_strerror(int)
        call      nc_strerror                                   #48.35
..___tag_value_read_mosaic_xgrid_order1_.644:
..LN1689:
                                # LOE rax r12 r14 r15 r13d
..B11.69:                       # Preds ..B11.68                # Infreq
..LN1690:
        movl      $.L_2__STRING.0, %esi                         #48.3
..LN1691:
        lea       10240(%rsp), %rdi                             #48.3
..LN1692:
        movq      %rax, %rcx                                    #48.3
..LN1693:
        lea       8192(%rsp), %rdx                              #48.3
..LN1694:
        xorl      %eax, %eax                                    #48.3
..LN1695:
#       sprintf(char *__restrict__, const char *__restrict__, ...)
        call      sprintf                                       #48.3
..LN1696:
                                # LOE r12 r14 r15 r13d
..B11.70:                       # Preds ..B11.69                # Infreq
..LN1697:
	.loc    1  49  is_stmt 1
        lea       10240(%rsp), %rdi                             #49.3
..___tag_value_read_mosaic_xgrid_order1_.645:
..LN1698:
#       error_handler(const char *)
        call      error_handler                                 #49.3
..___tag_value_read_mosaic_xgrid_order1_.646:
..LN1699:
        jmp       ..B11.36      # Prob 100%                     #49.3
..LN1700:
                                # LOE r12 r14 r15 r13d
..B11.71:                       # Preds ..B11.33                # Infreq
..LN1701:
	.loc    1  284  is_stmt 1
        movl      $.L_2__STRING.10, %esi                        #284.5
..LN1702:
        lea       8192(%rsp), %rdi                              #284.5
..LN1703:
        movl      $.L_2__STRING.16, %edx                        #284.5
..LN1704:
        movq      %rbx, %rcx                                    #284.5
..LN1705:
        xorl      %eax, %eax                                    #284.5
..LN1706:
        movl      %r8d, 1536(%rdi)                              #284.5
..LN1707:
#       sprintf(char *__restrict__, const char *__restrict__, ...)
        call      sprintf                                       #284.5
..LN1708:
                                # LOE rbx r12 r14 r15 r13d
..B11.72:                       # Preds ..B11.71                # Infreq
..LN1709:
        movl      9728(%rsp), %r8d                              #
..LN1710:
	.loc    1  48  is_stmt 1
        movl      %r8d, %edi                                    #48.35
..___tag_value_read_mosaic_xgrid_order1_.647:
..LN1711:
#       nc_strerror(int)
        call      nc_strerror                                   #48.35
..___tag_value_read_mosaic_xgrid_order1_.648:
..LN1712:
                                # LOE rax rbx r12 r14 r15 r13d
..B11.73:                       # Preds ..B11.72                # Infreq
..LN1713:
        movl      $.L_2__STRING.0, %esi                         #48.3
..LN1714:
        lea       9728(%rsp), %rdi                              #48.3
..LN1715:
        movq      %rax, %rcx                                    #48.3
..LN1716:
        lea       8192(%rsp), %rdx                              #48.3
..LN1717:
        xorl      %eax, %eax                                    #48.3
..LN1718:
#       sprintf(char *__restrict__, const char *__restrict__, ...)
        call      sprintf                                       #48.3
..LN1719:
                                # LOE rbx r12 r14 r15 r13d
..B11.74:                       # Preds ..B11.73                # Infreq
..LN1720:
	.loc    1  49  is_stmt 1
        lea       9728(%rsp), %rdi                              #49.3
..___tag_value_read_mosaic_xgrid_order1_.649:
..LN1721:
#       error_handler(const char *)
        call      error_handler                                 #49.3
..___tag_value_read_mosaic_xgrid_order1_.650:
..LN1722:
        jmp       ..B11.34      # Prob 100%                     #49.3
..LN1723:
                                # LOE rbx r12 r14 r15 r13d
..B11.75:                       # Preds ..B11.31                # Infreq
..LN1724:
	.loc    1  279  is_stmt 1
        movl      $.L_2__STRING.9, %esi                         #279.5
..LN1725:
        lea       8192(%rsp), %rdi                              #279.5
..LN1726:
        movl      $.L_2__STRING.16, %edx                        #279.5
..LN1727:
        movq      %rbx, %rcx                                    #279.5
..LN1728:
        xorl      %eax, %eax                                    #279.5
..LN1729:
        movl      %r8d, 1024(%rdi)                              #279.5
..LN1730:
#       sprintf(char *__restrict__, const char *__restrict__, ...)
        call      sprintf                                       #279.5
..LN1731:
                                # LOE rbx r12 r14 r15 r13d
..B11.76:                       # Preds ..B11.75                # Infreq
..LN1732:
        movl      9216(%rsp), %r8d                              #
..LN1733:
	.loc    1  48  is_stmt 1
        movl      %r8d, %edi                                    #48.35
..___tag_value_read_mosaic_xgrid_order1_.651:
..LN1734:
#       nc_strerror(int)
        call      nc_strerror                                   #48.35
..___tag_value_read_mosaic_xgrid_order1_.652:
..LN1735:
                                # LOE rax rbx r12 r14 r15 r13d
..B11.77:                       # Preds ..B11.76                # Infreq
..LN1736:
        movl      $.L_2__STRING.0, %esi                         #48.3
..LN1737:
        lea       9216(%rsp), %rdi                              #48.3
..LN1738:
        movq      %rax, %rcx                                    #48.3
..LN1739:
        lea       8192(%rsp), %rdx                              #48.3
..LN1740:
        xorl      %eax, %eax                                    #48.3
..LN1741:
#       sprintf(char *__restrict__, const char *__restrict__, ...)
        call      sprintf                                       #48.3
..LN1742:
                                # LOE rbx r12 r14 r15 r13d
..B11.78:                       # Preds ..B11.77                # Infreq
..LN1743:
	.loc    1  49  is_stmt 1
        lea       9216(%rsp), %rdi                              #49.3
..___tag_value_read_mosaic_xgrid_order1_.653:
..LN1744:
#       error_handler(const char *)
        call      error_handler                                 #49.3
..___tag_value_read_mosaic_xgrid_order1_.654:
..LN1745:
        jmp       ..B11.32      # Prob 100%                     #49.3
..LN1746:
                                # LOE rbx r12 r14 r15 r13d
..B11.79:                       # Preds ..B11.29                # Infreq
..LN1747:
	.loc    1  274  is_stmt 1
        movl      $.L_2__STRING.4, %esi                         #274.5
..LN1748:
        lea       8192(%rsp), %rdi                              #274.5
..LN1749:
        movq      %rbx, %rdx                                    #274.5
..LN1750:
        xorl      %eax, %eax                                    #274.5
..LN1751:
        movl      %r8d, 512(%rdi)                               #274.5
..LN1752:
#       sprintf(char *__restrict__, const char *__restrict__, ...)
        call      sprintf                                       #274.5
..LN1753:
                                # LOE rbx r12 r14 r15 r13d
..B11.80:                       # Preds ..B11.79                # Infreq
..LN1754:
        movl      8704(%rsp), %r8d                              #
..LN1755:
	.loc    1  48  is_stmt 1
        movl      %r8d, %edi                                    #48.35
..___tag_value_read_mosaic_xgrid_order1_.655:
..LN1756:
#       nc_strerror(int)
        call      nc_strerror                                   #48.35
..___tag_value_read_mosaic_xgrid_order1_.656:
..LN1757:
                                # LOE rax rbx r12 r14 r15 r13d
..B11.81:                       # Preds ..B11.80                # Infreq
..LN1758:
        movl      $.L_2__STRING.0, %esi                         #48.3
..LN1759:
        lea       8704(%rsp), %rdi                              #48.3
..LN1760:
        movq      %rax, %rcx                                    #48.3
..LN1761:
        lea       8192(%rsp), %rdx                              #48.3
..LN1762:
        xorl      %eax, %eax                                    #48.3
..LN1763:
#       sprintf(char *__restrict__, const char *__restrict__, ...)
        call      sprintf                                       #48.3
..LN1764:
                                # LOE rbx r12 r14 r15 r13d
..B11.82:                       # Preds ..B11.81                # Infreq
..LN1765:
	.loc    1  49  is_stmt 1
        lea       8704(%rsp), %rdi                              #49.3
..___tag_value_read_mosaic_xgrid_order1_.657:
..LN1766:
#       error_handler(const char *)
        call      error_handler                                 #49.3
..___tag_value_read_mosaic_xgrid_order1_.658:
..LN1767:
        jmp       ..B11.30      # Prob 100%                     #49.3
..LN1768:
                                # LOE rbx r12 r14 r15 r13d
..B11.83:                       # Preds ..B11.27                # Infreq
..LN1769:
	.loc    1  253  is_stmt 1
        movl      $.L_2__STRING.7, %esi                         #253.5
..LN1770:
        lea       5632(%rsp), %rdi                              #253.5
..LN1771:
        movq      %rbx, %rdx                                    #253.5
..LN1772:
        xorl      %eax, %eax                                    #253.5
..LN1773:
        movl      %r8d, 2048(%rdi)                              #253.5
..LN1774:
#       sprintf(char *__restrict__, const char *__restrict__, ...)
        call      sprintf                                       #253.5
..LN1775:
                                # LOE rbx r12 r14 r15 r13d
..B11.84:                       # Preds ..B11.83                # Infreq
..LN1776:
        movl      7680(%rsp), %r8d                              #
..LN1777:
	.loc    1  48  is_stmt 1
        movl      %r8d, %edi                                    #48.35
..___tag_value_read_mosaic_xgrid_order1_.659:
..LN1778:
#       nc_strerror(int)
        call      nc_strerror                                   #48.35
..___tag_value_read_mosaic_xgrid_order1_.660:
..LN1779:
                                # LOE rax rbx r12 r14 r15 r13d
..B11.85:                       # Preds ..B11.84                # Infreq
..LN1780:
        movl      $.L_2__STRING.0, %esi                         #48.3
..LN1781:
        lea       7680(%rsp), %rdi                              #48.3
..LN1782:
        movq      %rax, %rcx                                    #48.3
..LN1783:
        lea       5632(%rsp), %rdx                              #48.3
..LN1784:
        xorl      %eax, %eax                                    #48.3
..LN1785:
#       sprintf(char *__restrict__, const char *__restrict__, ...)
        call      sprintf                                       #48.3
..LN1786:
                                # LOE rbx r12 r14 r15 r13d
..B11.86:                       # Preds ..B11.85                # Infreq
..LN1787:
	.loc    1  49  is_stmt 1
        lea       7680(%rsp), %rdi                              #49.3
..___tag_value_read_mosaic_xgrid_order1_.661:
..LN1788:
#       error_handler(const char *)
        call      error_handler                                 #49.3
..___tag_value_read_mosaic_xgrid_order1_.662:
..LN1789:
        jmp       ..B11.28      # Prob 100%                     #49.3
..LN1790:
                                # LOE rbx r12 r14 r15 r13d
..B11.87:                       # Preds ..B11.25                # Infreq
..LN1791:
	.loc    1  248  is_stmt 1
        movl      $.L_2__STRING.11, %esi                        #248.5
..LN1792:
        lea       5632(%rsp), %rdi                              #248.5
..LN1793:
        movl      $.L_2__STRING.15, %edx                        #248.5
..LN1794:
        movq      %rbx, %rcx                                    #248.5
..LN1795:
        xorl      %eax, %eax                                    #248.5
..LN1796:
        movl      %r8d, 1536(%rdi)                              #248.5
..LN1797:
#       sprintf(char *__restrict__, const char *__restrict__, ...)
        call      sprintf                                       #248.5
..LN1798:
                                # LOE rbx r12 r14 r15 r13d
..B11.88:                       # Preds ..B11.87                # Infreq
..LN1799:
        movl      7168(%rsp), %r8d                              #
..LN1800:
	.loc    1  48  is_stmt 1
        movl      %r8d, %edi                                    #48.35
..___tag_value_read_mosaic_xgrid_order1_.663:
..LN1801:
#       nc_strerror(int)
        call      nc_strerror                                   #48.35
..___tag_value_read_mosaic_xgrid_order1_.664:
..LN1802:
                                # LOE rax rbx r12 r14 r15 r13d
..B11.89:                       # Preds ..B11.88                # Infreq
..LN1803:
        movl      $.L_2__STRING.0, %esi                         #48.3
..LN1804:
        lea       7168(%rsp), %rdi                              #48.3
..LN1805:
        movq      %rax, %rcx                                    #48.3
..LN1806:
        lea       5632(%rsp), %rdx                              #48.3
..LN1807:
        xorl      %eax, %eax                                    #48.3
..LN1808:
#       sprintf(char *__restrict__, const char *__restrict__, ...)
        call      sprintf                                       #48.3
..LN1809:
                                # LOE rbx r12 r14 r15 r13d
..B11.90:                       # Preds ..B11.89                # Infreq
..LN1810:
	.loc    1  49  is_stmt 1
        lea       7168(%rsp), %rdi                              #49.3
..___tag_value_read_mosaic_xgrid_order1_.665:
..LN1811:
#       error_handler(const char *)
        call      error_handler                                 #49.3
..___tag_value_read_mosaic_xgrid_order1_.666:
..LN1812:
        jmp       ..B11.26      # Prob 100%                     #49.3
..LN1813:
                                # LOE rbx r12 r14 r15 r13d
..B11.91:                       # Preds ..B11.23                # Infreq
..LN1814:
	.loc    1  243  is_stmt 1
        movl      $.L_2__STRING.9, %esi                         #243.5
..LN1815:
        lea       5632(%rsp), %rdi                              #243.5
..LN1816:
        movl      $.L_2__STRING.15, %edx                        #243.5
..LN1817:
        movq      %rbx, %rcx                                    #243.5
..LN1818:
        xorl      %eax, %eax                                    #243.5
..LN1819:
        movl      %r8d, 1024(%rdi)                              #243.5
..LN1820:
#       sprintf(char *__restrict__, const char *__restrict__, ...)
        call      sprintf                                       #243.5
..LN1821:
                                # LOE rbx r12 r14 r15 r13d
..B11.92:                       # Preds ..B11.91                # Infreq
..LN1822:
        movl      6656(%rsp), %r8d                              #
..LN1823:
	.loc    1  48  is_stmt 1
        movl      %r8d, %edi                                    #48.35
..___tag_value_read_mosaic_xgrid_order1_.667:
..LN1824:
#       nc_strerror(int)
        call      nc_strerror                                   #48.35
..___tag_value_read_mosaic_xgrid_order1_.668:
..LN1825:
                                # LOE rax rbx r12 r14 r15 r13d
..B11.93:                       # Preds ..B11.92                # Infreq
..LN1826:
        movl      $.L_2__STRING.0, %esi                         #48.3
..LN1827:
        lea       6656(%rsp), %rdi                              #48.3
..LN1828:
        movq      %rax, %rcx                                    #48.3
..LN1829:
        lea       5632(%rsp), %rdx                              #48.3
..LN1830:
        xorl      %eax, %eax                                    #48.3
..LN1831:
#       sprintf(char *__restrict__, const char *__restrict__, ...)
        call      sprintf                                       #48.3
..LN1832:
                                # LOE rbx r12 r14 r15 r13d
..B11.94:                       # Preds ..B11.93                # Infreq
..LN1833:
	.loc    1  49  is_stmt 1
        lea       6656(%rsp), %rdi                              #49.3
..___tag_value_read_mosaic_xgrid_order1_.669:
..LN1834:
#       error_handler(const char *)
        call      error_handler                                 #49.3
..___tag_value_read_mosaic_xgrid_order1_.670:
..LN1835:
        jmp       ..B11.24      # Prob 100%                     #49.3
..LN1836:
                                # LOE rbx r12 r14 r15 r13d
..B11.95:                       # Preds ..B11.21                # Infreq
..LN1837:
	.loc    1  238  is_stmt 1
        movl      $.L_2__STRING.4, %esi                         #238.5
..LN1838:
        lea       5632(%rsp), %rdi                              #238.5
..LN1839:
        movq      %rbx, %rdx                                    #238.5
..LN1840:
        xorl      %eax, %eax                                    #238.5
..LN1841:
        movl      %r8d, 512(%rdi)                               #238.5
..LN1842:
#       sprintf(char *__restrict__, const char *__restrict__, ...)
        call      sprintf                                       #238.5
..LN1843:
                                # LOE rbx r12 r14 r15 r13d
..B11.96:                       # Preds ..B11.95                # Infreq
..LN1844:
        movl      6144(%rsp), %r8d                              #
..LN1845:
	.loc    1  48  is_stmt 1
        movl      %r8d, %edi                                    #48.35
..___tag_value_read_mosaic_xgrid_order1_.671:
..LN1846:
#       nc_strerror(int)
        call      nc_strerror                                   #48.35
..___tag_value_read_mosaic_xgrid_order1_.672:
..LN1847:
                                # LOE rax rbx r12 r14 r15 r13d
..B11.97:                       # Preds ..B11.96                # Infreq
..LN1848:
        movl      $.L_2__STRING.0, %esi                         #48.3
..LN1849:
        lea       6144(%rsp), %rdi                              #48.3
..LN1850:
        movq      %rax, %rcx                                    #48.3
..LN1851:
        lea       5632(%rsp), %rdx                              #48.3
..LN1852:
        xorl      %eax, %eax                                    #48.3
..LN1853:
#       sprintf(char *__restrict__, const char *__restrict__, ...)
        call      sprintf                                       #48.3
..LN1854:
                                # LOE rbx r12 r14 r15 r13d
..B11.98:                       # Preds ..B11.97                # Infreq
..LN1855:
	.loc    1  49  is_stmt 1
        lea       6144(%rsp), %rdi                              #49.3
..___tag_value_read_mosaic_xgrid_order1_.673:
..LN1856:
#       error_handler(const char *)
        call      error_handler                                 #49.3
..___tag_value_read_mosaic_xgrid_order1_.674:
..LN1857:
        jmp       ..B11.22      # Prob 100%                     #49.3
..LN1858:
                                # LOE rbx r12 r14 r15 r13d
..B11.99:                       # Preds ..B11.19                # Infreq
..LN1859:
	.loc    1  253  is_stmt 1
        movl      $.L_2__STRING.7, %esi                         #253.5
..LN1860:
        lea       3072(%rsp), %rdi                              #253.5
..LN1861:
        movq      %rbx, %rdx                                    #253.5
..LN1862:
        xorl      %eax, %eax                                    #253.5
..LN1863:
        movl      %r8d, 2048(%rdi)                              #253.5
..LN1864:
#       sprintf(char *__restrict__, const char *__restrict__, ...)
        call      sprintf                                       #253.5
..LN1865:
                                # LOE rbx r12 r14 r15 r13d
..B11.100:                      # Preds ..B11.99                # Infreq
..LN1866:
        movl      5120(%rsp), %r8d                              #
..LN1867:
	.loc    1  48  is_stmt 1
        movl      %r8d, %edi                                    #48.35
..___tag_value_read_mosaic_xgrid_order1_.675:
..LN1868:
#       nc_strerror(int)
        call      nc_strerror                                   #48.35
..___tag_value_read_mosaic_xgrid_order1_.676:
..LN1869:
                                # LOE rax rbx r12 r14 r15 r13d
..B11.101:                      # Preds ..B11.100               # Infreq
..LN1870:
        movl      $.L_2__STRING.0, %esi                         #48.3
..LN1871:
        lea       5120(%rsp), %rdi                              #48.3
..LN1872:
        movq      %rax, %rcx                                    #48.3
..LN1873:
        lea       3072(%rsp), %rdx                              #48.3
..LN1874:
        xorl      %eax, %eax                                    #48.3
..LN1875:
#       sprintf(char *__restrict__, const char *__restrict__, ...)
        call      sprintf                                       #48.3
..LN1876:
                                # LOE rbx r12 r14 r15 r13d
..B11.102:                      # Preds ..B11.101               # Infreq
..LN1877:
	.loc    1  49  is_stmt 1
        lea       5120(%rsp), %rdi                              #49.3
..___tag_value_read_mosaic_xgrid_order1_.677:
..LN1878:
#       error_handler(const char *)
        call      error_handler                                 #49.3
..___tag_value_read_mosaic_xgrid_order1_.678:
..LN1879:
        jmp       ..B11.20      # Prob 100%                     #49.3
..LN1880:
                                # LOE rbx r12 r14 r15 r13d
..B11.103:                      # Preds ..B11.17                # Infreq
..LN1881:
	.loc    1  248  is_stmt 1
        movl      $.L_2__STRING.11, %esi                        #248.5
..LN1882:
        lea       3072(%rsp), %rdi                              #248.5
..LN1883:
        movl      $.L_2__STRING.14, %edx                        #248.5
..LN1884:
        movq      %rbx, %rcx                                    #248.5
..LN1885:
        xorl      %eax, %eax                                    #248.5
..LN1886:
        movl      %r8d, 1536(%rdi)                              #248.5
..LN1887:
#       sprintf(char *__restrict__, const char *__restrict__, ...)
        call      sprintf                                       #248.5
..LN1888:
                                # LOE rbx r12 r14 r15 r13d
..B11.104:                      # Preds ..B11.103               # Infreq
..LN1889:
        movl      4608(%rsp), %r8d                              #
..LN1890:
	.loc    1  48  is_stmt 1
        movl      %r8d, %edi                                    #48.35
..___tag_value_read_mosaic_xgrid_order1_.679:
..LN1891:
#       nc_strerror(int)
        call      nc_strerror                                   #48.35
..___tag_value_read_mosaic_xgrid_order1_.680:
..LN1892:
                                # LOE rax rbx r12 r14 r15 r13d
..B11.105:                      # Preds ..B11.104               # Infreq
..LN1893:
        movl      $.L_2__STRING.0, %esi                         #48.3
..LN1894:
        lea       4608(%rsp), %rdi                              #48.3
..LN1895:
        movq      %rax, %rcx                                    #48.3
..LN1896:
        lea       3072(%rsp), %rdx                              #48.3
..LN1897:
        xorl      %eax, %eax                                    #48.3
..LN1898:
#       sprintf(char *__restrict__, const char *__restrict__, ...)
        call      sprintf                                       #48.3
..LN1899:
                                # LOE rbx r12 r14 r15 r13d
..B11.106:                      # Preds ..B11.105               # Infreq
..LN1900:
	.loc    1  49  is_stmt 1
        lea       4608(%rsp), %rdi                              #49.3
..___tag_value_read_mosaic_xgrid_order1_.681:
..LN1901:
#       error_handler(const char *)
        call      error_handler                                 #49.3
..___tag_value_read_mosaic_xgrid_order1_.682:
..LN1902:
        jmp       ..B11.18      # Prob 100%                     #49.3
..LN1903:
                                # LOE rbx r12 r14 r15 r13d
..B11.107:                      # Preds ..B11.15                # Infreq
..LN1904:
	.loc    1  243  is_stmt 1
        movl      $.L_2__STRING.9, %esi                         #243.5
..LN1905:
        lea       3072(%rsp), %rdi                              #243.5
..LN1906:
        movl      $.L_2__STRING.14, %edx                        #243.5
..LN1907:
        movq      %rbx, %rcx                                    #243.5
..LN1908:
        xorl      %eax, %eax                                    #243.5
..LN1909:
        movl      %r8d, 1024(%rdi)                              #243.5
..LN1910:
#       sprintf(char *__restrict__, const char *__restrict__, ...)
        call      sprintf                                       #243.5
..LN1911:
                                # LOE rbx r12 r14 r15 r13d
..B11.108:                      # Preds ..B11.107               # Infreq
..LN1912:
        movl      4096(%rsp), %r8d                              #
..LN1913:
	.loc    1  48  is_stmt 1
        movl      %r8d, %edi                                    #48.35
..___tag_value_read_mosaic_xgrid_order1_.683:
..LN1914:
#       nc_strerror(int)
        call      nc_strerror                                   #48.35
..___tag_value_read_mosaic_xgrid_order1_.684:
..LN1915:
                                # LOE rax rbx r12 r14 r15 r13d
..B11.109:                      # Preds ..B11.108               # Infreq
..LN1916:
        movl      $.L_2__STRING.0, %esi                         #48.3
..LN1917:
        lea       4096(%rsp), %rdi                              #48.3
..LN1918:
        movq      %rax, %rcx                                    #48.3
..LN1919:
        lea       3072(%rsp), %rdx                              #48.3
..LN1920:
        xorl      %eax, %eax                                    #48.3
..LN1921:
#       sprintf(char *__restrict__, const char *__restrict__, ...)
        call      sprintf                                       #48.3
..LN1922:
                                # LOE rbx r12 r14 r15 r13d
..B11.110:                      # Preds ..B11.109               # Infreq
..LN1923:
	.loc    1  49  is_stmt 1
        lea       4096(%rsp), %rdi                              #49.3
..___tag_value_read_mosaic_xgrid_order1_.685:
..LN1924:
#       error_handler(const char *)
        call      error_handler                                 #49.3
..___tag_value_read_mosaic_xgrid_order1_.686:
..LN1925:
        jmp       ..B11.16      # Prob 100%                     #49.3
..LN1926:
                                # LOE rbx r12 r14 r15 r13d
..B11.111:                      # Preds ..B11.13                # Infreq
..LN1927:
	.loc    1  238  is_stmt 1
        movl      $.L_2__STRING.4, %esi                         #238.5
..LN1928:
        lea       3072(%rsp), %rdi                              #238.5
..LN1929:
        movq      %rbx, %rdx                                    #238.5
..LN1930:
        xorl      %eax, %eax                                    #238.5
..LN1931:
        movl      %r8d, 512(%rdi)                               #238.5
..LN1932:
#       sprintf(char *__restrict__, const char *__restrict__, ...)
        call      sprintf                                       #238.5
..LN1933:
                                # LOE rbx r12 r14 r15 r13d
..B11.112:                      # Preds ..B11.111               # Infreq
..LN1934:
        movl      3584(%rsp), %r8d                              #
..LN1935:
	.loc    1  48  is_stmt 1
        movl      %r8d, %edi                                    #48.35
..___tag_value_read_mosaic_xgrid_order1_.687:
..LN1936:
#       nc_strerror(int)
        call      nc_strerror                                   #48.35
..___tag_value_read_mosaic_xgrid_order1_.688:
..LN1937:
                                # LOE rax rbx r12 r14 r15 r13d
..B11.113:                      # Preds ..B11.112               # Infreq
..LN1938:
        movl      $.L_2__STRING.0, %esi                         #48.3
..LN1939:
        lea       3584(%rsp), %rdi                              #48.3
..LN1940:
        movq      %rax, %rcx                                    #48.3
..LN1941:
        lea       3072(%rsp), %rdx                              #48.3
..LN1942:
        xorl      %eax, %eax                                    #48.3
..LN1943:
#       sprintf(char *__restrict__, const char *__restrict__, ...)
        call      sprintf                                       #48.3
..LN1944:
                                # LOE rbx r12 r14 r15 r13d
..B11.114:                      # Preds ..B11.113               # Infreq
..LN1945:
	.loc    1  49  is_stmt 1
        lea       3584(%rsp), %rdi                              #49.3
..___tag_value_read_mosaic_xgrid_order1_.689:
..LN1946:
#       error_handler(const char *)
        call      error_handler                                 #49.3
..___tag_value_read_mosaic_xgrid_order1_.690:
..LN1947:
        jmp       ..B11.14      # Prob 100%                     #49.3
..LN1948:
                                # LOE rbx r12 r14 r15 r13d
..B11.115:                      # Preds ..B11.9                 # Infreq
..LN1949:
	.loc    1  140  is_stmt 1
        movl      $.L_2__STRING.8, %esi                         #140.5
..LN1950:
        lea       (%rsp), %rdi                                  #140.5
..LN1951:
        movq      %rbx, %rdx                                    #140.5
..LN1952:
        xorl      %eax, %eax                                    #140.5
..LN1953:
#       sprintf(char *__restrict__, const char *__restrict__, ...)
        call      sprintf                                       #140.5
..LN1954:
                                # LOE rbx r15 r12d r13d
..B11.116:                      # Preds ..B11.115               # Infreq
..LN1955:
	.loc    1  48  is_stmt 1
        movl      %r12d, %edi                                   #48.35
..___tag_value_read_mosaic_xgrid_order1_.691:
..LN1956:
#       nc_strerror(int)
        call      nc_strerror                                   #48.35
..___tag_value_read_mosaic_xgrid_order1_.692:
..LN1957:
                                # LOE rax rbx r15 r13d
..B11.117:                      # Preds ..B11.116               # Infreq
..LN1958:
        movl      $.L_2__STRING.0, %esi                         #48.3
..LN1959:
        lea       2560(%rsp), %rdi                              #48.3
..LN1960:
        movq      %rax, %rcx                                    #48.3
..LN1961:
        lea       (%rsp), %rdx                                  #48.3
..LN1962:
        xorl      %eax, %eax                                    #48.3
..LN1963:
#       sprintf(char *__restrict__, const char *__restrict__, ...)
        call      sprintf                                       #48.3
..LN1964:
                                # LOE rbx r15 r13d
..B11.118:                      # Preds ..B11.117               # Infreq
..LN1965:
	.loc    1  49  is_stmt 1
        lea       2560(%rsp), %rdi                              #49.3
..___tag_value_read_mosaic_xgrid_order1_.693:
..LN1966:
#       error_handler(const char *)
        call      error_handler                                 #49.3
..___tag_value_read_mosaic_xgrid_order1_.694:
..LN1967:
        jmp       ..B11.10      # Prob 100%                     #49.3
..LN1968:
                                # LOE rbx r15 r13d
..B11.119:                      # Preds ..B11.8                 # Infreq
..LN1969:
	.loc    1  134  is_stmt 1
        movl      $.L_2__STRING.7, %esi                         #134.5
..LN1970:
        lea       (%rsp), %rdi                                  #134.5
..LN1971:
        movq      %rbx, %rdx                                    #134.5
..LN1972:
        xorl      %eax, %eax                                    #134.5
..LN1973:
#       sprintf(char *__restrict__, const char *__restrict__, ...)
        call      sprintf                                       #134.5
..LN1974:
                                # LOE rbx r15 r12d
..B11.120:                      # Preds ..B11.119               # Infreq
..LN1975:
	.loc    1  48  is_stmt 1
        movl      %r12d, %edi                                   #48.35
..___tag_value_read_mosaic_xgrid_order1_.695:
..LN1976:
#       nc_strerror(int)
        call      nc_strerror                                   #48.35
..___tag_value_read_mosaic_xgrid_order1_.696:
..LN1977:
                                # LOE rax rbx r15 r12d
..B11.121:                      # Preds ..B11.120               # Infreq
..LN1978:
        movl      $.L_2__STRING.0, %esi                         #48.3
..LN1979:
        lea       2048(%rsp), %rdi                              #48.3
..LN1980:
        movq      %rax, %rcx                                    #48.3
..LN1981:
        lea       (%rsp), %rdx                                  #48.3
..LN1982:
        xorl      %eax, %eax                                    #48.3
..LN1983:
#       sprintf(char *__restrict__, const char *__restrict__, ...)
        call      sprintf                                       #48.3
..LN1984:
                                # LOE rbx r15 r12d
..B11.122:                      # Preds ..B11.121               # Infreq
..LN1985:
	.loc    1  49  is_stmt 1
        lea       2048(%rsp), %rdi                              #49.3
..___tag_value_read_mosaic_xgrid_order1_.697:
..LN1986:
#       error_handler(const char *)
        call      error_handler                                 #49.3
..___tag_value_read_mosaic_xgrid_order1_.698:
..LN1987:
	.loc    1  133  is_stmt 1
        testl     %r12d, %r12d                                  #133.16
..LN1988:
        jmp       ..B11.9       # Prob 100%                     #133.16
..LN1989:
                                # LOE rbx r15 r12d
..B11.123:                      # Preds ..B11.6                 # Infreq
..LN1990:
	.loc    1  129  is_stmt 1
        movl      $.L_2__STRING.6, %esi                         #129.5
..LN1991:
        lea       (%rsp), %rdi                                  #129.5
..LN1992:
        movl      $.L_2__STRING.13, %edx                        #129.5
..LN1993:
        movq      %rbx, %rcx                                    #129.5
..LN1994:
        xorl      %eax, %eax                                    #129.5
..LN1995:
#       sprintf(char *__restrict__, const char *__restrict__, ...)
        call      sprintf                                       #129.5
..LN1996:
                                # LOE rbx r15 r12d
..B11.124:                      # Preds ..B11.123               # Infreq
..LN1997:
	.loc    1  48  is_stmt 1
        movl      %r12d, %edi                                   #48.35
..___tag_value_read_mosaic_xgrid_order1_.699:
..LN1998:
#       nc_strerror(int)
        call      nc_strerror                                   #48.35
..___tag_value_read_mosaic_xgrid_order1_.700:
..LN1999:
                                # LOE rax rbx r15
..B11.125:                      # Preds ..B11.124               # Infreq
..LN2000:
        movl      $.L_2__STRING.0, %esi                         #48.3
..LN2001:
        lea       1536(%rsp), %rdi                              #48.3
..LN2002:
        movq      %rax, %rcx                                    #48.3
..LN2003:
        lea       (%rsp), %rdx                                  #48.3
..LN2004:
        xorl      %eax, %eax                                    #48.3
..LN2005:
#       sprintf(char *__restrict__, const char *__restrict__, ...)
        call      sprintf                                       #48.3
..LN2006:
                                # LOE rbx r15
..B11.126:                      # Preds ..B11.125               # Infreq
..LN2007:
	.loc    1  49  is_stmt 1
        lea       1536(%rsp), %rdi                              #49.3
..___tag_value_read_mosaic_xgrid_order1_.701:
..LN2008:
#       error_handler(const char *)
        call      error_handler                                 #49.3
..___tag_value_read_mosaic_xgrid_order1_.702:
..LN2009:
        jmp       ..B11.7       # Prob 100%                     #49.3
..LN2010:
                                # LOE rbx r15
..B11.127:                      # Preds ..B11.4                 # Infreq
..LN2011:
	.loc    1  123  is_stmt 1
        movl      $.L_2__STRING.5, %esi                         #123.5
..LN2012:
        lea       (%rsp), %rdi                                  #123.5
..LN2013:
        movl      $.L_2__STRING.13, %edx                        #123.5
..LN2014:
        movq      %rbx, %rcx                                    #123.5
..LN2015:
        xorl      %eax, %eax                                    #123.5
..LN2016:
#       sprintf(char *__restrict__, const char *__restrict__, ...)
        call      sprintf                                       #123.5
..LN2017:
                                # LOE rbx r15 r12d
..B11.128:                      # Preds ..B11.127               # Infreq
..LN2018:
	.loc    1  48  is_stmt 1
        movl      %r12d, %edi                                   #48.35
..___tag_value_read_mosaic_xgrid_order1_.703:
..LN2019:
#       nc_strerror(int)
        call      nc_strerror                                   #48.35
..___tag_value_read_mosaic_xgrid_order1_.704:
..LN2020:
                                # LOE rax rbx r15
..B11.129:                      # Preds ..B11.128               # Infreq
..LN2021:
        movl      $.L_2__STRING.0, %esi                         #48.3
..LN2022:
        lea       1024(%rsp), %rdi                              #48.3
..LN2023:
        movq      %rax, %rcx                                    #48.3
..LN2024:
        lea       (%rsp), %rdx                                  #48.3
..LN2025:
        xorl      %eax, %eax                                    #48.3
..LN2026:
#       sprintf(char *__restrict__, const char *__restrict__, ...)
        call      sprintf                                       #48.3
..LN2027:
                                # LOE rbx r15
..B11.130:                      # Preds ..B11.129               # Infreq
..LN2028:
	.loc    1  49  is_stmt 1
        lea       1024(%rsp), %rdi                              #49.3
..___tag_value_read_mosaic_xgrid_order1_.705:
..LN2029:
#       error_handler(const char *)
        call      error_handler                                 #49.3
..___tag_value_read_mosaic_xgrid_order1_.706:
..LN2030:
        jmp       ..B11.5       # Prob 100%                     #49.3
..LN2031:
                                # LOE rbx r15
..B11.131:                      # Preds ..B11.2                 # Infreq
..LN2032:
	.loc    1  117  is_stmt 1
        movl      $.L_2__STRING.4, %esi                         #117.5
..LN2033:
        lea       (%rsp), %rdi                                  #117.5
..LN2034:
        movq      %rbx, %rdx                                    #117.5
..LN2035:
        xorl      %eax, %eax                                    #117.5
..LN2036:
#       sprintf(char *__restrict__, const char *__restrict__, ...)
        call      sprintf                                       #117.5
..LN2037:
                                # LOE rbx r15 r12d
..B11.132:                      # Preds ..B11.131               # Infreq
..LN2038:
	.loc    1  48  is_stmt 1
        movl      %r12d, %edi                                   #48.35
..___tag_value_read_mosaic_xgrid_order1_.707:
..LN2039:
#       nc_strerror(int)
        call      nc_strerror                                   #48.35
..___tag_value_read_mosaic_xgrid_order1_.708:
..LN2040:
                                # LOE rax rbx r15
..B11.133:                      # Preds ..B11.132               # Infreq
..LN2041:
        movl      $.L_2__STRING.0, %esi                         #48.3
..LN2042:
        lea       512(%rsp), %rdi                               #48.3
..LN2043:
        movq      %rax, %rcx                                    #48.3
..LN2044:
        lea       (%rsp), %rdx                                  #48.3
..LN2045:
        xorl      %eax, %eax                                    #48.3
..LN2046:
#       sprintf(char *__restrict__, const char *__restrict__, ...)
        call      sprintf                                       #48.3
..LN2047:
                                # LOE rbx r15
..B11.134:                      # Preds ..B11.133               # Infreq
..LN2048:
	.loc    1  49  is_stmt 1
        lea       512(%rsp), %rdi                               #49.3
..___tag_value_read_mosaic_xgrid_order1_.709:
..LN2049:
#       error_handler(const char *)
        call      error_handler                                 #49.3
..___tag_value_read_mosaic_xgrid_order1_.710:
..LN2050:
        jmp       ..B11.3       # Prob 100%                     #49.3
        .align    16,0x90
	.cfi_endproc
..LN2051:
                                # LOE rbx r15
..LN2052:
# mark_end;
	.type	read_mosaic_xgrid_order1_,@function
	.size	read_mosaic_xgrid_order1_,.-read_mosaic_xgrid_order1_
..LNread_mosaic_xgrid_order1_.2053:
.LNread_mosaic_xgrid_order1_:
	.data
# -- End  read_mosaic_xgrid_order1_
	.text
.L_2__routine_start_read_mosaic_xgrid_order1_11:
# -- Begin  read_mosaic_xgrid_order1
	.text
# mark_begin;
       .align    16,0x90
	.globl read_mosaic_xgrid_order1
# --- read_mosaic_xgrid_order1(const char *, int *, int *, int *, int *, double *)
read_mosaic_xgrid_order1:
# parameter 1(xgrid_file): %rdi
# parameter 2(i1): %rsi
# parameter 3(j1): %rdx
# parameter 4(i2): %rcx
# parameter 5(j2): %r8
# parameter 6(area): %r9
..B12.1:                        # Preds ..B12.0
	.cfi_startproc
..___tag_value_read_mosaic_xgrid_order1.715:
..L716:
                                                        #364.1
..LN2054:
	.loc    1  364  is_stmt 1
        pushq     %r12                                          #364.1
	.cfi_def_cfa_offset 16
	.cfi_offset 12, -16
..LN2055:
        pushq     %r13                                          #364.1
	.cfi_def_cfa_offset 24
	.cfi_offset 13, -24
..LN2056:
        pushq     %r14                                          #364.1
	.cfi_def_cfa_offset 32
	.cfi_offset 14, -32
..LN2057:
        pushq     %r15                                          #364.1
	.cfi_def_cfa_offset 40
	.cfi_offset 15, -40
..LN2058:
        pushq     %rbx                                          #364.1
	.cfi_def_cfa_offset 48
	.cfi_offset 3, -48
..LN2059:
        pushq     %rbp                                          #364.1
	.cfi_def_cfa_offset 56
	.cfi_offset 6, -56
..LN2060:
        subq      $10824, %rsp                                  #364.1
	.cfi_def_cfa_offset 10880
..LN2061:
        movq      %rdx, %r14                                    #364.1
..LN2062:
        movq      %rsi, 10776(%rsp)                             #364.1
..LN2063:
	.loc    1  115  prologue_end  is_stmt 1
        xorl      %esi, %esi                                    #115.12
..LN2064:
	.loc    1  364  is_stmt 1
        movq      %r8, 10768(%rsp)                              #364.1
..LN2065:
	.loc    1  115  is_stmt 1
        lea       10784(%rsp), %rdx                             #115.12
..LN2066:
	.loc    1  364  is_stmt 1
        movq      %rcx, -24(%rdx)                               #364.1
..LN2067:
        movq      %r9, %r15                                     #364.1
..LN2068:
        movq      %rdi, %rbx                                    #364.1
..___tag_value_read_mosaic_xgrid_order1.731:
..LN2069:
	.loc    1  115  is_stmt 1
#       nc_open(const char *, int, int *)
        call      nc_open                                       #115.12
..___tag_value_read_mosaic_xgrid_order1.732:
..LN2070:
                                # LOE rbx r14 r15 eax
..B12.113:                      # Preds ..B12.1
..LN2071:
        movl      %eax, %ebp                                    #115.12
..LN2072:
                                # LOE rbx r14 r15 ebp
..B12.2:                        # Preds ..B12.113
..LN2073:
	.loc    1  116  is_stmt 1
        testl     %ebp, %ebp                                    #116.16
..LN2074:
        jne       ..B12.107     # Prob 5%                       #116.16
..LN2075:
                                # LOE rbx r14 r15 ebp
..B12.3:                        # Preds ..B12.110 ..B12.2
..LN2076:
	.loc    1  121  is_stmt 1
        movl      $.L_2__STRING.13, %esi                        #121.12
..LN2077:
        lea       10788(%rsp), %rdx                             #121.12
..LN2078:
        movl      -4(%rdx), %edi                                #121.12
..___tag_value_read_mosaic_xgrid_order1.733:
..LN2079:
#       nc_inq_dimid(int, const char *, int *)
        call      nc_inq_dimid                                  #121.12
..___tag_value_read_mosaic_xgrid_order1.734:
..LN2080:
                                # LOE rbx r14 r15 eax
..B12.114:                      # Preds ..B12.3
..LN2081:
        movl      %eax, %ebp                                    #121.12
..LN2082:
                                # LOE rbx r14 r15 ebp
..B12.4:                        # Preds ..B12.114
..LN2083:
	.loc    1  122  is_stmt 1
        testl     %ebp, %ebp                                    #122.16
..LN2084:
        jne       ..B12.103     # Prob 5%                       #122.16
..LN2085:
                                # LOE rbx r14 r15 ebp
..B12.5:                        # Preds ..B12.106 ..B12.4
..LN2086:
	.loc    1  127  is_stmt 1
        movl      10784(%rsp), %edi                             #127.12
..LN2087:
        lea       10752(%rsp), %rdx                             #127.12
..LN2088:
        movl      36(%rdx), %esi                                #127.12
..___tag_value_read_mosaic_xgrid_order1.735:
..LN2089:
#       nc_inq_dimlen(int, int, size_t *)
        call      nc_inq_dimlen                                 #127.12
..___tag_value_read_mosaic_xgrid_order1.736:
..LN2090:
                                # LOE rbx r14 r15 eax
..B12.115:                      # Preds ..B12.5
..LN2091:
        movl      %eax, %ebp                                    #127.12
..LN2092:
                                # LOE rbx r14 r15 ebp
..B12.6:                        # Preds ..B12.115
..LN2093:
	.loc    1  128  is_stmt 1
        testl     %ebp, %ebp                                    #128.16
..LN2094:
        jne       ..B12.99      # Prob 5%                       #128.16
..LN2095:
                                # LOE rbx r14 r15 ebp
..B12.7:                        # Preds ..B12.102 ..B12.6
..LN2096:
	.loc    1  132  is_stmt 1
        movl      10784(%rsp), %edi                             #132.12
..___tag_value_read_mosaic_xgrid_order1.737:
..LN2097:
#       nc_close(int)
        call      nc_close                                      #132.12
..___tag_value_read_mosaic_xgrid_order1.738:
..LN2098:
                                # LOE rbx r14 r15 eax
..B12.116:                      # Preds ..B12.7
..LN2099:
        movl      %eax, %ebp                                    #132.12
..LN2100:
                                # LOE rbx r14 r15 ebp
..B12.8:                        # Preds ..B12.116
..LN2101:
	.loc    1  133  is_stmt 1
        testl     %ebp, %ebp                                    #133.16
..LN2102:
        jne       ..B12.95      # Prob 5%                       #133.16
..LN2103:
                                # LOE rbx r14 r15 ebp
..B12.9:                        # Preds ..B12.98 ..B12.8
..LN2104:
	.loc    1  138  is_stmt 1
        movslq    10752(%rsp), %r13                             #138.9
..LN2105:
	.loc    1  139  is_stmt 1
        jne       ..B12.91      # Prob 5%                       #139.16
..LN2106:
                                # LOE rbx r13 r14 r15 ebp
..B12.10:                       # Preds ..B12.94 ..B12.9
..LN2107:
	.loc    1  371  is_stmt 1
        movl      %r13d, %edi                                   #371.29
..LN2108:
        addl      %edi, %edi                                    #371.43
..LN2109:
        movslq    %edi, %rbp                                    #371.43
..LN2110:
        shlq      $2, %rbp                                      #371.45
..LN2111:
        movq      %rbp, %rdi                                    #371.29
..LN2112:
#       malloc(size_t)
        call      malloc                                        #371.29
..LN2113:
                                # LOE rax rbx rbp r13 r14 r15
..B12.117:                      # Preds ..B12.10
..LN2114:
        movq      %rax, %r12                                    #371.29
..LN2115:
                                # LOE rbx rbp r12 r13 r14 r15
..B12.11:                       # Preds ..B12.117
..LN2116:
	.loc    1  372  is_stmt 1
        movq      %rbp, %rdi                                    #372.29
..LN2117:
#       malloc(size_t)
        call      malloc                                        #372.29
..LN2118:
                                # LOE rax rbx r12 r13 r14 r15
..B12.118:                      # Preds ..B12.11
..LN2119:
        movq      %rax, %rbp                                    #372.29
..LN2120:
                                # LOE rbx rbp r12 r13 r14 r15
..B12.12:                       # Preds ..B12.118
..LN2121:
	.loc    1  236  is_stmt 1
        movq      %rbx, %rdi                                    #236.12
..LN2122:
        xorl      %esi, %esi                                    #236.12
..LN2123:
        lea       10792(%rsp), %rdx                             #236.12
..___tag_value_read_mosaic_xgrid_order1.739:
..LN2124:
#       nc_open(const char *, int, int *)
        call      nc_open                                       #236.12
..___tag_value_read_mosaic_xgrid_order1.740:
..LN2125:
                                # LOE rbx rbp r12 r13 r14 r15 eax
..B12.119:                      # Preds ..B12.12
..LN2126:
        movl      %eax, %r8d                                    #236.12
..LN2127:
                                # LOE rbx rbp r12 r13 r14 r15 r8d
..B12.13:                       # Preds ..B12.119
..LN2128:
	.loc    1  237  is_stmt 1
        testl     %r8d, %r8d                                    #237.16
..LN2129:
        jne       ..B12.87      # Prob 5%                       #237.16
..LN2130:
                                # LOE rbx rbp r12 r13 r14 r15 r8d
..B12.14:                       # Preds ..B12.90 ..B12.13
..LN2131:
	.loc    1  241  is_stmt 1
        movl      $.L_2__STRING.14, %esi                        #241.12
..LN2132:
        lea       10796(%rsp), %rdx                             #241.12
..LN2133:
        movl      -4(%rdx), %edi                                #241.12
..___tag_value_read_mosaic_xgrid_order1.741:
..LN2134:
#       nc_inq_varid(int, const char *, int *)
        call      nc_inq_varid                                  #241.12
..___tag_value_read_mosaic_xgrid_order1.742:
..LN2135:
                                # LOE rbx rbp r12 r13 r14 r15 eax
..B12.120:                      # Preds ..B12.14
..LN2136:
        movl      %eax, %r8d                                    #241.12
..LN2137:
                                # LOE rbx rbp r12 r13 r14 r15 r8d
..B12.15:                       # Preds ..B12.120
..LN2138:
	.loc    1  242  is_stmt 1
        testl     %r8d, %r8d                                    #242.16
..LN2139:
        jne       ..B12.83      # Prob 5%                       #242.16
..LN2140:
                                # LOE rbx rbp r12 r13 r14 r15 r8d
..B12.16:                       # Preds ..B12.86 ..B12.15
..LN2141:
	.loc    1  246  is_stmt 1
        movq      %r12, %rdx                                    #246.12
..LN2142:
        movl      10792(%rsp), %edi                             #246.12
..LN2143:
        movl      10796(%rsp), %esi                             #246.12
..___tag_value_read_mosaic_xgrid_order1.743:
..LN2144:
#       nc_get_var_int(int, int, int *)
        call      nc_get_var_int                                #246.12
..___tag_value_read_mosaic_xgrid_order1.744:
..LN2145:
                                # LOE rbx rbp r12 r13 r14 r15 eax
..B12.121:                      # Preds ..B12.16
..LN2146:
        movl      %eax, %r8d                                    #246.12
..LN2147:
                                # LOE rbx rbp r12 r13 r14 r15 r8d
..B12.17:                       # Preds ..B12.121
..LN2148:
	.loc    1  247  is_stmt 1
        testl     %r8d, %r8d                                    #247.16
..LN2149:
        jne       ..B12.79      # Prob 5%                       #247.16
..LN2150:
                                # LOE rbx rbp r12 r13 r14 r15 r8d
..B12.18:                       # Preds ..B12.82 ..B12.17
..LN2151:
	.loc    1  251  is_stmt 1
        movl      10792(%rsp), %edi                             #251.12
..___tag_value_read_mosaic_xgrid_order1.745:
..LN2152:
#       nc_close(int)
